 app

 Timestamp is 59b1123f (Thu Sep  7 17:32:47 2017)

 Preferred load address is 00400000

 Start         Length     Name                   Class
 0001:00000000 00000580H .text$di                CODE
 0001:00000580 0001e780H .text$mn                CODE
 0001:0001ed00 00003f80H .text$x                 CODE
 0001:00022c80 00000281H .text$yd                CODE
 0002:00000000 00000738H .idata$5                DATA
 0002:00000738 00000004H .00cfg                  DATA
 0002:0000073c 00000004H .CRT$XCA                DATA
 0002:00000740 00000004H .CRT$XCAA               DATA
 0002:00000744 000000a8H .CRT$XCU                DATA
 0002:000007ec 00000004H .CRT$XCZ                DATA
 0002:000007f0 00000004H .CRT$XIA                DATA
 0002:000007f4 00000004H .CRT$XIAA               DATA
 0002:000007f8 00000004H .CRT$XIAC               DATA
 0002:000007fc 00000004H .CRT$XIZ                DATA
 0002:00000800 00000004H .CRT$XPA                DATA
 0002:00000804 00000004H .CRT$XPZ                DATA
 0002:00000808 00000004H .CRT$XTA                DATA
 0002:0000080c 00000004H .CRT$XTZ                DATA
 0002:00000810 00100f74H .rdata                  DATA
 0002:00101784 00000e4cH .rdata$r                DATA
 0002:001025d0 0000036cH .rdata$sxdata           DATA
 0002:0010293c 00000320H .rdata$zzzdbg           DATA
 0002:00102c5c 00000004H .rtc$IAA                DATA
 0002:00102c60 00000004H .rtc$IZZ                DATA
 0002:00102c64 00000004H .rtc$TAA                DATA
 0002:00102c68 00000008H .rtc$TZZ                DATA
 0002:00102c70 0000468cH .xdata$x                DATA
 0002:001072fc 00000000H .edata                  DATA
 0002:001072fc 000000f0H .idata$2                DATA
 0002:001073ec 00000014H .idata$3                DATA
 0002:00107400 00000738H .idata$4                DATA
 0002:00107b38 000044beH .idata$6                DATA
 0003:00000000 00000098H .data                   DATA
 0003:00000098 00000678H .data$r                 DATA
 0003:00000710 00000468H .bss                    DATA
 0004:00000000 00000050H .gfids$y                DATA
 0005:00000000 00000060H .rsrc$01                DATA
 0005:00000060 00000280H .rsrc$02                DATA

  Address         Publics by Value              Rva+Base       Lib:Object

 0000:00000000       ___guard_longjmp_table     00000000     <absolute>
 0000:00000000       ___guard_iat_count         00000000     <absolute>
 0000:00000000       ___guard_longjmp_count     00000000     <absolute>
 0000:00000000       ___guard_fids_table        00000000     <absolute>
 0000:00000000       ___guard_iat_table         00000000     <absolute>
 0000:00000000       ___dynamic_value_reloc_table 00000000     <absolute>
 0000:00000000       ___guard_fids_count        00000000     <absolute>
 0000:000000db       ___safe_se_handler_count   000000db     <absolute>
 0000:00000100       ___guard_flags             00000100     <absolute>
 0000:00000000       ___ImageBase               00400000     <linker-defined>
 0001:00000580       ??0AppenderSkeleton@Log4Qt@@IAE@_NPAVQObject@@@Z 00401580 f   appenderskeleton.obj
 0001:00000630       ??0AppenderSkeleton@Log4Qt@@QAE@PAVQObject@@@Z 00401630 f   appenderskeleton.obj
 0001:000006e0       ??1?$QList@VLogError@Log4Qt@@@@QAE@XZ 004016e0 f i appenderskeleton.obj
 0001:00000740       ??1Appender@Log4Qt@@UAE@XZ 00401740 f i appenderskeleton.obj
 0001:00000750       ??1AppenderSkeleton@Log4Qt@@UAE@XZ 00401750 f i appenderskeleton.obj
 0001:000007d0       ??1LogError@Log4Qt@@QAE@XZ 004017d0 f i appenderskeleton.obj
 0001:00000880       ??1RecursionGuardLocker@Log4Qt@@QAE@XZ 00401880 f i appenderskeleton.obj
 0001:00000890       ??6LogError@Log4Qt@@QAEAAV01@ABVQString@@@Z 00401890 f i appenderskeleton.obj
 0001:00000900       ??_GLogObject@Log4Qt@@UAEPAXI@Z 00401900 f i appenderskeleton.obj
 0001:00000900       ??_ELogObject@Log4Qt@@UAEPAXI@Z 00401900 f i appenderskeleton.obj
 0001:00000930       ?activateOptions@AppenderSkeleton@Log4Qt@@UAEXXZ 00401930 f   appenderskeleton.obj
 0001:00000a70       ?addFilter@AppenderSkeleton@Log4Qt@@UAEXPAVFilter@2@@Z 00401a70 f   appenderskeleton.obj
 0001:00000b80       ?append@?$QList@VQVariant@@@@QAEXABVQVariant@@@Z 00401b80 f i appenderskeleton.obj
 0001:00000c40       ?checkEntryConditions@AppenderSkeleton@Log4Qt@@MBE_NXZ 00401c40 f   appenderskeleton.obj
 0001:00000ed0       ?clearFilters@AppenderSkeleton@Log4Qt@@UAEXXZ 00401ed0 f   appenderskeleton.obj
 0001:00000f50       ?close@AppenderSkeleton@Log4Qt@@UAEXXZ 00401f50 f   appenderskeleton.obj
 0001:00000f80       ?dealloc@?$QList@VLogError@Log4Qt@@@@AAEXPAUData@QListData@@@Z 00401f80 f i appenderskeleton.obj
 0001:00000fe0       ?detach_helper_grow@?$QList@VQVariant@@@@AAEPAUNode@1@HH@Z 00401fe0 f i appenderskeleton.obj
 0001:00001150       ?doAppend@AppenderSkeleton@Log4Qt@@UAEXABVLoggingEvent@2@@Z 00402150 f   appenderskeleton.obj
 0001:00001220       ?error@Logger@Log4Qt@@QBEXABVLogError@2@@Z 00402220 f i appenderskeleton.obj
 0001:000012a0       ?filter@AppenderSkeleton@Log4Qt@@UBEPAVFilter@2@XZ 004022a0 f i appenderskeleton.obj
 0001:000012d0       ?layout@AppenderSkeleton@Log4Qt@@UBEPAVLayout@2@XZ 004022d0 f i appenderskeleton.obj
 0001:00001300       ?name@AppenderSkeleton@Log4Qt@@UBE?AVQString@@XZ 00402300 f i appenderskeleton.obj
 0001:00001380       ?node_copy@?$QList@VQVariant@@@@AAEXPAUNode@1@00@Z 00402380 f i appenderskeleton.obj
 0001:00001450       ?node_destruct@?$QList@VQVariant@@@@AAEXPAUNode@1@0@Z 00402450 f i appenderskeleton.obj
 0001:00001490       ?setLayout@AppenderSkeleton@Log4Qt@@UAEXPAVLayout@2@@Z 00402490 f i appenderskeleton.obj
 0001:000014f0       ?setName@AppenderSkeleton@Log4Qt@@UAEXABVQString@@@Z 004024f0 f i appenderskeleton.obj
 0001:00001560       ?warn@Logger@Log4Qt@@QBEXPBDABVQString@@@Z 00402560 f i appenderskeleton.obj
 0001:00001610       ??0?$QList@VLoggingEvent@Log4Qt@@@@QAE@ABV0@@Z 00402610 f i basicconfigurator.obj
 0001:000016c0       ??0LoggingEvent@Log4Qt@@QAE@ABV01@@Z 004026c0 f i basicconfigurator.obj
 0001:00001780       ??1?$QList@VLoggingEvent@Log4Qt@@@@QAE@XZ 00402780 f i basicconfigurator.obj
 0001:00001800       ??4?$QList@VLoggingEvent@Log4Qt@@@@QAEAAV0@ABV0@@Z 00402800 f i basicconfigurator.obj
 0001:000018a0       ??_GLoggingEvent@Log4Qt@@QAEPAXI@Z 004028a0 f i basicconfigurator.obj
 0001:00001940       ?deleteNode2@?$QHash@VQString@@V1@@@CAXPAUNode@QHashData@@@Z 00402940 f i basicconfigurator.obj
 0001:00001960       ?detach@?$QHash@VQString@@V1@@@QAEXXZ 00402960 f i basicconfigurator.obj
 0001:000019c0       ?duplicateNode@?$QHash@VQString@@V1@@@CAXPAUNode@QHashData@@PAX@Z 004029c0 f i basicconfigurator.obj
 0001:00001a00       ?node_copy@?$QList@VLoggingEvent@Log4Qt@@@@AAEXPAUNode@1@00@Z 00402a00 f i basicconfigurator.obj
 0001:00001ac0       ?node_destruct@?$QList@VLoggingEvent@Log4Qt@@@@AAEXPAUNode@1@0@Z 00402ac0 f i basicconfigurator.obj
 0001:00001b80       ??0ConsoleAppender@Log4Qt@@QAE@PAVLayout@1@W4Target@01@PAVQObject@@@Z 00402b80 f   consoleappender.obj
 0001:00001bb0       ??0ConsoleAppender@Log4Qt@@QAE@PAVQObject@@@Z 00402bb0 f   consoleappender.obj
 0001:00001be0       ??_EConsoleAppender@Log4Qt@@UAEPAXI@Z 00402be0 f i consoleappender.obj
 0001:00001be0       ??_GConsoleAppender@Log4Qt@@UAEPAXI@Z 00402be0 f i consoleappender.obj
 0001:00001c90       ??_GQTextStream@@UAEPAXI@Z 00402c90 f i consoleappender.obj
 0001:00001c90       ??_EQTextStream@@UAEPAXI@Z 00402c90 f i consoleappender.obj
 0001:00001cc0       ?activateOptions@ConsoleAppender@Log4Qt@@UAEXXZ 00402cc0 f   consoleappender.obj
 0001:00001da0       ?close@ConsoleAppender@Log4Qt@@UAEXXZ 00402da0 f   consoleappender.obj
 0001:00001e30       ?debug@ConsoleAppender@Log4Qt@@MBE?AVQDebug@@AAV3@@Z 00402e30 f   consoleappender.obj
 0001:000020d0       ?name@Layout@Log4Qt@@QBE?AVQString@@XZ 004030d0 f i consoleappender.obj
 0001:000020f0       ?setTarget@ConsoleAppender@Log4Qt@@QAEXABVQString@@@Z 004030f0 f   consoleappender.obj
 0001:00002120       ?target@ConsoleAppender@Log4Qt@@QBE?AVQString@@XZ 00403120 f   consoleappender.obj
 0001:00002160       ??0DailyRollingFileAppender@Log4Qt@@QAE@PAVQObject@@@Z 00403160 f   dailyrollingfileappender.obj
 0001:00002220       ??0QLatin1String@@QAE@PBD@Z 00403220 f i dailyrollingfileappender.obj
 0001:00002260       ??1DateTime@Log4Qt@@QAE@XZ 00403260 f i dailyrollingfileappender.obj
 0001:00002270       ??9@YA_NABVQString@@0@Z    00403270 f i dailyrollingfileappender.obj
 0001:00002290       ??H@YA?BVQString@@ABV0@0@Z 00403290 f i dailyrollingfileappender.obj
 0001:00002300       ??_GDailyRollingFileAppender@Log4Qt@@UAEPAXI@Z 00403300 f i dailyrollingfileappender.obj
 0001:00002300       ??_EDailyRollingFileAppender@Log4Qt@@UAEPAXI@Z 00403300 f i dailyrollingfileappender.obj
 0001:00002390       ?activateOptions@DailyRollingFileAppender@Log4Qt@@UAEXXZ 00403390 f   dailyrollingfileappender.obj
 0001:00002410       ?append@DailyRollingFileAppender@Log4Qt@@MAEXABVLoggingEvent@2@@Z 00403410 f   dailyrollingfileappender.obj
 0001:00002490       ?checkEntryConditions@DailyRollingFileAppender@Log4Qt@@MBE_NXZ 00403490 f   dailyrollingfileappender.obj
 0001:000025b0       ?computeFrequency@DailyRollingFileAppender@Log4Qt@@AAEXXZ 004035b0 f   dailyrollingfileappender.obj
 0001:00002980       ?computeRollOverTime@DailyRollingFileAppender@Log4Qt@@AAEXXZ 00403980 f   dailyrollingfileappender.obj
 0001:00002d50       ?datePattern@DailyRollingFileAppender@Log4Qt@@QBE?AVQString@@XZ 00403d50 f i dailyrollingfileappender.obj
 0001:00002da0       ?debug@DailyRollingFileAppender@Log4Qt@@MBE?AVQDebug@@AAV3@@Z 00403da0 f   dailyrollingfileappender.obj
 0001:00003280       ?file@FileAppender@Log4Qt@@QBE?AVQString@@XZ 00404280 f i dailyrollingfileappender.obj
 0001:000032d0       ?frequencyToString@DailyRollingFileAppender@Log4Qt@@ABE?AVQString@@XZ 004042d0 f   dailyrollingfileappender.obj
 0001:00003350       ?rollOver@DailyRollingFileAppender@Log4Qt@@AAEXXZ 00404350 f   dailyrollingfileappender.obj
 0001:00003480       ?setDatePattern@DailyRollingFileAppender@Log4Qt@@QAEXABVQString@@@Z 00404480 f i dailyrollingfileappender.obj
 0001:000034c0       ?trace@Logger@Log4Qt@@QBEXPBDABVQString@@1@Z 004044c0 f i dailyrollingfileappender.obj
 0001:00003560       ?trace@Logger@Log4Qt@@QBEXPBDABVQVariant@@11@Z 00404560 f i dailyrollingfileappender.obj
 0001:00003660       ??0?$QList@VLogError@Log4Qt@@@@QAE@ABV0@@Z 00404660 f i fileappender.obj
 0001:00003710       ??0?$QList@VQVariant@@@@QAE@ABV0@@Z 00404710 f i fileappender.obj
 0001:000037c0       ??0FileAppender@Log4Qt@@QAE@PAVQObject@@@Z 004047c0 f   fileappender.obj
 0001:00003800       ??0LogError@Log4Qt@@QAE@ABV01@@Z 00404800 f i fileappender.obj
 0001:000038a0       ??1?$QList@VQVariant@@@@QAE@XZ 004048a0 f i fileappender.obj
 0001:00003920       ??1FileAppender@Log4Qt@@UAE@XZ 00404920 f   fileappender.obj
 0001:000039a0       ??_GFileAppender@Log4Qt@@UAEPAXI@Z 004049a0 f i fileappender.obj
 0001:000039a0       ??_EFileAppender@Log4Qt@@UAEPAXI@Z 004049a0 f i fileappender.obj
 0001:00003a40       ??_EQFile@@UAEPAXI@Z       00404a40 f i fileappender.obj
 0001:00003a40       ??_GQFile@@UAEPAXI@Z       00404a40 f i fileappender.obj
 0001:00003a70       ?activateOptions@FileAppender@Log4Qt@@UAEXXZ 00404a70 f   fileappender.obj
 0001:00003bb0       ?append@?$QList@VLogError@Log4Qt@@@@QAEXABVLogError@Log4Qt@@@Z 00404bb0 f i fileappender.obj
 0001:00003c70       ?checkEntryConditions@FileAppender@Log4Qt@@MBE_NXZ 00404c70 f   fileappender.obj
 0001:00003d90       ?close@FileAppender@Log4Qt@@UAEXXZ 00404d90 f   fileappender.obj
 0001:00003e00       ?closeFile@FileAppender@Log4Qt@@IAEXXZ 00404e00 f   fileappender.obj
 0001:00003ed0       ?debug@FileAppender@Log4Qt@@MBE?AVQDebug@@AAV3@@Z 00404ed0 f   fileappender.obj
 0001:000042f0       ?debug@Logger@Log4Qt@@QBEXPBDABVQString@@1@Z 004052f0 f i fileappender.obj
 0001:00004390       ?detach_helper_grow@?$QList@VLogError@Log4Qt@@@@AAEPAUNode@1@HH@Z 00405390 f i fileappender.obj
 0001:000044e0       ?handleIoErrors@FileAppender@Log4Qt@@MBE_NXZ 004054e0 f   fileappender.obj
 0001:000046a0       ?node_copy@?$QList@VLogError@Log4Qt@@@@AAEXPAUNode@1@00@Z 004056a0 f i fileappender.obj
 0001:00004770       ?node_destruct@?$QList@VLogError@Log4Qt@@@@AAEXPAUNode@1@0@Z 00405770 f i fileappender.obj
 0001:000047b0       ?openFile@FileAppender@Log4Qt@@IAEXXZ 004057b0 f   fileappender.obj
 0001:00004ab0       ?removeFile@FileAppender@Log4Qt@@IBE_NAAVQFile@@@Z 00405ab0 f   fileappender.obj
 0001:00004c80       ?renameFile@FileAppender@Log4Qt@@IBE_NAAVQFile@@ABVQString@@@Z 00405c80 f   fileappender.obj
 0001:00004ec0       ?trace@Logger@Log4Qt@@QBEXPBDABVQString@@@Z 00405ec0 f i fileappender.obj
 0001:00004f70       ??0ClassLogger@Log4Qt@@QAE@XZ 00405f70 f   classlogger.obj
 0001:00004f90       ?logger@ClassLogger@Log4Qt@@QAEPAVLogger@2@PBVQObject@@@Z 00405f90 f   classlogger.obj
 0001:00005030       ??1ConfiguratorHelper@Log4Qt@@EAE@XZ 00406030 f   configuratorhelper.obj
 0001:000050e0       ??_GConfiguratorHelper@Log4Qt@@EAEPAXI@Z 004060e0 f i configuratorhelper.obj
 0001:000050e0       ??_EConfiguratorHelper@Log4Qt@@EAEPAXI@Z 004060e0 f i configuratorhelper.obj
 0001:00005100       ?doConfigurationFileChanged@ConfiguratorHelper@Log4Qt@@AAEXABVQString@@@Z 00406100 f   configuratorhelper.obj
 0001:00005190       ?instance@ConfiguratorHelper@Log4Qt@@SAPAV12@XZ 00406190 f   configuratorhelper.obj
 0001:00005250       ?formatDateTime@DateTime@Log4Qt@@ABE?AVQString@@ABV3@@Z 00406250 f   datetime.obj
 0001:00005580       ?formatToken@DateTime@Log4Qt@@ABE?AVQString@@ABV3@_N@Z 00406580 f   datetime.obj
 0001:00005ea0       ?hasAMPM@DateTime@Log4Qt@@CA_NABVQString@@@Z 00406ea0 f   datetime.obj
 0001:00005f50       ?toMilliSeconds@DateTime@Log4Qt@@QBE_JXZ 00406f50 f i datetime.obj
 0001:00005f90       ?toString@DateTime@Log4Qt@@QBE?AVQString@@ABV3@@Z 00406f90 f   datetime.obj
 0001:00006130       ??$fromValue@VLevel@Log4Qt@@@QVariant@@SA?AV0@ABVLevel@Log4Qt@@@Z 00407130 f i factory.obj
 0001:00006150       ??$qRegisterMetaType@VLevel@Log4Qt@@@@YAHPBDPAVLevel@Log4Qt@@W4DefinedType@?$MetaTypeDefinedHelper@VLevel@Log4Qt@@$00@QtPrivate@@@Z 00407150 f i factory.obj
 0001:00006200       ??$qVariantFromValue@VLevel@Log4Qt@@@@YA?AVQVariant@@ABVLevel@Log4Qt@@@Z 00407200 f i factory.obj
 0001:00006230       ??1?$QList@VQString@@@@QAE@XZ 00407230 f i factory.obj
 0001:000062c0       ??1Factory@Log4Qt@@QAE@XZ  004072c0 f i factory.obj
 0001:000063a0       ??1Layout@Log4Qt@@UAE@XZ   004073a0 f i factory.obj
 0001:000063d0       ??1?$QForeachContainer@VQStringList@@@QtPrivate@@QAE@XZ 004073d0 f i initialisationhelper.obj
 0001:000063d0       ??1?$QForeachContainer@V?$QList@VQString@@@@@QtPrivate@@QAE@XZ 004073d0 f i logmanager.obj
 0001:000063d0       ??1QStringList@@QAE@XZ     004073d0 f i factory.obj
 0001:000063d0       ??1?$QListIterator@VQString@@@@QAE@XZ 004073d0 f i propertyconfigurator.obj
 0001:000063e0       ??_EAppenderSkeleton@Log4Qt@@UAEPAXI@Z 004073e0 f i appenderskeleton.obj
 0001:000063e0       ??_GDebugAppender@Log4Qt@@UAEPAXI@Z 004073e0 f i factory.obj
 0001:000063e0       ??_GAppenderSkeleton@Log4Qt@@UAEPAXI@Z 004073e0 f i appenderskeleton.obj
 0001:000063e0       ??_EDebugAppender@Log4Qt@@UAEPAXI@Z 004073e0 f i factory.obj
 0001:00006400       ??_GDenyAllFilter@Log4Qt@@UAEPAXI@Z 00407400 f i factory.obj
 0001:00006400       ??_EFilter@Log4Qt@@UAEPAXI@Z 00407400 f i factory.obj
 0001:00006400       ??_EDenyAllFilter@Log4Qt@@UAEPAXI@Z 00407400 f i factory.obj
 0001:00006400       ??_GFilter@Log4Qt@@UAEPAXI@Z 00407400 f i factory.obj
 0001:00006450       ??_GLayout@Log4Qt@@UAEPAXI@Z 00407450 f i factory.obj
 0001:00006450       ??_GSimpleLayout@Log4Qt@@UAEPAXI@Z 00407450 f i factory.obj
 0001:00006450       ??_ESimpleLayout@Log4Qt@@UAEPAXI@Z 00407450 f i factory.obj
 0001:00006450       ??_ELayout@Log4Qt@@UAEPAXI@Z 00407450 f i factory.obj
 0001:000064a0       ?Construct@?$QMetaTypeFunctionHelper@VLevel@Log4Qt@@$00@QtMetaTypePrivate@@SAPAXPAXPBX@Z 004074a0 f i factory.obj
 0001:000064d0       ?append@?$QList@VQString@@@@QAEXABVQString@@@Z 004074d0 f i factory.obj
 0001:00006580       ?console_file_appender@Log4Qt@@YAPAVAppender@1@XZ 00407580 f   factory.obj
 0001:000065d0       ?createNode@?$QHash@VQString@@P6APAVFilter@Log4Qt@@XZ@@AAEPAU?$QHashNode@VQString@@P6APAVFilter@Log4Qt@@XZ@@IABVQString@@ABQ6APAVFilter@Log4Qt@@XZPAPAU2@@Z 004075d0 f i factory.obj
 0001:000065d0       ?createNode@?$QHash@VQString@@P6APAVAppender@Log4Qt@@XZ@@AAEPAU?$QHashNode@VQString@@P6APAVAppender@Log4Qt@@XZ@@IABVQString@@ABQ6APAVAppender@Log4Qt@@XZPAPAU2@@Z 004075d0 f i factory.obj
 0001:000065d0       ?createNode@?$QHash@VQString@@P6APAVLayout@Log4Qt@@XZ@@AAEPAU?$QHashNode@VQString@@P6APAVLayout@Log4Qt@@XZ@@IABVQString@@ABQ6APAVLayout@Log4Qt@@XZPAPAU2@@Z 004075d0 f i factory.obj
 0001:000065d0       ?createNode@?$QHash@VQString@@PAVLogger@Log4Qt@@@@AAEPAU?$QHashNode@VQString@@PAVLogger@Log4Qt@@@@IABVQString@@ABQAVLogger@Log4Qt@@PAPAU2@@Z 004075d0 f i hierarchy.obj
 0001:00006640       ?create_daily_rolling_file_appender@Log4Qt@@YAPAVAppender@1@XZ 00407640 f   factory.obj
 0001:00006690       ?create_debug_appender@Log4Qt@@YAPAVAppender@1@XZ 00407690 f   factory.obj
 0001:000066f0       ?create_deny_all_filter@Log4Qt@@YAPAVFilter@1@XZ 004076f0 f   factory.obj
 0001:00006770       ?create_file_appender@Log4Qt@@YAPAVAppender@1@XZ 00407770 f   factory.obj
 0001:000067c0       ?create_level_match_filter@Log4Qt@@YAPAVFilter@1@XZ 004077c0 f   factory.obj
 0001:00006810       ?create_level_range_filter@Log4Qt@@YAPAVFilter@1@XZ 00407810 f   factory.obj
 0001:00006860       ?create_list_appender@Log4Qt@@YAPAVAppender@1@XZ 00407860 f   factory.obj
 0001:000068b0       ?create_null_appender@Log4Qt@@YAPAVAppender@1@XZ 004078b0 f   factory.obj
 0001:00006900       ?create_pattern_layout@Log4Qt@@YAPAVLayout@1@XZ 00407900 f   factory.obj
 0001:00006950       ?create_rolling_file_appender@Log4Qt@@YAPAVAppender@1@XZ 00407950 f   factory.obj
 0001:000069a0       ?create_simple_layout@Log4Qt@@YAPAVLayout@1@XZ 004079a0 f   factory.obj
 0001:00006a30       ?create_string_match_filter@Log4Qt@@YAPAVFilter@1@XZ 00407a30 f   factory.obj
 0001:00006a80       ?create_ttcc_layout@Log4Qt@@YAPAVLayout@1@XZ 00407a80 f   factory.obj
 0001:00006ad0       ?debug@Logger@Log4Qt@@QBEXPBDABVQString@@11@Z 00407ad0 f i factory.obj
 0001:00006b80       ?decide@DenyAllFilter@Log4Qt@@UBE?AW4Decision@Filter@2@ABVLoggingEvent@2@@Z 00407b80 f i factory.obj
 0001:00006b90       ?deleteNode2@?$QHash@VQString@@P6APAVAppender@Log4Qt@@XZ@@CAXPAUNode@QHashData@@@Z 00407b90 f i factory.obj
 0001:00006b90       ?deleteNode2@?$QHash@VQString@@P6APAVFilter@Log4Qt@@XZ@@CAXPAUNode@QHashData@@@Z 00407b90 f i factory.obj
 0001:00006b90       ?deleteNode2@?$QHash@VQString@@P6APAVLayout@Log4Qt@@XZ@@CAXPAUNode@QHashData@@@Z 00407b90 f i factory.obj
 0001:00006b90       ?deleteNode2@?$QHash@VQString@@PAVLogger@Log4Qt@@@@CAXPAUNode@QHashData@@@Z 00407b90 f i hierarchy.obj
 0001:00006ba0       ?detach_helper@?$QList@VQString@@@@AAEXH@Z 00407ba0 f i factory.obj
 0001:00006c90       ?detach_helper_grow@?$QList@VQString@@@@AAEPAUNode@1@HH@Z 00407c90 f i factory.obj
 0001:00006e10       ?doCreateAppender@Factory@Log4Qt@@AAEPAVAppender@2@ABVQString@@@Z 00407e10 f   factory.obj
 0001:00006f10       ?doCreateLayout@Factory@Log4Qt@@AAEPAVLayout@2@ABVQString@@@Z 00407f10 f   factory.obj
 0001:00007010       ?doSetObjectProperty@Factory@Log4Qt@@AAEXPAVQObject@@ABVQString@@1@Z 00408010 f   factory.obj
 0001:000073d0       ?duplicateNode@?$QHash@VQString@@PAVLogger@Log4Qt@@@@CAXPAUNode@QHashData@@PAX@Z 004083d0 f i hierarchy.obj
 0001:000073d0       ?duplicateNode@?$QHash@VQString@@P6APAVAppender@Log4Qt@@XZ@@CAXPAUNode@QHashData@@PAX@Z 004083d0 f i factory.obj
 0001:000073d0       ?duplicateNode@?$QHash@VQString@@P6APAVFilter@Log4Qt@@XZ@@CAXPAUNode@QHashData@@PAX@Z 004083d0 f i factory.obj
 0001:000073d0       ?duplicateNode@?$QHash@VQString@@P6APAVLayout@Log4Qt@@XZ@@CAXPAUNode@QHashData@@PAX@Z 004083d0 f i factory.obj
 0001:00007400       ?findNode@?$QHash@VQString@@P6APAVAppender@Log4Qt@@XZ@@ABEPAPAU?$QHashNode@VQString@@P6APAVAppender@Log4Qt@@XZ@@ABVQString@@I@Z 00408400 f i factory.obj
 0001:00007400       ?findNode@?$QHash@VQString@@P6APAVLayout@Log4Qt@@XZ@@ABEPAPAU?$QHashNode@VQString@@P6APAVLayout@Log4Qt@@XZ@@ABVQString@@I@Z 00408400 f i factory.obj
 0001:00007400       ?findNode@?$QHash@VQString@@PAVLogger@Log4Qt@@@@ABEPAPAU?$QHashNode@VQString@@PAVLogger@Log4Qt@@@@ABVQString@@I@Z 00408400 f i hierarchy.obj
 0001:00007400       ?findNode@?$QHash@VQString@@V?$LogObjectPtr@VAppender@Log4Qt@@@Log4Qt@@@@ABEPAPAU?$QHashNode@VQString@@V?$LogObjectPtr@VAppender@Log4Qt@@@Log4Qt@@@@ABVQString@@I@Z 00408400 f i propertyconfigurator.obj
 0001:00007400       ?findNode@?$QHash@VQString@@P6APAVFilter@Log4Qt@@XZ@@ABEPAPAU?$QHashNode@VQString@@P6APAVFilter@Log4Qt@@XZ@@ABVQString@@I@Z 00408400 f i factory.obj
 0001:00007400       ?findNode@?$QHash@VQString@@V1@@@ABEPAPAU?$QHashNode@VQString@@V1@@@ABVQString@@I@Z 00408400 f i initialisationhelper.obj
 0001:00007470       ?instance@Factory@Log4Qt@@SAPAV12@XZ 00408470 f   factory.obj
 0001:00007560       ?node_copy@?$QList@VQString@@@@AAEXPAUNode@1@00@Z 00408560 f i factory.obj
 0001:000075a0       ?node_destruct@?$QList@VQString@@@@AAEXPAUNode@1@0@Z 004085a0 f i factory.obj
 0001:000075d0       ?qt_metatype_id@?$QMetaTypeId@VLevel@Log4Qt@@@@SAHXZ 004085d0 f i factory.obj
 0001:00007660       ?registerDefaultAppenders@Factory@Log4Qt@@AAEXXZ 00408660 f   factory.obj
 0001:00007a30       ?registerDefaultFilters@Factory@Log4Qt@@AAEXXZ 00408a30 f   factory.obj
 0001:00007c70       ?registerDefaultLayouts@Factory@Log4Qt@@AAEXXZ 00408c70 f   factory.obj
 0001:00007e30       ?validateObjectProperty@Factory@Log4Qt@@AAE_NAAVQMetaProperty@@ABVQString@@PAVQObject@@@Z 00408e30 f   factory.obj
 0001:00008240       ?warn@Logger@Log4Qt@@QBEXPBD@Z 00409240 f i factory.obj
 0001:000082c0       ??$qMakeForeachContainer@AAVQStringList@@@QtPrivate@@YA?AV?$QForeachContainer@VQStringList@@@0@AAVQStringList@@@Z 004092c0 f i initialisationhelper.obj
 0001:00008300       ??$qRegisterMetaType@VLogError@Log4Qt@@@@YAHPBDPAVLogError@Log4Qt@@W4DefinedType@?$MetaTypeDefinedHelper@VLogError@Log4Qt@@$00@QtPrivate@@@Z 00409300 f i initialisationhelper.obj
 0001:00008370       ??$qRegisterMetaType@VLoggingEvent@Log4Qt@@@@YAHPBDPAVLoggingEvent@Log4Qt@@W4DefinedType@?$MetaTypeDefinedHelper@VLoggingEvent@Log4Qt@@$00@QtPrivate@@@Z 00409370 f i initialisationhelper.obj
 0001:000083e0       ??$qRegisterMetaTypeStreamOperators@VLevel@Log4Qt@@@@YAXPBDPAVLevel@Log4Qt@@@Z 004093e0 f i initialisationhelper.obj
 0001:000084b0       ??$qRegisterMetaTypeStreamOperators@VLogError@Log4Qt@@@@YAXPBDPAVLogError@Log4Qt@@@Z 004094b0 f i initialisationhelper.obj
 0001:00008580       ??$qRegisterMetaTypeStreamOperators@VLoggingEvent@Log4Qt@@@@YAXPBDPAVLoggingEvent@Log4Qt@@@Z 00409580 f i initialisationhelper.obj
 0001:00008650       ??$qRegisterNormalizedMetaType@VLogError@Log4Qt@@@@YAHABVQByteArray@@PAVLogError@Log4Qt@@W4DefinedType@?$MetaTypeDefinedHelper@VLogError@Log4Qt@@$00@QtPrivate@@@Z 00409650 f i initialisationhelper.obj
 0001:00008720       ??$qRegisterNormalizedMetaType@VLoggingEvent@Log4Qt@@@@YAHABVQByteArray@@PAVLoggingEvent@Log4Qt@@W4DefinedType@?$MetaTypeDefinedHelper@VLoggingEvent@Log4Qt@@$00@QtPrivate@@@Z 00409720 f i initialisationhelper.obj
 0001:000087f0       ??0?$QList@VQString@@@@QAE@ABV0@@Z 004097f0 f i initialisationhelper.obj
 0001:000088a0       ??0InitialisationHelper@Log4Qt@@AAE@XZ 004098a0 f   initialisationhelper.obj
 0001:00008960       ??1?$QHash@VQString@@V1@@@QAE@XZ 00409960 f i initialisationhelper.obj
 0001:000089c0       ??_GInitialisationHelper@Log4Qt@@EAEPAXI@Z 004099c0 f i initialisationhelper.obj
 0001:000089c0       ??_EInitialisationHelper@Log4Qt@@EAEPAXI@Z 004099c0 f i initialisationhelper.obj
 0001:00008a50       ?Construct@?$QMetaTypeFunctionHelper@VLogError@Log4Qt@@$00@QtMetaTypePrivate@@SAPAXPAXPBX@Z 00409a50 f i initialisationhelper.obj
 0001:00008ad0       ?Construct@?$QMetaTypeFunctionHelper@VLoggingEvent@Log4Qt@@$00@QtMetaTypePrivate@@SAPAXPAXPBX@Z 00409ad0 f i initialisationhelper.obj
 0001:00008b50       ?Destruct@?$QMetaTypeFunctionHelper@VLogError@Log4Qt@@$00@QtMetaTypePrivate@@SAXPAX@Z 00409b50 f i initialisationhelper.obj
 0001:00008b60       ?Destruct@?$QMetaTypeFunctionHelper@VLoggingEvent@Log4Qt@@$00@QtMetaTypePrivate@@SAXPAX@Z 00409b60 f i initialisationhelper.obj
 0001:00008bf0       ?Load@?$QMetaTypeFunctionHelper@VLevel@Log4Qt@@$00@QtMetaTypePrivate@@SAXAAVQDataStream@@PAX@Z 00409bf0 f i initialisationhelper.obj
 0001:00008c00       ?Load@?$QMetaTypeFunctionHelper@VLogError@Log4Qt@@$00@QtMetaTypePrivate@@SAXAAVQDataStream@@PAX@Z 00409c00 f i initialisationhelper.obj
 0001:00008c10       ?Load@?$QMetaTypeFunctionHelper@VLoggingEvent@Log4Qt@@$00@QtMetaTypePrivate@@SAXAAVQDataStream@@PAX@Z 00409c10 f i initialisationhelper.obj
 0001:00008c20       ?Save@?$QMetaTypeFunctionHelper@VLevel@Log4Qt@@$00@QtMetaTypePrivate@@SAXAAVQDataStream@@PBX@Z 00409c20 f i initialisationhelper.obj
 0001:00008c30       ?Save@?$QMetaTypeFunctionHelper@VLogError@Log4Qt@@$00@QtMetaTypePrivate@@SAXAAVQDataStream@@PBX@Z 00409c30 f i initialisationhelper.obj
 0001:00008c40       ?Save@?$QMetaTypeFunctionHelper@VLoggingEvent@Log4Qt@@$00@QtMetaTypePrivate@@SAXAAVQDataStream@@PBX@Z 00409c40 f i initialisationhelper.obj
 0001:00008c50       ?createNode@?$QHash@VQString@@V1@@@AAEPAU?$QHashNode@VQString@@V1@@@IABVQString@@0PAPAU2@@Z 00409c50 f i initialisationhelper.obj
 0001:00008cc0       ?currentDateTime@DateTime@Log4Qt@@SA?AV12@XZ 00409cc0 f i initialisationhelper.obj
 0001:00008d00       ?doInitialiseEnvironmentSettings@InitialisationHelper@Log4Qt@@AAEXXZ 00409d00 f   initialisationhelper.obj
 0001:000091b0       ?doRegisterTypes@InitialisationHelper@Log4Qt@@AAEXXZ 0040a1b0 f   initialisationhelper.obj
 0001:00009390       ?doSetting@InitialisationHelper@Log4Qt@@ABE?AVQString@@ABV3@0@Z 0040a390 f   initialisationhelper.obj
 0001:00009500       ?environmentSettings@InitialisationHelper@Log4Qt@@SA?AV?$QHash@VQString@@V1@@@XZ 0040a500 f i initialisationhelper.obj
 0001:000095c0       ?fromMilliSeconds@DateTime@Log4Qt@@SA?AV12@_J@Z 0040a5c0 f i initialisationhelper.obj
 0001:00009680       ?insert@?$QHash@VQString@@V1@@@QAE?AViterator@1@ABVQString@@0@Z 0040a680 f i initialisationhelper.obj
 0001:00009760       ?instance@InitialisationHelper@Log4Qt@@SAPAV12@XZ 0040a760 f   initialisationhelper.obj
 0001:000097f0       ?value@?$QHash@VQString@@V1@@@QBE?BVQString@@ABV2@@Z 0040a7f0 f i initialisationhelper.obj
 0001:00009860       ??$qMakeForeachContainer@ABV?$QList@VQVariant@@@@@QtPrivate@@YA?AV?$QForeachContainer@V?$QList@VQVariant@@@@@0@ABV?$QList@VQVariant@@@@@Z 0040a860 f i logerror.obj
 0001:000098a0       ??$readArrayBasedContainer@V?$QList@VLogError@Log4Qt@@@@@QtPrivate@@YAAAVQDataStream@@AAV1@AAV?$QList@VLogError@Log4Qt@@@@@Z 0040a8a0 f i logerror.obj
 0001:00009a50       ??$readArrayBasedContainer@V?$QList@VQVariant@@@@@QtPrivate@@YAAAVQDataStream@@AAV1@AAV?$QList@VQVariant@@@@@Z 0040aa50 f i logerror.obj
 0001:00009b80       ??$writeSequentialContainer@V?$QList@VLogError@Log4Qt@@@@@QtPrivate@@YAAAVQDataStream@@AAV1@ABV?$QList@VLogError@Log4Qt@@@@@Z 0040ab80 f i logerror.obj
 0001:00009bd0       ??$writeSequentialContainer@V?$QList@VQVariant@@@@@QtPrivate@@YAAAVQDataStream@@AAV1@ABV?$QList@VQVariant@@@@@Z 0040abd0 f i logerror.obj
 0001:00009c30       ??0LogError@Log4Qt@@QAE@ABVQString@@H00@Z 0040ac30 f   logerror.obj
 0001:00009cb0       ??0LogError@Log4Qt@@QAE@PBDH00W4Encoding@01@@Z 0040acb0 f   logerror.obj
 0001:00009df0       ??0LogError@Log4Qt@@QAE@XZ 0040adf0 f   logerror.obj
 0001:00009e30       ??1?$QForeachContainer@V?$QList@VQVariant@@@@@QtPrivate@@QAE@XZ 0040ae30 f i logerror.obj
 0001:00009eb0       ??1StreamStateSaver@QtPrivate@@QAE@XZ 0040aeb0 f i logerror.obj
 0001:00009f00       ??4?$QList@VQVariant@@@@QAEAAV0@$$QAV0@@Z 0040af00 f i logerror.obj
 0001:00009fc0       ??5Log4Qt@@YAAAVQDataStream@@AAV1@AAVLogError@0@@Z 0040afc0 f   logerror.obj
 0001:0000a100       ??6Log4Qt@@YAAAVQDataStream@@AAV1@ABVLogError@0@@Z 0040b100 f   logerror.obj
 0001:0000a200       ?cleanMessage@LogError@Log4Qt@@AAE?AVQString@@ABV3@@Z 0040b200 f   logerror.obj
 0001:0000a2e0       ?clear@?$QList@VLogError@Log4Qt@@@@QAEXXZ 0040b2e0 f i logerror.obj
 0001:0000a380       ?clear@?$QList@VQVariant@@@@QAEXXZ 0040b380 f i logerror.obj
 0001:0000a440       ?detach_helper@?$QList@VLogError@Log4Qt@@@@AAEXH@Z 0040b440 f i logerror.obj
 0001:0000a510       ?detach_helper@?$QList@VQVariant@@@@AAEXH@Z 0040b510 f i logerror.obj
 0001:0000a5f0       ?insertArgs@LogError@Log4Qt@@ABE?AVQString@@ABV3@@Z 0040b5f0 f   logerror.obj
 0001:0000a790       ?message@LogError@Log4Qt@@QBE?AVQString@@XZ 0040b790 f i logerror.obj
 0001:0000a790       ?message@LoggingEvent@Log4Qt@@QBE?AVQString@@XZ 0040b790 f i patternformatter.obj
 0001:0000a7b0       ?messageWithArgs@LogError@Log4Qt@@QBE?AVQString@@XZ 0040b7b0 f i logerror.obj
 0001:0000a820       ?toString@LogError@Log4Qt@@QBE?AVQString@@XZ 0040b820 f   logerror.obj
 0001:0000aa30       ?classNameJavaToCpp@OptionConverter@Log4Qt@@SA?AVQString@@ABV3@@Z 0040ba30 f   optionconverter.obj
 0001:0000aab0       ?findAndSubst@OptionConverter@Log4Qt@@SA?AVQString@@ABVProperties@2@ABV3@@Z 0040bab0 f   optionconverter.obj
 0001:0000add0       ?toBoolean@OptionConverter@Log4Qt@@SA_NABVQString@@PA_N@Z 0040bdd0 f   optionconverter.obj
 0001:0000af10       ?toBoolean@OptionConverter@Log4Qt@@SA_NABVQString@@_N@Z 0040bf10 f   optionconverter.obj
 0001:0000af40       ?toFileSize@OptionConverter@Log4Qt@@SA_JABVQString@@PA_N@Z 0040bf40 f   optionconverter.obj
 0001:0000b160       ?toInt@OptionConverter@Log4Qt@@SAHABVQString@@PA_N@Z 0040c160 f   optionconverter.obj
 0001:0000b2a0       ?toLevel@OptionConverter@Log4Qt@@SA?AVLevel@2@ABVQString@@ABV32@@Z 0040c2a0 f   optionconverter.obj
 0001:0000b2e0       ?toLevel@OptionConverter@Log4Qt@@SA?AVLevel@2@ABVQString@@PA_N@Z 0040c2e0 f   optionconverter.obj
 0001:0000b450       ?toQInt64@OptionConverter@Log4Qt@@SA_JABVQString@@PA_N@Z 0040c450 f   optionconverter.obj
 0001:0000b590       ?toTarget@OptionConverter@Log4Qt@@SAHABVQString@@PA_N@Z 0040c590 f   optionconverter.obj
 0001:0000b6b0       ??$qMakeForeachContainer@ABV?$QList@PAVPatternConverter@Log4Qt@@@@@QtPrivate@@YA?AV?$QForeachContainer@V?$QList@PAVPatternConverter@Log4Qt@@@@@0@ABV?$QList@PAVPatternConverter@Log4Qt@@@@@Z 0040c6b0 f i patternformatter.obj
 0001:0000b6b0       ??$qMakeForeachContainer@AAV?$QList@PAVPatternConverter@Log4Qt@@@@@QtPrivate@@YA?AV?$QForeachContainer@V?$QList@PAVPatternConverter@Log4Qt@@@@@0@AAV?$QList@PAVPatternConverter@Log4Qt@@@@@Z 0040c6b0 f i patternformatter.obj
 0001:0000b6f0       ??0?$QList@PAVPatternConverter@Log4Qt@@@@QAE@ABV0@@Z 0040c6f0 f i patternformatter.obj
 0001:0000b7a0       ??0DatePatternConverter@Log4Qt@@QAE@ABVFormattingInfo@1@ABVQString@@@Z 0040c7a0 f i patternformatter.obj
 0001:0000b7e0       ??0MDCPatternConverter@Log4Qt@@QAE@ABVFormattingInfo@1@ABVQString@@@Z 0040c7e0 f i patternformatter.obj
 0001:0000b820       ??0PatternFormatter@Log4Qt@@QAE@ABVQString@@@Z 0040c820 f   patternformatter.obj
 0001:0000b8c0       ??1?$QForeachContainer@V?$QList@PAVPatternConverter@Log4Qt@@@@@QtPrivate@@QAE@XZ 0040c8c0 f i patternformatter.obj
 0001:0000b920       ??1PatternFormatter@Log4Qt@@UAE@XZ 0040c920 f   patternformatter.obj
 0001:0000ba30       ??6Log4Qt@@YA?AVQDebug@@V1@ABVFormattingInfo@0@@Z 0040ca30 f   patternformatter.obj
 0001:0000bb60       ??_EDatePatternConverter@Log4Qt@@UAEPAXI@Z 0040cb60 f i patternformatter.obj
 0001:0000bb60       ??_EMDCPatternConverter@Log4Qt@@UAEPAXI@Z 0040cb60 f i patternformatter.obj
 0001:0000bb60       ??_ELiteralPatternConverter@Log4Qt@@UAEPAXI@Z 0040cb60 f i patternformatter.obj
 0001:0000bb60       ??_GMDCPatternConverter@Log4Qt@@UAEPAXI@Z 0040cb60 f i patternformatter.obj
 0001:0000bb60       ??_GLiteralPatternConverter@Log4Qt@@UAEPAXI@Z 0040cb60 f i patternformatter.obj
 0001:0000bb60       ??_GDatePatternConverter@Log4Qt@@UAEPAXI@Z 0040cb60 f i patternformatter.obj
 0001:0000bb90       ??_GBasicPatternConverter@Log4Qt@@UAEPAXI@Z 0040cb90 f i patternformatter.obj
 0001:0000bb90       ??_ELoggerPatternConverter@Log4Qt@@UAEPAXI@Z 0040cb90 f i patternformatter.obj
 0001:0000bb90       ??_EBasicPatternConverter@Log4Qt@@UAEPAXI@Z 0040cb90 f i patternformatter.obj
 0001:0000bb90       ??_GLoggerPatternConverter@Log4Qt@@UAEPAXI@Z 0040cb90 f i patternformatter.obj
 0001:0000bbc0       ??_EPatternConverter@Log4Qt@@UAEPAXI@Z 0040cbc0 f i patternformatter.obj
 0001:0000bbc0       ??_GPatternConverter@Log4Qt@@UAEPAXI@Z 0040cbc0 f i patternformatter.obj
 0001:0000bbf0       ??_GPatternFormatter@Log4Qt@@UAEPAXI@Z 0040cbf0 f i patternformatter.obj
 0001:0000bbf0       ??_EPatternFormatter@Log4Qt@@UAEPAXI@Z 0040cbf0 f i patternformatter.obj
 0001:0000bc10       ?addDigit@PatternFormatter@Log4Qt@@AAE_NABVQChar@@AAH@Z 0040cc10 f   patternformatter.obj
 0001:0000bc80       ?convert@BasicPatternConverter@Log4Qt@@MBE?AVQString@@ABVLoggingEvent@2@@Z 0040cc80 f   patternformatter.obj
 0001:0000bd20       ?convert@DatePatternConverter@Log4Qt@@MBE?AVQString@@ABVLoggingEvent@2@@Z 0040cd20 f   patternformatter.obj
 0001:0000bda0       ?convert@LiteralPatternConverter@Log4Qt@@MBE?AVQString@@ABVLoggingEvent@2@@Z 0040cda0 f   patternformatter.obj
 0001:0000bdd0       ?convert@LoggerPatternConverter@Log4Qt@@MBE?AVQString@@ABVLoggingEvent@2@@Z 0040cdd0 f   patternformatter.obj
 0001:0000bf00       ?convert@MDCPatternConverter@Log4Qt@@MBE?AVQString@@ABVLoggingEvent@2@@Z 0040cf00 f   patternformatter.obj
 0001:0000bfa0       ?createConverter@PatternFormatter@Log4Qt@@AAEXABVQChar@@ABVFormattingInfo@2@ABVQString@@@Z 0040cfa0 f   patternformatter.obj
 0001:0000c420       ?createLiteralConverter@PatternFormatter@Log4Qt@@AAEXABVQString@@@Z 0040d420 f   patternformatter.obj
 0001:0000c4d0       ?debug@BasicPatternConverter@Log4Qt@@MBE?AVQDebug@@AAV3@@Z 0040d4d0 f   patternformatter.obj
 0001:0000c600       ?debug@DatePatternConverter@Log4Qt@@MBE?AVQDebug@@AAV3@@Z 0040d600 f   patternformatter.obj
 0001:0000c6d0       ?debug@LiteralPatternConverter@Log4Qt@@MBE?AVQDebug@@AAV3@@Z 0040d6d0 f   patternformatter.obj
 0001:0000c7a0       ?debug@LoggerPatternConverter@Log4Qt@@MBE?AVQDebug@@AAV3@@Z 0040d7a0 f   patternformatter.obj
 0001:0000c870       ?debug@MDCPatternConverter@Log4Qt@@MBE?AVQDebug@@AAV3@@Z 0040d870 f   patternformatter.obj
 0001:0000c940       ?format@PatternConverter@Log4Qt@@QBEXAAVQString@@ABVLoggingEvent@2@@Z 0040d940 f   patternformatter.obj
 0001:0000ca30       ?format@PatternFormatter@Log4Qt@@QBE?AVQString@@ABVLoggingEvent@2@@Z 0040da30 f   patternformatter.obj
 0001:0000cb10       ?intToString@FormattingInfo@Log4Qt@@SA?AVQString@@H@Z 0040db10 f   patternformatter.obj
 0001:0000cb90       ?mdc@LoggingEvent@Log4Qt@@QBE?AV?$QHash@VQString@@V1@@@XZ 0040db90 f i patternformatter.obj
 0001:0000cbd0       ?name@Logger@Log4Qt@@QBE?AVQString@@XZ 0040dbd0 f i patternformatter.obj
 0001:0000cbd0       ?footer@Layout@Log4Qt@@QBE?AVQString@@XZ 0040dbd0 f i writerappender.obj
 0001:0000cbf0       ?ndc@LoggingEvent@Log4Qt@@QBE?AVQString@@XZ 0040dbf0 f i patternformatter.obj
 0001:0000cc10       ?node_copy@?$QList@PAVPatternConverter@Log4Qt@@@@AAEXPAUNode@1@00@Z 0040dc10 f i patternformatter.obj
 0001:0000cc10       ?node_copy@?$QList@PAVAppender@Log4Qt@@@@AAEXPAUNode@1@00@Z 0040dc10 f i logger.obj
 0001:0000cc10       ?node_copy@?$QList@PAVLogger@Log4Qt@@@@AAEXPAUNode@1@00@Z 0040dc10 f i hierarchy.obj
 0001:0000cc40       ?parse@PatternFormatter@Log4Qt@@AAEXXZ 0040dc40 f   patternformatter.obj
 0001:0000d140       ?parseIntegerOption@PatternFormatter@Log4Qt@@AAEHABVQString@@@Z 0040e140 f   patternformatter.obj
 0001:0000d340       ?threadName@LoggingEvent@Log4Qt@@QBE?AVQString@@XZ 0040e340 f i patternformatter.obj
 0001:0000d360       ?warn@Logger@Log4Qt@@QBEXPBDABVQString@@H1@Z 0040e360 f i patternformatter.obj
 0001:0000d480       ?keys@?$QHash@VQString@@V1@@@QBE?AV?$QList@VQString@@@@XZ 0040e480 f i properties.obj
 0001:0000d560       ?load@Properties@Log4Qt@@QAEXABVQSettings@@@Z 0040e560 f   properties.obj
 0001:0000d720       ?load@Properties@Log4Qt@@QAEXPAVQIODevice@@@Z 0040e720 f   properties.obj
 0001:0000d960       ?parseProperty@Properties@Log4Qt@@AAEXABVQString@@H@Z 0040e960 f   properties.obj
 0001:0000de20       ?property@Properties@Log4Qt@@QBE?AVQString@@ABV3@@Z 0040ee20 f   properties.obj
 0001:0000df10       ?propertyNames@Properties@Log4Qt@@QBE?AVQStringList@@XZ 0040ef10 f   properties.obj
 0001:0000e120       ?trimLeft@Properties@Log4Qt@@CA?AVQString@@ABV3@@Z 0040f120 f   properties.obj
 0001:0000e180       ?warn@Logger@Log4Qt@@QBEXPBDABVQString@@H@Z 0040f180 f i properties.obj
 0001:0000e270       ?warn@Logger@Log4Qt@@QBEXPBDH@Z 0040f270 f i properties.obj
 0001:0000e330       ??$qMakeForeachContainer@AAV?$QHash@VQString@@PAVLogger@Log4Qt@@@@@QtPrivate@@YA?AV?$QForeachContainer@V?$QHash@VQString@@PAVLogger@Log4Qt@@@@@0@AAV?$QHash@VQString@@PAVLogger@Log4Qt@@@@@Z 0040f330 f i hierarchy.obj
 0001:0000e350       ??0?$QForeachContainer@V?$QHash@VQString@@PAVLogger@Log4Qt@@@@@QtPrivate@@QAE@ABV?$QHash@VQString@@PAVLogger@Log4Qt@@@@@Z 0040f350 f i hierarchy.obj
 0001:0000e3c0       ??0Hierarchy@Log4Qt@@QAE@XZ 0040f3c0 f   hierarchy.obj
 0001:0000e470       ??1?$QForeachContainer@V?$QHash@VQString@@PAVLogger@Log4Qt@@@@@QtPrivate@@QAE@XZ 0040f470 f i hierarchy.obj
 0001:0000e4e0       ??1?$QHash@VQString@@P6APAVAppender@Log4Qt@@XZ@@QAE@XZ 0040f4e0 f i factory.obj
 0001:0000e4e0       ??1?$QHash@VQString@@P6APAVLayout@Log4Qt@@XZ@@QAE@XZ 0040f4e0 f i factory.obj
 0001:0000e4e0       ??1?$QHash@VQString@@P6APAVFilter@Log4Qt@@XZ@@QAE@XZ 0040f4e0 f i factory.obj
 0001:0000e4e0       ??1?$QHash@VQString@@PAVLogger@Log4Qt@@@@QAE@XZ 0040f4e0 f i hierarchy.obj
 0001:0000e540       ??1?$QList@PAVAppender@Log4Qt@@@@QAE@XZ 0040f540 f i hierarchy.obj
 0001:0000e540       ??1?$QList@PAVPatternConverter@Log4Qt@@@@QAE@XZ 0040f540 f i patternformatter.obj
 0001:0000e540       ??1?$QList@PAVLogger@Log4Qt@@@@QAE@XZ 0040f540 f i hierarchy.obj
 0001:0000e5a0       ??1Hierarchy@Log4Qt@@UAE@XZ 0040f5a0 f   hierarchy.obj
 0001:0000e690       ??_EHierarchy@Log4Qt@@UAEPAXI@Z 0040f690 f i hierarchy.obj
 0001:0000e690       ??_GHierarchy@Log4Qt@@UAEPAXI@Z 0040f690 f i hierarchy.obj
 0001:0000e6b0       ?append@?$QList@PAVLogger@Log4Qt@@@@QAEXABQAVLogger@Log4Qt@@@Z 0040f6b0 f i hierarchy.obj
 0001:0000e6b0       ?append@?$QList@PAVAppender@Log4Qt@@@@QAEXABQAVAppender@Log4Qt@@@Z 0040f6b0 f i logger.obj
 0001:0000e6b0       ?append@?$QList@PAVPatternConverter@Log4Qt@@@@QAEXABQAVPatternConverter@Log4Qt@@@Z 0040f6b0 f i patternformatter.obj
 0001:0000e740       ?createLogger@Hierarchy@Log4Qt@@AAEPAVLogger@2@ABVQString@@@Z 0040f740 f   hierarchy.obj
 0001:0000e920       ?debug@Hierarchy@Log4Qt@@MBE?AVQDebug@@AAV3@@Z 0040f920 f   hierarchy.obj
 0001:0000eb20       ?detach@?$QHash@VQString@@PAVLogger@Log4Qt@@@@QAEXXZ 0040fb20 f i hierarchy.obj
 0001:0000eb80       ?detach_helper@?$QList@PAVLogger@Log4Qt@@@@AAEXH@Z 0040fb80 f i hierarchy.obj
 0001:0000ec50       ?exists@Hierarchy@Log4Qt@@UBE_NABVQString@@@Z 0040fc50 f   hierarchy.obj
 0001:0000ecb0       ?insert@?$QHash@VQString@@P6APAVLayout@Log4Qt@@XZ@@QAE?AViterator@1@ABVQString@@ABQ6APAVLayout@Log4Qt@@XZ@Z 0040fcb0 f i factory.obj
 0001:0000ecb0       ?insert@?$QHash@VQString@@P6APAVFilter@Log4Qt@@XZ@@QAE?AViterator@1@ABVQString@@ABQ6APAVFilter@Log4Qt@@XZ@Z 0040fcb0 f i factory.obj
 0001:0000ecb0       ?insert@?$QHash@VQString@@PAVLogger@Log4Qt@@@@QAE?AViterator@1@ABVQString@@ABQAVLogger@Log4Qt@@@Z 0040fcb0 f i hierarchy.obj
 0001:0000ecb0       ?insert@?$QHash@VQString@@P6APAVAppender@Log4Qt@@XZ@@QAE?AViterator@1@ABVQString@@ABQ6APAVAppender@Log4Qt@@XZ@Z 0040fcb0 f i factory.obj
 0001:0000ed90       ?isDisabled@Hierarchy@Log4Qt@@UAE_NVLevel@2@@Z 0040fd90 f i hierarchy.obj
 0001:0000edb0       ?logger@Hierarchy@Log4Qt@@UAEPAVLogger@2@ABVQString@@@Z 0040fdb0 f   hierarchy.obj
 0001:0000ee20       ?loggers@Hierarchy@Log4Qt@@UBE?AV?$QList@PAVLogger@Log4Qt@@@@XZ 0040fe20 f   hierarchy.obj
 0001:0000ee90       ?resetConfiguration@Hierarchy@Log4Qt@@UAEXXZ 0040fe90 f   hierarchy.obj
 0001:0000f070       ?rootLogger@Hierarchy@Log4Qt@@UBEPAVLogger@2@XZ 00410070 f i hierarchy.obj
 0001:0000f080       ?setThreshold@Hierarchy@Log4Qt@@UAEXABVQString@@@Z 00410080 f   hierarchy.obj
 0001:0000f0b0       ?setThreshold@Hierarchy@Log4Qt@@UAEXVLevel@2@@Z 004100b0 f i hierarchy.obj
 0001:0000f0c0       ?shutdown@Hierarchy@Log4Qt@@UAEXXZ 004100c0 f   hierarchy.obj
 0001:0000f0d0       ?threshold@Hierarchy@Log4Qt@@UBE?AVLevel@2@XZ 004100d0 f i hierarchy.obj
 0001:0000f0e0       ?values@?$QHash@VQString@@PAVLogger@Log4Qt@@@@QBE?AV?$QList@PAVLogger@Log4Qt@@@@XZ 004100e0 f i hierarchy.obj
 0001:0000f1c0       ?contentType@Layout@Log4Qt@@UBE?AVQString@@XZ 004101c0 f   layout.obj
 0001:0000f1f0       ?endOfLine@Layout@Log4Qt@@SA?AVQString@@XZ 004101f0 f   layout.obj
 0001:0000f210       ??5Log4Qt@@YAAAVQDataStream@@AAV1@AAVLevel@0@@Z 00410210 f   level.obj
 0001:0000f240       ??6Log4Qt@@YA?AVQDebug@@V1@ABVLevel@0@@Z 00410240 f   level.obj
 0001:0000f300       ??6Log4Qt@@YAAAVQDataStream@@AAV1@ABVLevel@0@@Z 00410300 f   level.obj
 0001:0000f320       ?fromString@Level@Log4Qt@@SA?AV12@ABVQString@@PA_N@Z 00410320 f   level.obj
 0001:0000f790       ?toString@Level@Log4Qt@@QBE?AVQString@@XZ 00410790 f   level.obj
 0001:0000f950       ??$qMakeForeachContainer@ABV?$QList@V?$LogObjectPtr@VAppender@Log4Qt@@@Log4Qt@@@@@QtPrivate@@YA?AV?$QForeachContainer@V?$QList@V?$LogObjectPtr@VAppender@Log4Qt@@@Log4Qt@@@@@0@ABV?$QList@V?$LogObjectPtr@VAppender@Log4Qt@@@Log4Qt@@@@@Z 00410950 f i logger.obj
 0001:0000f990       ??0?$QList@V?$LogObjectPtr@VAppender@Log4Qt@@@Log4Qt@@@@QAE@ABV0@@Z 00410990 f i logger.obj
 0001:0000fa40       ??0?$QMutableListIterator@V?$LogObjectPtr@VAppender@Log4Qt@@@Log4Qt@@@@QAE@AAV?$QList@V?$LogObjectPtr@VAppender@Log4Qt@@@Log4Qt@@@@@Z 00410a40 f i logger.obj
 0001:0000fab0       ??0Logger@Log4Qt@@IAE@PAVLoggerRepository@1@VLevel@1@ABVQString@@PAV01@@Z 00410ab0 f   logger.obj
 0001:0000fb50       ??1?$QForeachContainer@V?$QList@V?$LogObjectPtr@VAppender@Log4Qt@@@Log4Qt@@@@@QtPrivate@@QAE@XZ 00410b50 f i logger.obj
 0001:0000fbd0       ??1?$QList@V?$LogObjectPtr@VAppender@Log4Qt@@@Log4Qt@@@@QAE@XZ 00410bd0 f i logger.obj
 0001:0000fc50       ??1Logger@Log4Qt@@MAE@XZ   00410c50 f   logger.obj
 0001:0000fd10       ??1LoggingEvent@Log4Qt@@QAE@XZ 00410d10 f i logger.obj
 0001:0000fda0       ??4?$QList@V?$LogObjectPtr@VAppender@Log4Qt@@@Log4Qt@@@@QAEAAV0@$$QAV0@@Z 00410da0 f i logger.obj
 0001:0000fe40       ??_ELogger@Log4Qt@@MAEPAXI@Z 00410e40 f i logger.obj
 0001:0000fe40       ??_GLogger@Log4Qt@@MAEPAXI@Z 00410e40 f i logger.obj
 0001:0000fe60       ?addAppender@Logger@Log4Qt@@QAEXPAVAppender@2@@Z 00410e60 f   logger.obj
 0001:00010000       ?append@?$QList@V?$LogObjectPtr@VAppender@Log4Qt@@@Log4Qt@@@@QAEXABV?$LogObjectPtr@VAppender@Log4Qt@@@Log4Qt@@@Z 00411000 f i logger.obj
 0001:000100c0       ?appenders@Logger@Log4Qt@@QBE?AV?$QList@PAVAppender@Log4Qt@@@@XZ 004110c0 f   logger.obj
 0001:00010210       ?callAppenders@Logger@Log4Qt@@QBEXABVLoggingEvent@2@@Z 00411210 f   logger.obj
 0001:00010350       ?clear@?$QList@V?$LogObjectPtr@VAppender@Log4Qt@@@Log4Qt@@@@QAEXXZ 00411350 f i logger.obj
 0001:000103e0       ?debug@Logger@Log4Qt@@MBE?AVQDebug@@AAV3@@Z 004113e0 f   logger.obj
 0001:00010590       ?detach_helper@?$QList@V?$LogObjectPtr@VAppender@Log4Qt@@@Log4Qt@@@@AAEXH@Z 00411590 f i logger.obj
 0001:00010670       ?detach_helper_grow@?$QList@PAVLogger@Log4Qt@@@@AAEPAUNode@1@HH@Z 00411670 f i hierarchy.obj
 0001:00010670       ?detach_helper_grow@?$QList@PAVPatternConverter@Log4Qt@@@@AAEPAUNode@1@HH@Z 00411670 f i patternformatter.obj
 0001:00010670       ?detach_helper_grow@?$QList@PAVAppender@Log4Qt@@@@AAEPAUNode@1@HH@Z 00411670 f i logger.obj
 0001:000107b0       ?detach_helper_grow@?$QList@V?$LogObjectPtr@VAppender@Log4Qt@@@Log4Qt@@@@AAEPAUNode@1@HH@Z 004117b0 f i logger.obj
 0001:00010920       ?effectiveLevel@Logger@Log4Qt@@QBE?AVLevel@2@XZ 00411920 f   logger.obj
 0001:00010990       ?erase@?$QList@V?$LogObjectPtr@VAppender@Log4Qt@@@Log4Qt@@@@QAE?AViterator@1@V21@@Z 00411990 f i logger.obj
 0001:00010a20       ?forcedLog@Logger@Log4Qt@@IBEXVLevel@2@ABVQString@@@Z 00411a20 f   logger.obj
 0001:00010af0       ?isEnabledFor@Logger@Log4Qt@@QBE_NVLevel@2@@Z 00411af0 f   logger.obj
 0001:00010b30       ?logger@Logger@Log4Qt@@SAPAV12@ABVQString@@@Z 00411b30 f   logger.obj
 0001:00010b40       ?logger@Logger@Log4Qt@@SAPAV12@PBD@Z 00411b40 f   logger.obj
 0001:00010bc0       ?node_copy@?$QList@V?$LogObjectPtr@VAppender@Log4Qt@@@Log4Qt@@@@AAEXPAUNode@1@00@Z 00411bc0 f i logger.obj
 0001:00010c00       ?node_destruct@?$QList@V?$LogObjectPtr@VAppender@Log4Qt@@@Log4Qt@@@@AAEXPAUNode@1@0@Z 00411c00 f i logger.obj
 0001:00010c40       ?node_destruct@?$QList@V?$LogObjectPtr@VAppender@Log4Qt@@@Log4Qt@@@@AAEXPAUNode@1@@Z 00411c40 f i logger.obj
 0001:00010c70       ?removeAll@?$QList@V?$LogObjectPtr@VAppender@Log4Qt@@@Log4Qt@@@@QAEHABV?$LogObjectPtr@VAppender@Log4Qt@@@Log4Qt@@@Z 00411c70 f i logger.obj
 0001:00010df0       ?removeAllAppenders@Logger@Log4Qt@@QAEXXZ 00411df0 f   logger.obj
 0001:00010fd0       ?removeAppender@Logger@Log4Qt@@QAEXPAVAppender@2@@Z 00411fd0 f   logger.obj
 0001:00011100       ?setLevel@Logger@Log4Qt@@UAEXVLevel@2@@Z 00412100 f   logger.obj
 0001:00011150       ?warn@Logger@Log4Qt@@QBEXPBDABVQString@@1@Z 00412150 f i logger.obj
 0001:00011210       ??$readAssociativeContainer@V?$QHash@VQString@@V1@@@@QtPrivate@@YAAAVQDataStream@@AAV1@AAV?$QHash@VQString@@V1@@@@Z 00412210 f i loggingevent.obj
 0001:00011350       ??$writeAssociativeContainer@V?$QHash@VQString@@V1@@@@QtPrivate@@YAAAVQDataStream@@AAV1@ABV?$QHash@VQString@@V1@@@@Z 00412350 f i loggingevent.obj
 0001:000113c0       ??0LoggingEvent@Log4Qt@@QAE@PBVLogger@1@VLevel@1@ABVQString@@@Z 004123c0 f   loggingevent.obj
 0001:00011520       ??0LoggingEvent@Log4Qt@@QAE@XZ 00412520 f   loggingevent.obj
 0001:00011670       ??5Log4Qt@@YAAAVQDataStream@@AAV1@AAVLoggingEvent@0@@Z 00412670 f   loggingevent.obj
 0001:000117d0       ??6Log4Qt@@YAAAVQDataStream@@AAV1@ABVLoggingEvent@0@@Z 004127d0 f   loggingevent.obj
 0001:00011900       ??H@YA?BVQString@@ABV0@VQChar@@@Z 00412900 f i loggingevent.obj
 0001:00011970       ?clear@?$QHash@VQString@@V1@@@QAEXXZ 00412970 f i loggingevent.obj
 0001:00011a10       ?insertMulti@?$QHash@VQString@@V1@@@QAE?AViterator@1@ABVQString@@0@Z 00412a10 f i loggingevent.obj
 0001:00011b10       ?loggerName@LoggingEvent@Log4Qt@@QBE?AVQString@@XZ 00412b10 f   loggingevent.obj
 0001:00011b50       ?sequence_guard@Log4Qt@@YAPAVQMutex@@XZ 00412b50 f   loggingevent.obj
 0001:00011be0       ??$qMakeForeachContainer@V?$QList@VQString@@@@@QtPrivate@@YA?AV?$QForeachContainer@V?$QList@VQString@@@@@0@$$QAV?$QList@VQString@@@@@Z 00412be0 f i logmanager.obj
 0001:00011be0       ??$qMakeForeachContainer@VQStringList@@@QtPrivate@@YA?AV?$QForeachContainer@VQStringList@@@0@$$QAVQStringList@@@Z 00412be0 f i logmanager.obj
 0001:00011c20       ??0LogManager@Log4Qt@@AAE@XZ 00412c20 f   logmanager.obj
 0001:00011ca0       ??1LogManager@Log4Qt@@EAE@XZ 00412ca0 f   logmanager.obj
 0001:00011d60       ??_GLogManager@Log4Qt@@EAEPAXI@Z 00412d60 f i logmanager.obj
 0001:00011d60       ??_ELogManager@Log4Qt@@EAEPAXI@Z 00412d60 f i logmanager.obj
 0001:00011d80       ?debug@Logger@Log4Qt@@QBEXPBD@Z 00412d80 f i logmanager.obj
 0001:00011e00       ?debug@Logger@Log4Qt@@QBEXPBDABVQString@@@Z 00412e00 f i logmanager.obj
 0001:00011eb0       ?doConfigureLogLogger@LogManager@Log4Qt@@AAEXXZ 00412eb0 f   logmanager.obj
 0001:00012240       ?doSetHandleQtMessages@LogManager@Log4Qt@@AAEX_N@Z 00413240 f   logmanager.obj
 0001:00012350       ?doStartup@LogManager@Log4Qt@@AAEXXZ 00413350 f   logmanager.obj
 0001:00012720       ?info@Logger@Log4Qt@@QBEXPBDABVQString@@@Z 00413720 f i logmanager.obj
 0001:000127d0       ?instance@LogManager@Log4Qt@@SAPAV12@XZ 004137d0 f   logmanager.obj
 0001:000128a0       ?logger@LogManager@Log4Qt@@SAPAVLogger@2@ABVQString@@@Z 004138a0 f   logmanager.obj
 0001:000128c0       ?qtMessageHandler@LogManager@Log4Qt@@CAXW4QtMsgType@@ABVQMessageLogContext@@ABVQString@@@Z 004138c0 f   logmanager.obj
 0001:00012a20       ?resetConfiguration@LogManager@Log4Qt@@SAXXZ 00413a20 f   logmanager.obj
 0001:00012a50       ?setting@InitialisationHelper@Log4Qt@@SA?AVQString@@ABV3@0@Z 00413a50 f i logmanager.obj
 0001:00012a80       ?shutdown@LogManager@Log4Qt@@SAXXZ 00413a80 f   logmanager.obj
 0001:00012a90       ?singleton_guard@Log4Qt@@YAPAVQMutex@@XZ 00413a90 f   logmanager.obj
 0001:00012b50       ?trace@Logger@Log4Qt@@QBEXPBD@Z 00413b50 f i logmanager.obj
 0001:00012bd0       ?welcome@LogManager@Log4Qt@@AAEXXZ 00413bd0 f   logmanager.obj
 0001:00013900       ?context@MDC@Log4Qt@@SA?AV?$QHash@VQString@@V1@@@XZ 00414900 f   mdc.obj
 0001:00013980       ?deleteData@?$QThreadStorage@PAV?$QHash@VQString@@V1@@@@@CAXPAX@Z 00414980 f i mdc.obj
 0001:00013a00       ?instance@MDC@Log4Qt@@SAPAV12@XZ 00414a00 f   mdc.obj
 0001:00013aa0       ??1?$QVector@VQString@@@@QAE@XZ 00414aa0 f i ndc.obj
 0001:00013b00       ?deallocate@?$QTypedArrayData@VQString@@@@SAXPAUQArrayData@@@Z 00414b00 f i ndc.obj
 0001:00013b20       ?defaultConstruct@?$QVector@VQString@@@@AAEXPAVQString@@0@Z 00414b20 f i ndc.obj
 0001:00013b50       ?deleteData@?$QThreadStorage@PAV?$QStack@VQString@@@@@@CAXPAX@Z 00414b50 f i ndc.obj
 0001:00013b70       ?destruct@?$QVector@VQString@@@@AAEXPAVQString@@0@Z 00414b70 f i ndc.obj
 0001:00013ba0       ?freeData@?$QVector@VQString@@@@AAEXPAU?$QTypedArrayData@VQString@@@@@Z 00414ba0 f i ndc.obj
 0001:00013bf0       ?instance@NDC@Log4Qt@@SAPAV12@XZ 00414bf0 f   ndc.obj
 0001:00013c90       ?peek@NDC@Log4Qt@@SA?AVQString@@XZ 00414c90 f   ndc.obj
 0001:00013d20       ?reallocData@?$QVector@VQString@@@@AAEXHHV?$QFlags@W4AllocationOption@QArrayData@@@@@Z 00414d20 f i ndc.obj
 0001:00013f50       ?top@?$QStack@VQString@@@@QAEAAVQString@@XZ 00414f50 f i ndc.obj
 0001:00014010       ??0PatternLayout@Log4Qt@@QAE@PAVQObject@@@Z 00415010 f   patternlayout.obj
 0001:00014110       ??_GPatternLayout@Log4Qt@@UAEPAXI@Z 00415110 f i patternlayout.obj
 0001:00014110       ??_EPatternLayout@Log4Qt@@UAEPAXI@Z 00415110 f i patternlayout.obj
 0001:00014170       ?conversionPattern@PatternLayout@Log4Qt@@QBE?AVQString@@XZ 00415170 f i patternlayout.obj
 0001:00014170       ?stringToMatch@StringMatchFilter@Log4Qt@@QBE?AVQString@@XZ 00415170 f i moc_stringmatchfilter.obj
 0001:00014190       ?debug@PatternLayout@Log4Qt@@MBE?AVQDebug@@AAV3@@Z 00415190 f   patternlayout.obj
 0001:000142b0       ?format@PatternLayout@Log4Qt@@UAE?AVQString@@ABVLoggingEvent@2@@Z 004152b0 f   patternlayout.obj
 0001:000142e0       ?updatePatternFormatter@PatternLayout@Log4Qt@@AAEXXZ 004152e0 f   patternlayout.obj
 0001:00014350       ??1?$LogObjectPtr@VLayout@Log4Qt@@@Log4Qt@@QAE@XZ 00415350 f i propertyconfigurator.obj
 0001:00014350       ??1?$LogObjectPtr@VAppender@Log4Qt@@@Log4Qt@@QAE@XZ 00415350 f i logger.obj
 0001:00014380       ??1Properties@Log4Qt@@QAE@XZ 00415380 f i propertyconfigurator.obj
 0001:000143f0       ??1PropertyConfigurator@Log4Qt@@QAE@XZ 004153f0 f i propertyconfigurator.obj
 0001:00014480       ?clear@?$QHash@VQString@@V?$LogObjectPtr@VAppender@Log4Qt@@@Log4Qt@@@@QAEXXZ 00415480 f i propertyconfigurator.obj
 0001:00014520       ?configure@PropertyConfigurator@Log4Qt@@SA_NABVQSettings@@@Z 00415520 f   propertyconfigurator.obj
 0001:000145f0       ?configure@PropertyConfigurator@Log4Qt@@SA_NABVQString@@@Z 004155f0 f   propertyconfigurator.obj
 0001:000146c0       ?configureFromFile@PropertyConfigurator@Log4Qt@@AAEXABVQString@@PAVLoggerRepository@2@@Z 004156c0 f   propertyconfigurator.obj
 0001:00014a30       ?configureFromSettings@PropertyConfigurator@Log4Qt@@AAEXABVQSettings@@PAVLoggerRepository@2@@Z 00415a30 f   propertyconfigurator.obj
 0001:00014b00       ?configureGlobalSettings@PropertyConfigurator@Log4Qt@@ABEXABVProperties@2@PAVLoggerRepository@2@@Z 00415b00 f   propertyconfigurator.obj
 0001:00014fc0       ?configureNonRootElements@PropertyConfigurator@Log4Qt@@AAEXABVProperties@2@PAVLoggerRepository@2@@Z 00415fc0 f   propertyconfigurator.obj
 0001:00015260       ?configureRootLogger@PropertyConfigurator@Log4Qt@@AAEXABVProperties@2@PAVLoggerRepository@2@@Z 00416260 f   propertyconfigurator.obj
 0001:00015440       ?createNode@?$QHash@VQString@@V?$LogObjectPtr@VAppender@Log4Qt@@@Log4Qt@@@@AAEPAU?$QHashNode@VQString@@V?$LogObjectPtr@VAppender@Log4Qt@@@Log4Qt@@@@IABVQString@@ABV?$LogObjectPtr@VAppender@Log4Qt@@@Log4Qt@@PAPAU2@@Z 00416440 f i propertyconfigurator.obj
 0001:000154b0       ?deleteNode2@?$QHash@VQString@@V?$LogObjectPtr@VAppender@Log4Qt@@@Log4Qt@@@@CAXPAUNode@QHashData@@@Z 004164b0 f i propertyconfigurator.obj
 0001:000154e0       ?duplicateNode@?$QHash@VQString@@V?$LogObjectPtr@VAppender@Log4Qt@@@Log4Qt@@@@CAXPAUNode@QHashData@@PAX@Z 004164e0 f i propertyconfigurator.obj
 0001:00015520       ?insert@?$QHash@VQString@@V?$LogObjectPtr@VAppender@Log4Qt@@@Log4Qt@@@@QAE?AViterator@1@ABVQString@@ABV?$LogObjectPtr@VAppender@Log4Qt@@@Log4Qt@@@Z 00416520 f i propertyconfigurator.obj
 0001:00015640       ?parseAdditivityForLogger@PropertyConfigurator@Log4Qt@@ABEXABVProperties@2@PAVLogger@2@ABVQString@@@Z 00416640 f   propertyconfigurator.obj
 0001:000157c0       ?parseAppender@PropertyConfigurator@Log4Qt@@AAE?AV?$LogObjectPtr@VAppender@Log4Qt@@@2@ABVProperties@2@ABVQString@@@Z 004167c0 f   propertyconfigurator.obj
 0001:00015c10       ?parseLayout@PropertyConfigurator@Log4Qt@@AAE?AV?$LogObjectPtr@VLayout@Log4Qt@@@2@ABVProperties@2@ABVQString@@@Z 00416c10 f   propertyconfigurator.obj
 0001:00015f70       ?parseLogger@PropertyConfigurator@Log4Qt@@AAEXABVProperties@2@PAVLogger@2@ABVQString@@2@Z 00416f70 f   propertyconfigurator.obj
 0001:00016280       ?setProperties@PropertyConfigurator@Log4Qt@@AAEXABVProperties@2@ABVQString@@ABVQStringList@@PAVQObject@@@Z 00417280 f   propertyconfigurator.obj
 0001:000165f0       ?startCaptureErrors@PropertyConfigurator@Log4Qt@@AAEXXZ 004175f0 f   propertyconfigurator.obj
 0001:00016700       ?stopCaptureErrors@PropertyConfigurator@Log4Qt@@AAE_NXZ 00417700 f   propertyconfigurator.obj
 0001:000168b0       ?value@?$QHash@VQString@@V?$LogObjectPtr@VAppender@Log4Qt@@@Log4Qt@@@@QBE?BV?$LogObjectPtr@VAppender@Log4Qt@@@Log4Qt@@ABVQString@@@Z 004178b0 f i propertyconfigurator.obj
 0001:00016920       ??0RollingFileAppender@Log4Qt@@QAE@PAVQObject@@@Z 00417920 f   rollingfileappender.obj
 0001:00016960       ??_GRollingFileAppender@Log4Qt@@UAEPAXI@Z 00417960 f i rollingfileappender.obj
 0001:00016960       ??_ERollingFileAppender@Log4Qt@@UAEPAXI@Z 00417960 f i rollingfileappender.obj
 0001:000169d0       ?append@RollingFileAppender@Log4Qt@@MAEXABVLoggingEvent@2@@Z 004179d0 f   rollingfileappender.obj
 0001:00016a10       ?debug@Logger@Log4Qt@@QBEXPBDH@Z 00417a10 f i rollingfileappender.obj
 0001:00016ad0       ?debug@RollingFileAppender@Log4Qt@@MBE?AVQDebug@@AAV3@@Z 00417ad0 f   rollingfileappender.obj
 0001:00016f80       ?rollOver@RollingFileAppender@Log4Qt@@AAEXXZ 00417f80 f   rollingfileappender.obj
 0001:000172b0       ?setMaxFileSize@RollingFileAppender@Log4Qt@@QAEXABVQString@@@Z 004182b0 f   rollingfileappender.obj
 0001:00017300       ?debug@SimpleLayout@Log4Qt@@MBE?AVQDebug@@AAV3@@Z 00418300 f   simplelayout.obj
 0001:000173e0       ?format@SimpleLayout@Log4Qt@@UAE?AVQString@@ABVLoggingEvent@2@@Z 004183e0 f   simplelayout.obj
 0001:000174e0       ?setNext@Filter@Log4Qt@@QAEXPAV12@@Z 004184e0 f   filter.obj
 0001:00017520       ??0TTCCLayout@Log4Qt@@QAE@PAVQObject@@@Z 00418520 f   ttcclayout.obj
 0001:00017600       ??_GTTCCLayout@Log4Qt@@UAEPAXI@Z 00418600 f i ttcclayout.obj
 0001:00017600       ??_ETTCCLayout@Log4Qt@@UAEPAXI@Z 00418600 f i ttcclayout.obj
 0001:00017660       ?dateFormat@TTCCLayout@Log4Qt@@QBE?AVQString@@XZ 00418660 f i ttcclayout.obj
 0001:00017680       ?debug@TTCCLayout@Log4Qt@@MBE?AVQDebug@@AAV3@@Z 00418680 f   ttcclayout.obj
 0001:00017820       ?format@TTCCLayout@Log4Qt@@UAE?AVQString@@ABVLoggingEvent@2@@Z 00418820 f   ttcclayout.obj
 0001:00017850       ?updatePatternFormatter@TTCCLayout@Log4Qt@@AAEXXZ 00418850 f   ttcclayout.obj
 0001:000179b0       ??0WriterAppender@Log4Qt@@QAE@PAVLayout@1@PAVQObject@@@Z 004189b0 f   writerappender.obj
 0001:00017a70       ??0WriterAppender@Log4Qt@@QAE@PAVQObject@@@Z 00418a70 f   writerappender.obj
 0001:00017ae0       ??1WriterAppender@Log4Qt@@UAE@XZ 00418ae0 f   writerappender.obj
 0001:00017b70       ??_EWriterAppender@Log4Qt@@UAEPAXI@Z 00418b70 f i writerappender.obj
 0001:00017b70       ??_GWriterAppender@Log4Qt@@UAEPAXI@Z 00418b70 f i writerappender.obj
 0001:00017c10       ?activateOptions@WriterAppender@Log4Qt@@UAEXXZ 00418c10 f   writerappender.obj
 0001:00017d40       ?append@WriterAppender@Log4Qt@@MAEXABVLoggingEvent@2@@Z 00418d40 f   writerappender.obj
 0001:00017dd0       ?checkEntryConditions@WriterAppender@Log4Qt@@MBE_NXZ 00418dd0 f   writerappender.obj
 0001:00017ee0       ?close@WriterAppender@Log4Qt@@UAEXXZ 00418ee0 f   writerappender.obj
 0001:00017f60       ?debug@WriterAppender@Log4Qt@@MBE?AVQDebug@@AAV3@@Z 00418f60 f   writerappender.obj
 0001:000182a0       ?requiresLayout@NullAppender@Log4Qt@@UBE_NXZ 004192a0 f   nullappender.obj
 0001:000182a0       ?handleIoErrors@WriterAppender@Log4Qt@@MBE_NXZ 004192a0 f   writerappender.obj
 0001:000182a0       ?requiresLayout@ListAppender@Log4Qt@@UBE_NXZ 004192a0 f   listappender.obj
 0001:000182b0       ?header@Layout@Log4Qt@@QBE?AVQString@@XZ 004192b0 f i writerappender.obj
 0001:000182d0       ___scrt_stub_for_acrt_uninitialize 004192d0 f   MSVCRT:ucrt_stubs.obj
 0001:000182d0       ___scrt_stub_for_acrt_initialize 004192d0 f   MSVCRT:ucrt_stubs.obj
 0001:000182d0       ___vcrt_uninitialize       004192d0 f   MSVCRT:ucrt_stubs.obj
 0001:000182d0       ?requiresLayout@DebugAppender@Log4Qt@@UBE_NXZ 004192d0 f   debugappender.obj
 0001:000182d0       __should_initialize_environment 004192d0 f   MSVCRT:env_mode.obj
 0001:000182d0       ?requiresLayout@WriterAppender@Log4Qt@@UBE_NXZ 004192d0 f   writerappender.obj
 0001:000182d0       ___acrt_initialize         004192d0 f   MSVCRT:ucrt_stubs.obj
 0001:000182d0       ___vcrt_initialize         004192d0 f   MSVCRT:ucrt_stubs.obj
 0001:000182d0       ___acrt_uninitialize       004192d0 f   MSVCRT:ucrt_stubs.obj
 0001:000182e0       ?setEncoding@WriterAppender@Log4Qt@@QAEXPAVQTextCodec@@@Z 004192e0 f   writerappender.obj
 0001:00018370       ?setWriter@WriterAppender@Log4Qt@@QAEXPAVQTextStream@@@Z 00419370 f   writerappender.obj
 0001:00018400       ?writeFooter@WriterAppender@Log4Qt@@IBEXXZ 00419400 f   writerappender.obj
 0001:000184b0       ?writeHeader@WriterAppender@Log4Qt@@IBEXXZ 004194b0 f   writerappender.obj
 0001:00018560       ?append@DebugAppender@Log4Qt@@MAEXABVLoggingEvent@2@@Z 00419560 f   debugappender.obj
 0001:000185d0       ?debug@DebugAppender@Log4Qt@@MBE?AVQDebug@@AAV3@@Z 004195d0 f   debugappender.obj
 0001:00018820       ?debug@DenyAllFilter@Log4Qt@@MBE?AVQDebug@@AAV3@@Z 00419820 f   denyallfilter.obj
 0001:00018900       ??0NullAppender@Log4Qt@@QAE@PAVQObject@@@Z 00419900 f   nullappender.obj
 0001:00018920       ??_ENullAppender@Log4Qt@@UAEPAXI@Z 00419920 f i nullappender.obj
 0001:00018920       ??_GNullAppender@Log4Qt@@UAEPAXI@Z 00419920 f i nullappender.obj
 0001:00018990       ?append@NullAppender@Log4Qt@@MAEXABVLoggingEvent@2@@Z 00419990 f   nullappender.obj
 0001:000189a0       ?debug@NullAppender@Log4Qt@@MBE?AVQDebug@@AAV3@@Z 004199a0 f   nullappender.obj
 0001:00018b70       ??0LevelMatchFilter@Log4Qt@@QAE@PAVQObject@@@Z 00419b70 f   levelmatchfilter.obj
 0001:00018bf0       ??_GLevelMatchFilter@Log4Qt@@UAEPAXI@Z 00419bf0 f i levelmatchfilter.obj
 0001:00018bf0       ??_ELevelMatchFilter@Log4Qt@@UAEPAXI@Z 00419bf0 f i levelmatchfilter.obj
 0001:00018c40       ?debug@LevelMatchFilter@Log4Qt@@MBE?AVQDebug@@AAV3@@Z 00419c40 f   levelmatchfilter.obj
 0001:00018d90       ?decide@LevelMatchFilter@Log4Qt@@UBE?AW4Decision@Filter@2@ABVLoggingEvent@2@@Z 00419d90 f   levelmatchfilter.obj
 0001:00018dd0       ??0LevelRangeFilter@Log4Qt@@QAE@PAVQObject@@@Z 00419dd0 f   levelrangefilter.obj
 0001:00018e60       ??_GLevelRangeFilter@Log4Qt@@UAEPAXI@Z 00419e60 f i levelrangefilter.obj
 0001:00018e60       ??_ELevelRangeFilter@Log4Qt@@UAEPAXI@Z 00419e60 f i levelrangefilter.obj
 0001:00018eb0       ?debug@LevelRangeFilter@Log4Qt@@MBE?AVQDebug@@AAV3@@Z 00419eb0 f   levelrangefilter.obj
 0001:00019040       ?decide@LevelRangeFilter@Log4Qt@@UBE?AW4Decision@Filter@2@ABVLoggingEvent@2@@Z 0041a040 f   levelrangefilter.obj
 0001:00019080       ??0ListAppender@Log4Qt@@QAE@PAVQObject@@@Z 0041a080 f   listappender.obj
 0001:000190c0       ??1ListAppender@Log4Qt@@UAE@XZ 0041a0c0 f   listappender.obj
 0001:00019150       ??_EListAppender@Log4Qt@@UAEPAXI@Z 0041a150 f i listappender.obj
 0001:00019150       ??_GListAppender@Log4Qt@@UAEPAXI@Z 0041a150 f i listappender.obj
 0001:00019170       ?append@?$QList@VLoggingEvent@Log4Qt@@@@QAEXABVLoggingEvent@Log4Qt@@@Z 0041a170 f i listappender.obj
 0001:00019230       ?append@ListAppender@Log4Qt@@MAEXABVLoggingEvent@2@@Z 0041a230 f   listappender.obj
 0001:00019260       ?debug@ListAppender@Log4Qt@@MBE?AVQDebug@@AAV3@@Z 0041a260 f   listappender.obj
 0001:000194f0       ?detach_helper@?$QList@VLoggingEvent@Log4Qt@@@@AAEXH@Z 0041a4f0 f i listappender.obj
 0001:000195d0       ?detach_helper_grow@?$QList@VLoggingEvent@Log4Qt@@@@AAEPAUNode@1@HH@Z 0041a5d0 f i listappender.obj
 0001:00019740       ?ensureMaxCount@ListAppender@Log4Qt@@IAEXXZ 0041a740 f   listappender.obj
 0001:00019890       ?list@ListAppender@Log4Qt@@QBE?AV?$QList@VLoggingEvent@Log4Qt@@@@XZ 0041a890 f   listappender.obj
 0001:00019910       ?setMaxCount@ListAppender@Log4Qt@@QAEXH@Z 0041a910 f   listappender.obj
 0001:000199c0       ??0StringMatchFilter@Log4Qt@@QAE@PAVQObject@@@Z 0041a9c0 f   stringmatchfilter.obj
 0001:00019a40       ??_EStringMatchFilter@Log4Qt@@UAEPAXI@Z 0041aa40 f i stringmatchfilter.obj
 0001:00019a40       ??_GStringMatchFilter@Log4Qt@@UAEPAXI@Z 0041aa40 f i stringmatchfilter.obj
 0001:00019aa0       ?debug@StringMatchFilter@Log4Qt@@MBE?AVQDebug@@AAV3@@Z 0041aaa0 f   stringmatchfilter.obj
 0001:00019bd0       ?decide@StringMatchFilter@Log4Qt@@UBE?AW4Decision@Filter@2@ABVLoggingEvent@2@@Z 0041abd0 f   stringmatchfilter.obj
 0001:00019cc0       ??1?$QMap@HVQString@@@@QAE@XZ 0041acc0 f i main.obj
 0001:00019d60       ??1?$QMap@VQString@@H@@QAE@XZ 0041ad60 f i main.obj
 0001:00019e00       ??1SplashScreen@@UAE@XZ    0041ae00 f i main.obj
 0001:00019e20       ??A?$QMap@HVQString@@@@QAEAAVQString@@ABH@Z 0041ae20 f i main.obj
 0001:00019ee0       ??A?$QMap@VQString@@H@@QAEAAHABVQString@@@Z 0041aee0 f i main.obj
 0001:00019f60       ??_EPluginFramework@ExtensionSystem@@UAEPAXI@Z 0041af60 f i main.obj
 0001:00019f60       ??_GPluginFramework@ExtensionSystem@@UAEPAXI@Z 0041af60 f i main.obj
 0001:0001a680       ?copy@?$QMapNode@HVQString@@@@QBEPAU1@PAU?$QMapData@HVQString@@@@@Z 0041b680 f i main.obj
 0001:0001a700       ?copy@?$QMapNode@VQString@@H@@QBEPAU1@PAU?$QMapData@VQString@@H@@@Z 0041b700 f i main.obj
 0001:0001a780       ?createNode@?$QMapData@HVQString@@@@QAEPAU?$QMapNode@HVQString@@@@ABHABVQString@@PAU2@_N@Z 0041b780 f i main.obj
 0001:0001a7c0       ?createNode@?$QMapData@VQString@@H@@QAEPAU?$QMapNode@VQString@@H@@ABVQString@@ABHPAU2@_N@Z 0041b7c0 f i main.obj
 0001:0001a800       ?destroySubTree@?$QMapNode@HVQString@@@@QAEXXZ 0041b800 f i main.obj
 0001:0001a830       ?destroySubTree@?$QMapNode@VQString@@H@@QAEXXZ 0041b830 f i main.obj
 0001:0001a860       ?detach_helper@?$QMap@HVQString@@@@AAEXXZ 0041b860 f i main.obj
 0001:0001a900       ?detach_helper@?$QMap@VQString@@H@@AAEXXZ 0041b900 f i main.obj
 0001:0001a9a0       ?insert@?$QMap@HVQString@@@@QAE?AViterator@1@ABHABVQString@@@Z 0041b9a0 f i main.obj
 0001:0001aa40       ?insert@?$QMap@VQString@@H@@QAE?AViterator@1@ABVQString@@ABH@Z 0041ba40 f i main.obj
 0001:0001ab00       ?lowerBound@?$QMapNode@VQString@@H@@QAEPAU1@ABVQString@@@Z 0041bb00 f i main.obj
 0001:0001ab40       _main                      0041bb40 f   main.obj
 0001:0001b2e0       ??0SplashScreen@@QAE@PAVQWidget@@@Z 0041c2e0 f   splashscreen.obj
 0001:0001b3e9       ??_ESplashScreen@@W7AEPAXI@Z 0041c3e9 f i splashscreen.obj
 0001:0001b400       ??_GSplashScreen@@UAEPAXI@Z 0041c400 f i splashscreen.obj
 0001:0001b400       ??_ESplashScreen@@UAEPAXI@Z 0041c400 f i splashscreen.obj
 0001:0001b430       ?drawContents@SplashScreen@@MAEXPAVQPainter@@@Z 0041c430 f   splashscreen.obj
 0001:0001b5a0       ?erase@?$QList@VQString@@@@QAE?AViterator@1@V21@@Z 0041c5a0 f i splashscreen.obj
 0001:0001b610       ?join@?$QListSpecialMethods@VQString@@@@QBE?AVQString@@ABV2@@Z 0041c610 f i splashscreen.obj
 0001:0001b650       ?mousePressEvent@SplashScreen@@MAEXPAVQMouseEvent@@@Z 0041c650 f   splashscreen.obj
 0001:0001b660       ?pluginChanged@SplashScreen@@QAEXABVPluginEvent@ExtensionSystem@@@Z 0041c660 f   splashscreen.obj
 0001:0001b990       ?setProgress@SplashScreen@@QAEXM@Z 0041c990 f   splashscreen.obj
 0001:0001b9b0       ?tr@SplashScreen@@SA?AVQString@@PBD0H@Z 0041c9b0 f i splashscreen.obj
 0001:0001b9e0       ?qt_static_metacall@Appender@Log4Qt@@CAXPAVQObject@@W4Call@QMetaObject@@HPAPAX@Z 0041c9e0 f   moc_appender.obj
 0001:0001ba80       ?qt_metacall@Appender@Log4Qt@@UAEHW4Call@QMetaObject@@HPAPAX@Z 0041ca80 f   moc_appender.obj
 0001:0001baf0       ?qt_metacast@Appender@Log4Qt@@UAEPAXPBD@Z 0041caf0 f   moc_appender.obj
 0001:0001bb50       ?qt_static_metacall@AppenderSkeleton@Log4Qt@@CAXPAVQObject@@W4Call@QMetaObject@@HPAPAX@Z 0041cb50 f   moc_appenderskeleton.obj
 0001:0001bbd0       ?metaObject@AppenderSkeleton@Log4Qt@@UBEPBUQMetaObject@@XZ 0041cbd0 f   moc_appenderskeleton.obj
 0001:0001bbf0       ?qt_metacall@AppenderSkeleton@Log4Qt@@UAEHW4Call@QMetaObject@@HPAPAX@Z 0041cbf0 f   moc_appenderskeleton.obj
 0001:0001bc60       ?qt_metacast@AppenderSkeleton@Log4Qt@@UAEPAXPBD@Z 0041cc60 f   moc_appenderskeleton.obj
 0001:0001bcc0       ?qt_static_metacall@ConsoleAppender@Log4Qt@@CAXPAVQObject@@W4Call@QMetaObject@@HPAPAX@Z 0041ccc0 f   moc_consoleappender.obj
 0001:0001bd20       ?metaObject@ConsoleAppender@Log4Qt@@UBEPBUQMetaObject@@XZ 0041cd20 f   moc_consoleappender.obj
 0001:0001bd40       ?qt_metacall@ConsoleAppender@Log4Qt@@UAEHW4Call@QMetaObject@@HPAPAX@Z 0041cd40 f   moc_consoleappender.obj
 0001:0001bdb0       ?qt_metacast@ConsoleAppender@Log4Qt@@UAEPAXPBD@Z 0041cdb0 f   moc_consoleappender.obj
 0001:0001be10       ?qt_static_metacall@DailyRollingFileAppender@Log4Qt@@CAXPAVQObject@@W4Call@QMetaObject@@HPAPAX@Z 0041ce10 f   moc_dailyrollingfileappender.obj
 0001:0001be70       ?metaObject@DailyRollingFileAppender@Log4Qt@@UBEPBUQMetaObject@@XZ 0041ce70 f   moc_dailyrollingfileappender.obj
 0001:0001be90       ?qt_metacall@DailyRollingFileAppender@Log4Qt@@UAEHW4Call@QMetaObject@@HPAPAX@Z 0041ce90 f   moc_dailyrollingfileappender.obj
 0001:0001bf00       ?qt_metacast@DailyRollingFileAppender@Log4Qt@@UAEPAXPBD@Z 0041cf00 f   moc_dailyrollingfileappender.obj
 0001:0001bf60       ?qt_static_metacall@FileAppender@Log4Qt@@CAXPAVQObject@@W4Call@QMetaObject@@HPAPAX@Z 0041cf60 f   moc_fileappender.obj
 0001:0001c000       ?metaObject@FileAppender@Log4Qt@@UBEPBUQMetaObject@@XZ 0041d000 f   moc_fileappender.obj
 0001:0001c020       ?qt_metacall@FileAppender@Log4Qt@@UAEHW4Call@QMetaObject@@HPAPAX@Z 0041d020 f   moc_fileappender.obj
 0001:0001c090       ?qt_metacast@FileAppender@Log4Qt@@UAEPAXPBD@Z 0041d090 f   moc_fileappender.obj
 0001:0001c0f0       ?setFile@FileAppender@Log4Qt@@QAEXABVQString@@@Z 0041d0f0 f i moc_fileappender.obj
 0001:0001c1e0       ?configurationFileChanged@ConfiguratorHelper@Log4Qt@@QAEXABVQString@@_N@Z 0041d1e0 f   moc_configuratorhelper.obj
 0001:0001c230       ?metaObject@ConfiguratorHelper@Log4Qt@@UBEPBUQMetaObject@@XZ 0041d230 f   moc_configuratorhelper.obj
 0001:0001c250       ?qt_metacall@ConfiguratorHelper@Log4Qt@@UAEHW4Call@QMetaObject@@HPAPAX@Z 0041d250 f   moc_configuratorhelper.obj
 0001:0001c2b0       ?qt_metacast@ConfiguratorHelper@Log4Qt@@UAEPAXPBD@Z 0041d2b0 f   moc_configuratorhelper.obj
 0001:0001c310       ?qt_static_metacall@ConfiguratorHelper@Log4Qt@@CAXPAVQObject@@W4Call@QMetaObject@@HPAPAX@Z 0041d310 f   moc_configuratorhelper.obj
 0001:0001c3c0       ?metaObject@LogObject@Log4Qt@@UBEPBUQMetaObject@@XZ 0041d3c0 f   moc_logobject.obj
 0001:0001c3e0       ?qt_metacall@LogObject@Log4Qt@@UAEHW4Call@QMetaObject@@HPAPAX@Z 0041d3e0 f   moc_logobject.obj
 0001:0001c3f0       ?qt_metacast@LogObject@Log4Qt@@UAEPAXPBD@Z 0041d3f0 f   moc_logobject.obj
 0001:0001c450       ?qt_static_metacall@Layout@Log4Qt@@CAXPAVQObject@@W4Call@QMetaObject@@HPAPAX@Z 0041d450 f   moc_layout.obj
 0001:0001c520       ?metaObject@Layout@Log4Qt@@UBEPBUQMetaObject@@XZ 0041d520 f   moc_layout.obj
 0001:0001c540       ?qt_metacall@Layout@Log4Qt@@UAEHW4Call@QMetaObject@@HPAPAX@Z 0041d540 f   moc_layout.obj
 0001:0001c5b0       ?qt_metacast@Layout@Log4Qt@@UAEPAXPBD@Z 0041d5b0 f   moc_layout.obj
 0001:0001c610       ?metaObject@Logger@Log4Qt@@UBEPBUQMetaObject@@XZ 0041d610 f   moc_logger.obj
 0001:0001c630       ?qt_metacall@Logger@Log4Qt@@UAEHW4Call@QMetaObject@@HPAPAX@Z 0041d630 f   moc_logger.obj
 0001:0001c6a0       ?qt_metacast@Logger@Log4Qt@@UAEPAXPBD@Z 0041d6a0 f   moc_logger.obj
 0001:0001c700       ?qt_metatype_id@?$QMetaTypeIdQObject@PAVLogger@Log4Qt@@$07@@SAHXZ 0041d700 f i moc_logger.obj
 0001:0001c7d0       ?qt_static_metacall@Logger@Log4Qt@@CAXPAVQObject@@W4Call@QMetaObject@@HPAPAX@Z 0041d7d0 f   moc_logger.obj
 0001:0001c8d0       ?qt_static_metacall@PatternLayout@Log4Qt@@CAXPAVQObject@@W4Call@QMetaObject@@HPAPAX@Z 0041d8d0 f   moc_patternlayout.obj
 0001:0001c940       ?metaObject@PatternLayout@Log4Qt@@UBEPBUQMetaObject@@XZ 0041d940 f   moc_patternlayout.obj
 0001:0001c960       ?qt_metacall@PatternLayout@Log4Qt@@UAEHW4Call@QMetaObject@@HPAPAX@Z 0041d960 f   moc_patternlayout.obj
 0001:0001c9d0       ?qt_metacast@PatternLayout@Log4Qt@@UAEPAXPBD@Z 0041d9d0 f   moc_patternlayout.obj
 0001:0001ca30       ?qt_static_metacall@RollingFileAppender@Log4Qt@@CAXPAVQObject@@W4Call@QMetaObject@@HPAPAX@Z 0041da30 f   moc_rollingfileappender.obj
 0001:0001cb00       ?metaObject@RollingFileAppender@Log4Qt@@UBEPBUQMetaObject@@XZ 0041db00 f   moc_rollingfileappender.obj
 0001:0001cb20       ?qt_metacall@RollingFileAppender@Log4Qt@@UAEHW4Call@QMetaObject@@HPAPAX@Z 0041db20 f   moc_rollingfileappender.obj
 0001:0001cb90       ?qt_metacast@RollingFileAppender@Log4Qt@@UAEPAXPBD@Z 0041db90 f   moc_rollingfileappender.obj
 0001:0001cbf0       ?setMaxBackupIndex@RollingFileAppender@Log4Qt@@QAEXH@Z 0041dbf0 f i moc_rollingfileappender.obj
 0001:0001cc20       ?setMaximumFileSize@RollingFileAppender@Log4Qt@@QAEX_J@Z 0041dc20 f i moc_rollingfileappender.obj
 0001:0001cc60       ?metaObject@SimpleLayout@Log4Qt@@UBEPBUQMetaObject@@XZ 0041dc60 f   moc_simplelayout.obj
 0001:0001cc80       ?qt_metacall@SimpleLayout@Log4Qt@@UAEHW4Call@QMetaObject@@HPAPAX@Z 0041dc80 f   moc_simplelayout.obj
 0001:0001cc90       ?qt_metacast@SimpleLayout@Log4Qt@@UAEPAXPBD@Z 0041dc90 f   moc_simplelayout.obj
 0001:0001ccf0       ?qt_static_metacall@Filter@Log4Qt@@CAXPAVQObject@@W4Call@QMetaObject@@HPAPAX@Z 0041dcf0 f   moc_filter.obj
 0001:0001cd60       ?Construct@?$QMetaTypeFunctionHelper@PAVLogger@Log4Qt@@$00@QtMetaTypePrivate@@SAPAXPAXPBX@Z 0041dd60 f i moc_logger.obj
 0001:0001cd60       ?Construct@?$QMetaTypeFunctionHelper@PAVFilter@Log4Qt@@$00@QtMetaTypePrivate@@SAPAXPAXPBX@Z 0041dd60 f i moc_filter.obj
 0001:0001cd90       __initialize_denormal_control 0041dd90 f i MSVCRT:denormal_control.obj
 0001:0001cd90       ?activateOptions@Layout@Log4Qt@@UAEXXZ 0041dd90 f i layout.obj
 0001:0001cd90       ?qt_static_metacall@NullAppender@Log4Qt@@CAXPAVQObject@@W4Call@QMetaObject@@HPAPAX@Z 0041dd90 f i moc_nullappender.obj
 0001:0001cd90       ?qt_static_metacall@SimpleLayout@Log4Qt@@CAXPAVQObject@@W4Call@QMetaObject@@HPAPAX@Z 0041dd90 f i moc_simplelayout.obj
 0001:0001cd90       ?qt_static_metacall@LogObject@Log4Qt@@CAXPAVQObject@@W4Call@QMetaObject@@HPAPAX@Z 0041dd90 f i moc_logobject.obj
 0001:0001cd90       ?Destruct@?$QMetaTypeFunctionHelper@PAVFilter@Log4Qt@@$00@QtMetaTypePrivate@@SAXPAX@Z 0041dd90 f i moc_filter.obj
 0001:0001cd90       __initialize_invalid_parameter_handler 0041dd90 f i MSVCRT:invalid_parameter_handler.obj
 0001:0001cd90       ?qt_static_metacall@DebugAppender@Log4Qt@@CAXPAVQObject@@W4Call@QMetaObject@@HPAPAX@Z 0041dd90 f i moc_debugappender.obj
 0001:0001cd90       ?Destruct@?$QMetaTypeFunctionHelper@VLevel@Log4Qt@@$00@QtMetaTypePrivate@@SAXPAX@Z 0041dd90 f i factory.obj
 0001:0001cd90       @_guard_check_icall_nop@4  0041dd90 f i MSVCRT:guard_support.obj
 0001:0001cd90       ??3@YAXPAX0@Z              0041dd90 f i initialisationhelper.obj
 0001:0001cd90       ?qt_static_metacall@DenyAllFilter@Log4Qt@@CAXPAVQObject@@W4Call@QMetaObject@@HPAPAX@Z 0041dd90 f i moc_denyallfilter.obj
 0001:0001cd90       ?activateOptions@Filter@Log4Qt@@UAEXXZ 0041dd90 f i factory.obj
 0001:0001cd90       ?Destruct@?$QMetaTypeFunctionHelper@PAVLogger@Log4Qt@@$00@QtMetaTypePrivate@@SAXPAX@Z 0041dd90 f i moc_logger.obj
 0001:0001cd90       ??$acquireMemoryFence@PAVInitialisationHelper@Log4Qt@@@?$QGenericAtomicOps@U?$QAtomicOps@PAVInitialisationHelper@Log4Qt@@@@@@SAXABQAVInitialisationHelper@Log4Qt@@@Z 0041dd90 f i initialisationhelper.obj
 0001:0001cda0       ?metaObject@Filter@Log4Qt@@UBEPBUQMetaObject@@XZ 0041dda0 f   moc_filter.obj
 0001:0001cdc0       ?qt_metacall@Filter@Log4Qt@@UAEHW4Call@QMetaObject@@HPAPAX@Z 0041ddc0 f   moc_filter.obj
 0001:0001ce30       ?qt_metacast@Filter@Log4Qt@@UAEPAXPBD@Z 0041de30 f   moc_filter.obj
 0001:0001ce90       ?qt_metatype_id@?$QMetaTypeIdQObject@PAVFilter@Log4Qt@@$07@@SAHXZ 0041de90 f i moc_filter.obj
 0001:0001cf60       ?qt_static_metacall@TTCCLayout@Log4Qt@@CAXPAVQObject@@W4Call@QMetaObject@@HPAPAX@Z 0041df60 f   moc_ttcclayout.obj
 0001:0001d050       ?metaObject@TTCCLayout@Log4Qt@@UBEPBUQMetaObject@@XZ 0041e050 f   moc_ttcclayout.obj
 0001:0001d070       ?qt_metacall@TTCCLayout@Log4Qt@@UAEHW4Call@QMetaObject@@HPAPAX@Z 0041e070 f   moc_ttcclayout.obj
 0001:0001d0e0       ?qt_metacast@TTCCLayout@Log4Qt@@UAEPAXPBD@Z 0041e0e0 f   moc_ttcclayout.obj
 0001:0001d140       ?qt_static_metacall@WriterAppender@Log4Qt@@CAXPAVQObject@@W4Call@QMetaObject@@HPAPAX@Z 0041e140 f   moc_writerappender.obj
 0001:0001d1f0       ?metaObject@WriterAppender@Log4Qt@@UBEPBUQMetaObject@@XZ 0041e1f0 f   moc_writerappender.obj
 0001:0001d210       ?qt_metacall@WriterAppender@Log4Qt@@UAEHW4Call@QMetaObject@@HPAPAX@Z 0041e210 f   moc_writerappender.obj
 0001:0001d280       ?qt_metacast@WriterAppender@Log4Qt@@UAEPAXPBD@Z 0041e280 f   moc_writerappender.obj
 0001:0001d2e0       ?metaObject@DebugAppender@Log4Qt@@UBEPBUQMetaObject@@XZ 0041e2e0 f   moc_debugappender.obj
 0001:0001d300       ?qt_metacast@DebugAppender@Log4Qt@@UAEPAXPBD@Z 0041e300 f   moc_debugappender.obj
 0001:0001d360       ?metaObject@DenyAllFilter@Log4Qt@@UBEPBUQMetaObject@@XZ 0041e360 f   moc_denyallfilter.obj
 0001:0001d380       ?qt_metacall@DenyAllFilter@Log4Qt@@UAEHW4Call@QMetaObject@@HPAPAX@Z 0041e380 f   moc_denyallfilter.obj
 0001:0001d390       ?qt_metacast@DenyAllFilter@Log4Qt@@UAEPAXPBD@Z 0041e390 f   moc_denyallfilter.obj
 0001:0001d3f0       ?metaObject@NullAppender@Log4Qt@@UBEPBUQMetaObject@@XZ 0041e3f0 f   moc_nullappender.obj
 0001:0001d410       ?qt_metacall@DebugAppender@Log4Qt@@UAEHW4Call@QMetaObject@@HPAPAX@Z 0041e410 f   moc_debugappender.obj
 0001:0001d410       ?qt_metacall@NullAppender@Log4Qt@@UAEHW4Call@QMetaObject@@HPAPAX@Z 0041e410 f   moc_nullappender.obj
 0001:0001d420       ?qt_metacast@NullAppender@Log4Qt@@UAEPAXPBD@Z 0041e420 f   moc_nullappender.obj
 0001:0001d480       ?qt_static_metacall@LevelMatchFilter@Log4Qt@@CAXPAVQObject@@W4Call@QMetaObject@@HPAPAX@Z 0041e480 f   moc_levelmatchfilter.obj
 0001:0001d500       ?metaObject@LevelMatchFilter@Log4Qt@@UBEPBUQMetaObject@@XZ 0041e500 f   moc_levelmatchfilter.obj
 0001:0001d520       ?qt_metacall@LevelMatchFilter@Log4Qt@@UAEHW4Call@QMetaObject@@HPAPAX@Z 0041e520 f   moc_levelmatchfilter.obj
 0001:0001d590       ?qt_metacast@LevelMatchFilter@Log4Qt@@UAEPAXPBD@Z 0041e590 f   moc_levelmatchfilter.obj
 0001:0001d5f0       ?qt_static_metacall@LevelRangeFilter@Log4Qt@@CAXPAVQObject@@W4Call@QMetaObject@@HPAPAX@Z 0041e5f0 f   moc_levelrangefilter.obj
 0001:0001d6b0       ?metaObject@LevelRangeFilter@Log4Qt@@UBEPBUQMetaObject@@XZ 0041e6b0 f   moc_levelrangefilter.obj
 0001:0001d6d0       ?qt_metacall@LevelRangeFilter@Log4Qt@@UAEHW4Call@QMetaObject@@HPAPAX@Z 0041e6d0 f   moc_levelrangefilter.obj
 0001:0001d740       ?qt_metacast@LevelRangeFilter@Log4Qt@@UAEPAXPBD@Z 0041e740 f   moc_levelrangefilter.obj
 0001:0001d7a0       ?qt_static_metacall@ListAppender@Log4Qt@@CAXPAVQObject@@W4Call@QMetaObject@@HPAPAX@Z 0041e7a0 f   moc_listappender.obj
 0001:0001d800       ?metaObject@ListAppender@Log4Qt@@UBEPBUQMetaObject@@XZ 0041e800 f   moc_listappender.obj
 0001:0001d820       ?qt_metacall@ListAppender@Log4Qt@@UAEHW4Call@QMetaObject@@HPAPAX@Z 0041e820 f   moc_listappender.obj
 0001:0001d890       ?qt_metacast@ListAppender@Log4Qt@@UAEPAXPBD@Z 0041e890 f   moc_listappender.obj
 0001:0001d8f0       ?qt_static_metacall@StringMatchFilter@Log4Qt@@CAXPAVQObject@@W4Call@QMetaObject@@HPAPAX@Z 0041e8f0 f   moc_stringmatchfilter.obj
 0001:0001d970       ?metaObject@StringMatchFilter@Log4Qt@@UBEPBUQMetaObject@@XZ 0041e970 f   moc_stringmatchfilter.obj
 0001:0001d990       ?qt_metacall@StringMatchFilter@Log4Qt@@UAEHW4Call@QMetaObject@@HPAPAX@Z 0041e990 f   moc_stringmatchfilter.obj
 0001:0001da00       ?qt_metacast@StringMatchFilter@Log4Qt@@UAEPAXPBD@Z 0041ea00 f   moc_stringmatchfilter.obj
 0001:0001da60       ?metaObject@SplashScreen@@UBEPBUQMetaObject@@XZ 0041ea60 f   moc_splashscreen.obj
 0001:0001da80       ?qt_metacall@SplashScreen@@UAEHW4Call@QMetaObject@@HPAPAX@Z 0041ea80 f   moc_splashscreen.obj
 0001:0001dae0       ?qt_metacast@SplashScreen@@UAEPAXPBD@Z 0041eae0 f   moc_splashscreen.obj
 0001:0001db40       ?qt_static_metacall@SplashScreen@@CAXPAVQObject@@W4Call@QMetaObject@@HPAPAX@Z 0041eb40 f   moc_splashscreen.obj
 0001:0001db82       ?metaObject@PluginFramework@ExtensionSystem@@UBEPBUQMetaObject@@XZ 0041eb82 f   pluginframework:pluginframework.dll
 0001:0001db88       ?qt_metacall@PluginFramework@ExtensionSystem@@UAEHW4Call@QMetaObject@@HPAPAX@Z 0041eb88 f   pluginframework:pluginframework.dll
 0001:0001db8e       ?qt_metacast@PluginFramework@ExtensionSystem@@UAEPAXPBD@Z 0041eb8e f   pluginframework:pluginframework.dll
 0001:0001db94       ?actionEvent@QWidget@@MAEXPAVQActionEvent@@@Z 0041eb94 f   Qt5Widgets:Qt5Widgets.dll
 0001:0001db9a       ?changeEvent@QWidget@@MAEXPAVQEvent@@@Z 0041eb9a f   Qt5Widgets:Qt5Widgets.dll
 0001:0001dba0       ?closeEvent@QWidget@@MAEXPAVQCloseEvent@@@Z 0041eba0 f   Qt5Widgets:Qt5Widgets.dll
 0001:0001dba6       ?contextMenuEvent@QWidget@@MAEXPAVQContextMenuEvent@@@Z 0041eba6 f   Qt5Widgets:Qt5Widgets.dll
 0001:0001dbac       ?devType@QWidget@@UBEHXZ   0041ebac f   Qt5Widgets:Qt5Widgets.dll
 0001:0001dbb2       ?dragEnterEvent@QWidget@@MAEXPAVQDragEnterEvent@@@Z 0041ebb2 f   Qt5Widgets:Qt5Widgets.dll
 0001:0001dbb8       ?dragLeaveEvent@QWidget@@MAEXPAVQDragLeaveEvent@@@Z 0041ebb8 f   Qt5Widgets:Qt5Widgets.dll
 0001:0001dbbe       ?dragMoveEvent@QWidget@@MAEXPAVQDragMoveEvent@@@Z 0041ebbe f   Qt5Widgets:Qt5Widgets.dll
 0001:0001dbc4       ?dropEvent@QWidget@@MAEXPAVQDropEvent@@@Z 0041ebc4 f   Qt5Widgets:Qt5Widgets.dll
 0001:0001dbca       ?enterEvent@QWidget@@MAEXPAVQEvent@@@Z 0041ebca f   Qt5Widgets:Qt5Widgets.dll
 0001:0001dbd0       ?event@QSplashScreen@@MAE_NPAVQEvent@@@Z 0041ebd0 f   Qt5Widgets:Qt5Widgets.dll
 0001:0001dbd6       ?focusInEvent@QWidget@@MAEXPAVQFocusEvent@@@Z 0041ebd6 f   Qt5Widgets:Qt5Widgets.dll
 0001:0001dbdc       ?focusNextPrevChild@QWidget@@MAE_N_N@Z 0041ebdc f   Qt5Widgets:Qt5Widgets.dll
 0001:0001dbe2       ?focusOutEvent@QWidget@@MAEXPAVQFocusEvent@@@Z 0041ebe2 f   Qt5Widgets:Qt5Widgets.dll
 0001:0001dbe8       ?hasHeightForWidth@QWidget@@UBE_NXZ 0041ebe8 f   Qt5Widgets:Qt5Widgets.dll
 0001:0001dbee       ?heightForWidth@QWidget@@UBEHH@Z 0041ebee f   Qt5Widgets:Qt5Widgets.dll
 0001:0001dbf4       ?hideEvent@QWidget@@MAEXPAVQHideEvent@@@Z 0041ebf4 f   Qt5Widgets:Qt5Widgets.dll
 0001:0001dbfa       ?initPainter@QWidget@@MBEXPAVQPainter@@@Z 0041ebfa f   Qt5Widgets:Qt5Widgets.dll
 0001:0001dc00       ?inputMethodEvent@QWidget@@MAEXPAVQInputMethodEvent@@@Z 0041ec00 f   Qt5Widgets:Qt5Widgets.dll
 0001:0001dc06       ?inputMethodQuery@QWidget@@UBE?AVQVariant@@W4InputMethodQuery@Qt@@@Z 0041ec06 f   Qt5Widgets:Qt5Widgets.dll
 0001:0001dc0c       ?keyPressEvent@QWidget@@MAEXPAVQKeyEvent@@@Z 0041ec0c f   Qt5Widgets:Qt5Widgets.dll
 0001:0001dc12       ?keyReleaseEvent@QWidget@@MAEXPAVQKeyEvent@@@Z 0041ec12 f   Qt5Widgets:Qt5Widgets.dll
 0001:0001dc18       ?leaveEvent@QWidget@@MAEXPAVQEvent@@@Z 0041ec18 f   Qt5Widgets:Qt5Widgets.dll
 0001:0001dc1e       ?metric@QWidget@@MBEHW4PaintDeviceMetric@QPaintDevice@@@Z 0041ec1e f   Qt5Widgets:Qt5Widgets.dll
 0001:0001dc24       ?minimumSizeHint@QWidget@@UBE?AVQSize@@XZ 0041ec24 f   Qt5Widgets:Qt5Widgets.dll
 0001:0001dc2a       ?mouseDoubleClickEvent@QWidget@@MAEXPAVQMouseEvent@@@Z 0041ec2a f   Qt5Widgets:Qt5Widgets.dll
 0001:0001dc30       ?mouseMoveEvent@QWidget@@MAEXPAVQMouseEvent@@@Z 0041ec30 f   Qt5Widgets:Qt5Widgets.dll
 0001:0001dc36       ?mouseReleaseEvent@QWidget@@MAEXPAVQMouseEvent@@@Z 0041ec36 f   Qt5Widgets:Qt5Widgets.dll
 0001:0001dc3c       ?moveEvent@QWidget@@MAEXPAVQMoveEvent@@@Z 0041ec3c f   Qt5Widgets:Qt5Widgets.dll
 0001:0001dc42       ?nativeEvent@QWidget@@MAE_NABVQByteArray@@PAXPAJ@Z 0041ec42 f   Qt5Widgets:Qt5Widgets.dll
 0001:0001dc48       ?paintEngine@QWidget@@UBEPAVQPaintEngine@@XZ 0041ec48 f   Qt5Widgets:Qt5Widgets.dll
 0001:0001dc4e       ?paintEvent@QWidget@@MAEXPAVQPaintEvent@@@Z 0041ec4e f   Qt5Widgets:Qt5Widgets.dll
 0001:0001dc54       ?redirected@QWidget@@MBEPAVQPaintDevice@@PAVQPoint@@@Z 0041ec54 f   Qt5Widgets:Qt5Widgets.dll
 0001:0001dc5a       ?resizeEvent@QWidget@@MAEXPAVQResizeEvent@@@Z 0041ec5a f   Qt5Widgets:Qt5Widgets.dll
 0001:0001dc60       ?setVisible@QWidget@@UAEX_N@Z 0041ec60 f   Qt5Widgets:Qt5Widgets.dll
 0001:0001dc66       ?sharedPainter@QWidget@@MBEPAVQPainter@@XZ 0041ec66 f   Qt5Widgets:Qt5Widgets.dll
 0001:0001dc6c       ?showEvent@QWidget@@MAEXPAVQShowEvent@@@Z 0041ec6c f   Qt5Widgets:Qt5Widgets.dll
 0001:0001dc72       ?sizeHint@QWidget@@UBE?AVQSize@@XZ 0041ec72 f   Qt5Widgets:Qt5Widgets.dll
 0001:0001dc78       ?tabletEvent@QWidget@@MAEXPAVQTabletEvent@@@Z 0041ec78 f   Qt5Widgets:Qt5Widgets.dll
 0001:0001dc7e       ?wheelEvent@QWidget@@MAEXPAVQWheelEvent@@@Z 0041ec7e f   Qt5Widgets:Qt5Widgets.dll
 0001:0001dc84       ?childEvent@QObject@@MAEXPAVQChildEvent@@@Z 0041ec84 f   Qt5Core:Qt5Core.dll
 0001:0001dc8a       ?connectNotify@QObject@@MAEXABVQMetaMethod@@@Z 0041ec8a f   Qt5Core:Qt5Core.dll
 0001:0001dc90       ?customEvent@QObject@@MAEXPAVQEvent@@@Z 0041ec90 f   Qt5Core:Qt5Core.dll
 0001:0001dc96       ?disconnectNotify@QObject@@MAEXABVQMetaMethod@@@Z 0041ec96 f   Qt5Core:Qt5Core.dll
 0001:0001dc9c       ?event@QObject@@UAE_NPAVQEvent@@@Z 0041ec9c f   Qt5Core:Qt5Core.dll
 0001:0001dca2       ?eventFilter@QObject@@UAE_NPAV1@PAVQEvent@@@Z 0041eca2 f   Qt5Core:Qt5Core.dll
 0001:0001dca8       ?timerEvent@QObject@@MAEXPAVQTimerEvent@@@Z 0041eca8 f   Qt5Core:Qt5Core.dll
 0001:0001dcae       ?atEnd@QFileDevice@@UBE_NXZ 0041ecae f   Qt5Core:Qt5Core.dll
 0001:0001dcb4       ?bytesAvailable@QIODevice@@UBE_JXZ 0041ecb4 f   Qt5Core:Qt5Core.dll
 0001:0001dcba       ?bytesToWrite@QIODevice@@UBE_JXZ 0041ecba f   Qt5Core:Qt5Core.dll
 0001:0001dcc0       ?canReadLine@QIODevice@@UBE_NXZ 0041ecc0 f   Qt5Core:Qt5Core.dll
 0001:0001dcc6       ?close@QFileDevice@@UAEXXZ 0041ecc6 f   Qt5Core:Qt5Core.dll
 0001:0001dccc       ?fileName@QFile@@UBE?AVQString@@XZ 0041eccc f   Qt5Core:Qt5Core.dll
 0001:0001dcd2       ?isSequential@QFileDevice@@UBE_NXZ 0041ecd2 f   Qt5Core:Qt5Core.dll
 0001:0001dcd8       ?metaObject@QFile@@UBEPBUQMetaObject@@XZ 0041ecd8 f   Qt5Core:Qt5Core.dll
 0001:0001dcde       ?open@QFile@@UAE_NV?$QFlags@W4OpenModeFlag@QIODevice@@@@@Z 0041ecde f   Qt5Core:Qt5Core.dll
 0001:0001dce4       ?permissions@QFile@@UBE?AV?$QFlags@W4Permission@QFileDevice@@@@XZ 0041ece4 f   Qt5Core:Qt5Core.dll
 0001:0001dcea       ?pos@QFileDevice@@UBE_JXZ  0041ecea f   Qt5Core:Qt5Core.dll
 0001:0001dcf0       ?qt_metacall@QFile@@UAEHW4Call@QMetaObject@@HPAPAX@Z 0041ecf0 f   Qt5Core:Qt5Core.dll
 0001:0001dcf6       ?qt_metacast@QFile@@UAEPAXPBD@Z 0041ecf6 f   Qt5Core:Qt5Core.dll
 0001:0001dcfc       ?readData@QFileDevice@@MAE_JPAD_J@Z 0041ecfc f   Qt5Core:Qt5Core.dll
 0001:0001dd02       ?readLineData@QFileDevice@@MAE_JPAD_J@Z 0041ed02 f   Qt5Core:Qt5Core.dll
 0001:0001dd08       ?reset@QIODevice@@UAE_NXZ  0041ed08 f   Qt5Core:Qt5Core.dll
 0001:0001dd0e       ?resize@QFile@@UAE_N_J@Z   0041ed0e f   Qt5Core:Qt5Core.dll
 0001:0001dd14       ?seek@QFileDevice@@UAE_N_J@Z 0041ed14 f   Qt5Core:Qt5Core.dll
 0001:0001dd1a       ?setPermissions@QFile@@UAE_NV?$QFlags@W4Permission@QFileDevice@@@@@Z 0041ed1a f   Qt5Core:Qt5Core.dll
 0001:0001dd20       ?size@QFile@@UBE_JXZ       0041ed20 f   Qt5Core:Qt5Core.dll
 0001:0001dd26       ?waitForBytesWritten@QIODevice@@UAE_NH@Z 0041ed26 f   Qt5Core:Qt5Core.dll
 0001:0001dd2c       ?waitForReadyRead@QIODevice@@UAE_NH@Z 0041ed2c f   Qt5Core:Qt5Core.dll
 0001:0001dd32       ?writeData@QFileDevice@@MAE_JPBD_J@Z 0041ed32 f   Qt5Core:Qt5Core.dll
 0001:0001dd38       ?qRegisterResourceData@@YA_NHPBE00@Z 0041ed38 f   Qt5Core:Qt5Core.dll
 0001:0001dd3e       ?qUnregisterResourceData@@YA_NHPBE00@Z 0041ed3e f   Qt5Core:Qt5Core.dll
 0001:0001dd44       ??2@YAPAXI@Z               0041ed44 f   MSVCRT:new_scalar.obj
 0001:0001dd77       ??3@YAXPAXI@Z              0041ed77 f   MSVCRT:delete_scalar_size.obj
 0001:0001dd85       @__security_check_cookie@4 0041ed85 f   MSVCRT:_secchk_.obj
 0001:0001dd96       ??_Etype_info@@UAEPAXI@Z   0041ed96 f i MSVCRT:std_type_info_static.obj
 0001:0001dd96       ??_Gtype_info@@UAEPAXI@Z   0041ed96 f i MSVCRT:std_type_info_static.obj
 0001:0001ddc0       __alldiv                   0041edc0 f   MSVCRT:lldiv.obj
 0001:0001de70       __allmul                   0041ee70 f   MSVCRT:llmul.obj
 0001:0001dee8       ___scrt_acquire_startup_lock 0041eee8 f   MSVCRT:utility.obj
 0001:0001df1d       ___scrt_initialize_crt     0041ef1d f   MSVCRT:utility.obj
 0001:0001df56       ___scrt_initialize_onexit_tables 0041ef56 f   MSVCRT:utility.obj
 0001:0001dfed       ___scrt_is_nonwritable_in_current_image 0041efed f   MSVCRT:utility.obj
 0001:0001e077       ___scrt_release_startup_lock 0041f077 f   MSVCRT:utility.obj
 0001:0001e094       ___scrt_uninitialize_crt   0041f094 f   MSVCRT:utility.obj
 0001:0001e0bc       __onexit                   0041f0bc f   MSVCRT:utility.obj
 0001:0001e0f7       _atexit                    0041f0f7 f   MSVCRT:utility.obj
 0001:0001e332       _WinMainCRTStartup         0041f332 f   MSVCRT:exe_winmain.obj
 0001:0001e33c       ??0bad_alloc@std@@QAE@ABV01@@Z 0041f33c f i MSVCRT:throw_bad_alloc.obj
 0001:0001e357       ??0bad_alloc@std@@QAE@XZ   0041f357 f i MSVCRT:throw_bad_alloc.obj
 0001:0001e36f       ??0bad_array_new_length@std@@QAE@ABV01@@Z 0041f36f f i MSVCRT:throw_bad_alloc.obj
 0001:0001e38a       ??0bad_array_new_length@std@@QAE@XZ 0041f38a f i MSVCRT:throw_bad_alloc.obj
 0001:0001e3a2       ??0exception@std@@QAE@ABV01@@Z 0041f3a2 f i MSVCRT:throw_bad_alloc.obj
 0001:0001e3ce       ??1bad_alloc@std@@UAE@XZ   0041f3ce f i MSVCRT:throw_bad_alloc.obj
 0001:0001e3ce       ??1bad_array_new_length@std@@UAE@XZ 0041f3ce f i MSVCRT:throw_bad_alloc.obj
 0001:0001e3df       ??_Gbad_alloc@std@@UAEPAXI@Z 0041f3df f i MSVCRT:throw_bad_alloc.obj
 0001:0001e3df       ??_Gbad_array_new_length@std@@UAEPAXI@Z 0041f3df f i MSVCRT:throw_bad_alloc.obj
 0001:0001e3df       ??_Gexception@std@@UAEPAXI@Z 0041f3df f i MSVCRT:throw_bad_alloc.obj
 0001:0001e3df       ??_Eexception@std@@UAEPAXI@Z 0041f3df f i MSVCRT:throw_bad_alloc.obj
 0001:0001e3df       ??_Ebad_alloc@std@@UAEPAXI@Z 0041f3df f i MSVCRT:throw_bad_alloc.obj
 0001:0001e3df       ??_Ebad_array_new_length@std@@UAEPAXI@Z 0041f3df f i MSVCRT:throw_bad_alloc.obj
 0001:0001e40c       ?__scrt_throw_std_bad_alloc@@YAXXZ 0041f40c f   MSVCRT:throw_bad_alloc.obj
 0001:0001e429       ?__scrt_throw_std_bad_array_new_length@@YAXXZ 0041f429 f   MSVCRT:throw_bad_alloc.obj
 0001:0001e446       ?what@exception@std@@UBEPBDXZ 0041f446 f i MSVCRT:throw_bad_alloc.obj
 0001:0001e453       ??3@YAXPAX@Z               0041f453 f   MSVCRT:delete_scalar.obj
 0001:0001e458       ___raise_securityfailure   0041f458 f   MSVCRT:gs_report.obj
 0001:0001e480       ___report_gsfailure        0041f480 f   MSVCRT:gs_report.obj
 0001:0001e57b       ___isa_available_init      0041f57b f   MSVCRT:_cpu_disp_.obj
 0001:0001e715       __get_startup_argv_mode    0041f715 f   MSVCRT:argv_mode.obj
 0001:0001e719       ___scrt_is_ucrt_dll_in_use 0041f719 f   MSVCRT:ucrt_detection.obj
 0001:0001e725       ___scrt_fastfail           0041f725 f   MSVCRT:utility_desktop.obj
 0001:0001e840       ___scrt_get_show_window_mode 0041f840 f   MSVCRT:utility_desktop.obj
 0001:0001e873       ___scrt_is_managed_app     0041f873 f   MSVCRT:utility_desktop.obj
 0001:0001e8b7       ___scrt_set_unhandled_exception_filter 0041f8b7 f   MSVCRT:utility_desktop.obj
 0001:0001e8c3       ___scrt_unhandled_exception_filter@4 0041f8c3 f   MSVCRT:utility_desktop.obj
 0001:0001e904       @_guard_check_icall@4      0041f904 f i MSVCRT:checkcfg.obj
 0001:0001e910       __SEH_prolog4              0041f910 f   MSVCRT:_sehprolg4_.obj
 0001:0001e956       __SEH_epilog4              0041f956 f   MSVCRT:_sehprolg4_.obj
 0001:0001e96b       __except_handler4          0041f96b f   MSVCRT:_chandler4gs_.obj
 0001:0001e98e       ___security_init_cookie    0041f98e f   MSVCRT:gs_support.obj
 0001:0001ea2a       ___scrt_initialize_winrt   0041fa2a f   MSVCRT:utility_desktop.obj
 0001:0001ea2a       __get_startup_thread_locale_mode 0041fa2a f   MSVCRT:thread_locale.obj
 0001:0001ea2a       __get_startup_new_mode     0041fa2a f   MSVCRT:new_mode.obj
 0001:0001ea2a       __matherr                  0041fa2a f   MSVCRT:matherr.obj
 0001:0001ea2a       __get_startup_commit_mode  0041fa2a f   MSVCRT:commit_mode.obj
 0001:0001ea2d       __get_startup_file_mode    0041fa2d f   MSVCRT:file_mode.obj
 0001:0001ea33       ?__scrt_initialize_type_info@@YAXXZ 0041fa33 f   MSVCRT:tncleanup.obj
 0001:0001ea3f       __initialize_default_precision 0041fa3f f   MSVCRT:default_precision.obj
 0001:0001ea60       ___local_stdio_printf_options 0041fa60 f i MSVCRT:default_local_stdio_options.obj
 0001:0001ea66       ___local_stdio_scanf_options 0041fa66 f i MSVCRT:default_local_stdio_options.obj
 0001:0001ea6c       ___scrt_initialize_default_local_stdio_options 0041fa6c f   MSVCRT:default_local_stdio_options.obj
 0001:0001ea89       ___scrt_is_user_matherr_present 0041fa89 f   MSVCRT:matherr_detection.obj
 0001:0001ea95       ___scrt_get_dyn_tls_init_callback 0041fa95 f   MSVCRT:dyn_tls_init.obj
 0001:0001ea9b       ___scrt_get_dyn_tls_dtor_callback 0041fa9b f   MSVCRT:dyn_tls_dtor.obj
 0001:0001eaa1       __RTC_Initialize           0041faa1 f   MSVCRT:_initsect_.obj
 0001:0001eacc       __RTC_Terminate            0041facc f   MSVCRT:_initsect_.obj
 0001:0001eaf8       _IsProcessorFeaturePresent@4 0041faf8 f   kernel32:KERNEL32.dll
 0001:0001eafe       __purecall                 0041fafe f   vcruntime:VCRUNTIME140.dll
 0001:0001eb04       ___std_terminate           0041fb04 f   vcruntime:VCRUNTIME140.dll
 0001:0001eb0a       __CxxThrowException@8      0041fb0a f   vcruntime:VCRUNTIME140.dll
 0001:0001eb10       ___CxxFrameHandler3        0041fb10 f   vcruntime:VCRUNTIME140.dll
 0001:0001eb16       _memcpy                    0041fb16 f   vcruntime:VCRUNTIME140.dll
 0001:0001eb1c       ___std_exception_copy      0041fb1c f   vcruntime:VCRUNTIME140.dll
 0001:0001eb22       ___std_exception_destroy   0041fb22 f   vcruntime:VCRUNTIME140.dll
 0001:0001eb28       _memset                    0041fb28 f   vcruntime:VCRUNTIME140.dll
 0001:0001eb2e       __except_handler4_common   0041fb2e f   vcruntime:VCRUNTIME140.dll
 0001:0001eb34       _exit                      0041fb34 f   ucrt:api-ms-win-crt-runtime-l1-1-0.dll
 0001:0001eb3a       __callnewh                 0041fb3a f   ucrt:api-ms-win-crt-heap-l1-1-0.dll
 0001:0001eb40       _malloc                    0041fb40 f   ucrt:api-ms-win-crt-heap-l1-1-0.dll
 0001:0001eb46       __configure_narrow_argv    0041fb46 f   ucrt:api-ms-win-crt-runtime-l1-1-0.dll
 0001:0001eb4c       __initialize_narrow_environment 0041fb4c f   ucrt:api-ms-win-crt-runtime-l1-1-0.dll
 0001:0001eb52       __initialize_onexit_table  0041fb52 f   ucrt:api-ms-win-crt-runtime-l1-1-0.dll
 0001:0001eb58       __register_onexit_function 0041fb58 f   ucrt:api-ms-win-crt-runtime-l1-1-0.dll
 0001:0001eb5e       __crt_atexit               0041fb5e f   ucrt:api-ms-win-crt-runtime-l1-1-0.dll
 0001:0001eb64       __cexit                    0041fb64 f   ucrt:api-ms-win-crt-runtime-l1-1-0.dll
 0001:0001eb6a       __seh_filter_exe           0041fb6a f   ucrt:api-ms-win-crt-runtime-l1-1-0.dll
 0001:0001eb70       __set_app_type             0041fb70 f   ucrt:api-ms-win-crt-runtime-l1-1-0.dll
 0001:0001eb76       ___setusermatherr          0041fb76 f   ucrt:api-ms-win-crt-math-l1-1-0.dll
 0001:0001eb7c       __get_narrow_winmain_command_line 0041fb7c f   ucrt:api-ms-win-crt-runtime-l1-1-0.dll
 0001:0001eb82       __initterm                 0041fb82 f   ucrt:api-ms-win-crt-runtime-l1-1-0.dll
 0001:0001eb88       __initterm_e               0041fb88 f   ucrt:api-ms-win-crt-runtime-l1-1-0.dll
 0001:0001eb8e       __exit                     0041fb8e f   ucrt:api-ms-win-crt-runtime-l1-1-0.dll
 0001:0001eb94       __set_fmode                0041fb94 f   ucrt:api-ms-win-crt-stdio-l1-1-0.dll
 0001:0001eb9a       __c_exit                   0041fb9a f   ucrt:api-ms-win-crt-runtime-l1-1-0.dll
 0001:0001eba0       __register_thread_local_exe_atexit_callback 0041fba0 f   ucrt:api-ms-win-crt-runtime-l1-1-0.dll
 0001:0001eba6       __configthreadlocale       0041fba6 f   ucrt:api-ms-win-crt-locale-l1-1-0.dll
 0001:0001ebac       __set_new_mode             0041fbac f   ucrt:api-ms-win-crt-heap-l1-1-0.dll
 0001:0001ebb2       ___p__commode              0041fbb2 f   ucrt:api-ms-win-crt-stdio-l1-1-0.dll
 0001:0001ebb8       _free                      0041fbb8 f   ucrt:api-ms-win-crt-heap-l1-1-0.dll
 0001:0001ebbe       _terminate                 0041fbbe f   ucrt:api-ms-win-crt-runtime-l1-1-0.dll
 0001:0001ebc4       __controlfp_s              0041fbc4 f   ucrt:api-ms-win-crt-runtime-l1-1-0.dll
 0001:0001ebd0       _WinMain@16                0041fbd0 f   qtmain:qtmain_win.obj
 0001:0001ecee       ??_U@YAPAXI@Z              0041fcee f   MSVCRT:new_array.obj
 0001:0001ecf7       ??_V@YAXPAX@Z              0041fcf7 f   MSVCRT:delete_array.obj
 0002:00000000       __imp__WideCharToMultiByte@32 00424000     kernel32:KERNEL32.dll
 0002:00000004       __imp__LocalFree@4         00424004     kernel32:KERNEL32.dll
 0002:00000008       __imp__GetCommandLineW@0   00424008     kernel32:KERNEL32.dll
 0002:0000000c       __imp__InitializeSListHead@4 0042400c     kernel32:KERNEL32.dll
 0002:00000010       __imp__GetSystemTimeAsFileTime@4 00424010     kernel32:KERNEL32.dll
 0002:00000014       __imp__GetCurrentThreadId@0 00424014     kernel32:KERNEL32.dll
 0002:00000018       __imp__GetCurrentProcessId@0 00424018     kernel32:KERNEL32.dll
 0002:0000001c       __imp__QueryPerformanceCounter@4 0042401c     kernel32:KERNEL32.dll
 0002:00000020       __imp__GetModuleHandleW@4  00424020     kernel32:KERNEL32.dll
 0002:00000024       __imp__GetStartupInfoW@4   00424024     kernel32:KERNEL32.dll
 0002:00000028       __imp__IsDebuggerPresent@0 00424028     kernel32:KERNEL32.dll
 0002:0000002c       __imp__IsProcessorFeaturePresent@4 0042402c     kernel32:KERNEL32.dll
 0002:00000030       __imp__TerminateProcess@8  00424030     kernel32:KERNEL32.dll
 0002:00000034       __imp__GetCurrentProcess@0 00424034     kernel32:KERNEL32.dll
 0002:00000038       __imp__SetUnhandledExceptionFilter@4 00424038     kernel32:KERNEL32.dll
 0002:0000003c       __imp__UnhandledExceptionFilter@4 0042403c     kernel32:KERNEL32.dll
 0002:00000040       __imp__OutputDebugStringW@4 00424040     kernel32:KERNEL32.dll
 0002:00000044       \177KERNEL32_NULL_THUNK_DATA 00424044     kernel32:KERNEL32.dll
 0002:00000048       __imp_?append@QByteArray@@QAEAAV1@PBD@Z 00424048     Qt5Core:Qt5Core.dll
 0002:0000004c       __imp_?append@QByteArray@@QAEAAV1@D@Z 0042404c     Qt5Core:Qt5Core.dll
 0002:00000050       __imp_?reserve@QByteArray@@QAEXH@Z 00424050     Qt5Core:Qt5Core.dll
 0002:00000054       __imp_?qt_metacall@QObject@@UAEHW4Call@QMetaObject@@HPAPAX@Z 00424054     Qt5Core:Qt5Core.dll
 0002:00000058       __imp_?qt_metacast@QObject@@UAEPAXPBD@Z 00424058     Qt5Core:Qt5Core.dll
 0002:0000005c       __imp_?activate@QMetaObject@@SAXPAVQObject@@PBU1@HPAPAX@Z 0042405c     Qt5Core:Qt5Core.dll
 0002:00000060       __imp_?staticMetaObject@QObject@@2UQMetaObject@@B 00424060     Qt5Core:Qt5Core.dll
 0002:00000064       __imp_?toString@QDateTime@@QBE?AVQString@@ABV2@@Z 00424064     Qt5Core:Qt5Core.dll
 0002:00000068       __imp_?dynamicMetaObject@QObjectData@@QBEPAUQMetaObject@@XZ 00424068     Qt5Core:Qt5Core.dll
 0002:0000006c       __imp_?qUnregisterResourceData@@YA_NHPBE00@Z 0042406c     Qt5Core:Qt5Core.dll
 0002:00000070       __imp_?qRegisterResourceData@@YA_NHPBE00@Z 00424070     Qt5Core:Qt5Core.dll
 0002:00000074       __imp_?QStringList_join@QtPrivate@@YA?AVQString@@PBVQStringList@@PBVQChar@@H@Z 00424074     Qt5Core:Qt5Core.dll
 0002:00000078       __imp_?constData@QString@@QBEPBVQChar@@XZ 00424078     Qt5Core:Qt5Core.dll
 0002:0000007c       __imp_?width@QRect@@QBEHXZ 0042407c     Qt5Core:Qt5Core.dll
 0002:00000080       __imp_??0QRect@@QAE@HHHH@Z 00424080     Qt5Core:Qt5Core.dll
 0002:00000084       __imp_?tr@QMetaObject@@QBE?AVQString@@PBD0H@Z 00424084     Qt5Core:Qt5Core.dll
 0002:00000088       __imp_?debug@QMessageLogger@@QBE?AVQDebug@@XZ 00424088     Qt5Core:Qt5Core.dll
 0002:0000008c       __imp_??0QMessageLogger@@QAE@PBDH0@Z 0042408c     Qt5Core:Qt5Core.dll
 0002:00000090       __imp_?value@QCommandLineParser@@QBE?AVQString@@ABVQCommandLineOption@@@Z 00424090     Qt5Core:Qt5Core.dll
 0002:00000094       __imp_?process@QCommandLineParser@@QAEXABVQCoreApplication@@@Z 00424094     Qt5Core:Qt5Core.dll
 0002:00000098       __imp_?setApplicationDescription@QCommandLineParser@@QAEXABVQString@@@Z 00424098     Qt5Core:Qt5Core.dll
 0002:0000009c       __imp_?addHelpOption@QCommandLineParser@@QAE?AVQCommandLineOption@@XZ 0042409c     Qt5Core:Qt5Core.dll
 0002:000000a0       __imp_?addVersionOption@QCommandLineParser@@QAE?AVQCommandLineOption@@XZ 004240a0     Qt5Core:Qt5Core.dll
 0002:000000a4       __imp_?addOption@QCommandLineParser@@QAE_NABVQCommandLineOption@@@Z 004240a4     Qt5Core:Qt5Core.dll
 0002:000000a8       __imp_??1QCommandLineParser@@QAE@XZ 004240a8     Qt5Core:Qt5Core.dll
 0002:000000ac       __imp_??0QCommandLineParser@@QAE@XZ 004240ac     Qt5Core:Qt5Core.dll
 0002:000000b0       __imp_??1QCommandLineOption@@QAE@XZ 004240b0     Qt5Core:Qt5Core.dll
 0002:000000b4       __imp_??0QCommandLineOption@@QAE@ABVQStringList@@ABVQString@@11@Z 004240b4     Qt5Core:Qt5Core.dll
 0002:000000b8       __imp_?setDefault@QLocale@@SAXABV1@@Z 004240b8     Qt5Core:Qt5Core.dll
 0002:000000bc       __imp_??1QLocale@@QAE@XZ   004240bc     Qt5Core:Qt5Core.dll
 0002:000000c0       __imp_??0QLocale@@QAE@ABVQString@@@Z 004240c0     Qt5Core:Qt5Core.dll
 0002:000000c4       __imp_?freeData@QMapDataBase@@SAXPAU1@@Z 004240c4     Qt5Core:Qt5Core.dll
 0002:000000c8       __imp_?createData@QMapDataBase@@SAPAU1@XZ 004240c8     Qt5Core:Qt5Core.dll
 0002:000000cc       __imp_?freeTree@QMapDataBase@@QAEXPAUQMapNodeBase@@H@Z 004240cc     Qt5Core:Qt5Core.dll
 0002:000000d0       __imp_?createNode@QMapDataBase@@QAEPAUQMapNodeBase@@HHPAU2@_N@Z 004240d0     Qt5Core:Qt5Core.dll
 0002:000000d4       __imp_?recalcMostLeftNode@QMapDataBase@@QAEXXZ 004240d4     Qt5Core:Qt5Core.dll
 0002:000000d8       __imp_?processEvents@QCoreApplication@@SAXV?$QFlags@W4ProcessEventsFlag@QEventLoop@@@@@Z 004240d8     Qt5Core:Qt5Core.dll
 0002:000000dc       __imp_?setApplicationVersion@QCoreApplication@@SAXABVQString@@@Z 004240dc     Qt5Core:Qt5Core.dll
 0002:000000e0       __imp_?setApplicationName@QCoreApplication@@SAXABVQString@@@Z 004240e0     Qt5Core:Qt5Core.dll
 0002:000000e4       __imp_?connect@QObject@@SA?AVConnection@QMetaObject@@PBV1@PBD01W4ConnectionType@Qt@@@Z 004240e4     Qt5Core:Qt5Core.dll
 0002:000000e8       __imp_?tr@QObject@@SA?AVQString@@PBD0H@Z 004240e8     Qt5Core:Qt5Core.dll
 0002:000000ec       __imp_?fromAscii_helper@QString@@CAPAU?$QTypedArrayData@G@@PBDH@Z 004240ec     Qt5Core:Qt5Core.dll
 0002:000000f0       __imp_??4QString@@QAEAAV0@PBD@Z 004240f0     Qt5Core:Qt5Core.dll
 0002:000000f4       __imp_??M@YA_NABVQString@@0@Z 004240f4     Qt5Core:Qt5Core.dll
 0002:000000f8       __imp_?compare@QString@@QBEHABV1@W4CaseSensitivity@Qt@@@Z 004240f8     Qt5Core:Qt5Core.dll
 0002:000000fc       __imp_?shared_null@QMapDataBase@@2U1@B 004240fc     Qt5Core:Qt5Core.dll
 0002:00000100       __imp_?utf16@QString@@QBEPBGXZ 00424100     Qt5Core:Qt5Core.dll
 0002:00000104       __imp_?codecForLocale@QTextCodec@@SAPAV1@XZ 00424104     Qt5Core:Qt5Core.dll
 0002:00000108       __imp_?codecForName@QTextCodec@@SAPAV1@PBD@Z 00424108     Qt5Core:Qt5Core.dll
 0002:0000010c       __imp_??6QTextStream@@QAEAAV0@ABVQString@@@Z 0042410c     Qt5Core:Qt5Core.dll
 0002:00000110       __imp_?flush@QTextStream@@QAEXXZ 00424110     Qt5Core:Qt5Core.dll
 0002:00000114       __imp_?setCodec@QTextStream@@QAEXPAVQTextCodec@@@Z 00424114     Qt5Core:Qt5Core.dll
 0002:00000118       __imp_??0QFile@@QAE@XZ     00424118     Qt5Core:Qt5Core.dll
 0002:0000011c       __imp_?device@QTextStream@@QBEPAVQIODevice@@XZ 0042411c     Qt5Core:Qt5Core.dll
 0002:00000120       __imp_?compare@QString@@QBEHVQLatin1String@@W4CaseSensitivity@Qt@@@Z 00424120     Qt5Core:Qt5Core.dll
 0002:00000124       __imp_?split@QString@@QBE?AVQStringList@@VQChar@@W4SplitBehavior@1@W4CaseSensitivity@Qt@@@Z 00424124     Qt5Core:Qt5Core.dll
 0002:00000128       __imp_?startsWith@QString@@QBE_NABV1@W4CaseSensitivity@Qt@@@Z 00424128     Qt5Core:Qt5Core.dll
 0002:0000012c       __imp_?sharedNull@QArrayData@@SAPAU1@XZ 0042412c     Qt5Core:Qt5Core.dll
 0002:00000130       __imp_?deallocate@QArrayData@@SAXPAU1@II@Z 00424130     Qt5Core:Qt5Core.dll
 0002:00000134       __imp_?allocate@QArrayData@@SAPAU1@IIIV?$QFlags@W4AllocationOption@QArrayData@@@@@Z 00424134     Qt5Core:Qt5Core.dll
 0002:00000138       __imp_?className@QMetaObject@@QBEPBDXZ 00424138     Qt5Core:Qt5Core.dll
 0002:0000013c       __imp_??0QChar@@QAE@UQLatin1Char@@@Z 0042413c     Qt5Core:Qt5Core.dll
 0002:00000140       __imp_??1QString@@QAE@XZ   00424140     Qt5Core:Qt5Core.dll
 0002:00000144       __imp_?arg@QString@@QBE?AV1@ABV1@HVQChar@@@Z 00424144     Qt5Core:Qt5Core.dll
 0002:00000148       __imp_?fromUtf8@QString@@SA?AV1@PBDH@Z 00424148     Qt5Core:Qt5Core.dll
 0002:0000014c       __imp_?detach_grow@QListData@@QAEPAUData@1@PAHH@Z 0042414c     Qt5Core:Qt5Core.dll
 0002:00000150       __imp_?dispose@QListData@@SAXPAUData@1@@Z 00424150     Qt5Core:Qt5Core.dll
 0002:00000154       __imp_?append@QListData@@QAEPAPAXXZ 00424154     Qt5Core:Qt5Core.dll
 0002:00000158       __imp_?begin@QListData@@QBEPAPAXXZ 00424158     Qt5Core:Qt5Core.dll
 0002:0000015c       __imp_?end@QListData@@QBEPAPAXXZ 0042415c     Qt5Core:Qt5Core.dll
 0002:00000160       __imp_??0QObject@@QAE@PAV0@@Z 00424160     Qt5Core:Qt5Core.dll
 0002:00000164       __imp_??1QObject@@UAE@XZ   00424164     Qt5Core:Qt5Core.dll
 0002:00000168       __imp_?objectName@QObject@@QBE?AVQString@@XZ 00424168     Qt5Core:Qt5Core.dll
 0002:0000016c       __imp_?setObjectName@QObject@@QAEXABVQString@@@Z 0042416c     Qt5Core:Qt5Core.dll
 0002:00000170       __imp_??1QVariant@@QAE@XZ  00424170     Qt5Core:Qt5Core.dll
 0002:00000174       __imp_??0QVariant@@QAE@ABV0@@Z 00424174     Qt5Core:Qt5Core.dll
 0002:00000178       __imp_??0QVariant@@QAE@ABVQString@@@Z 00424178     Qt5Core:Qt5Core.dll
 0002:0000017c       __imp_??0QMutex@@QAE@W4RecursionMode@0@@Z 0042417c     Qt5Core:Qt5Core.dll
 0002:00000180       __imp_??1QMutex@@QAE@XZ    00424180     Qt5Core:Qt5Core.dll
 0002:00000184       __imp_?lock@QMutex@@QAEXXZ 00424184     Qt5Core:Qt5Core.dll
 0002:00000188       __imp_??1QMutexLocker@@QAE@XZ 00424188     Qt5Core:Qt5Core.dll
 0002:0000018c       __imp_?childEvent@QObject@@MAEXPAVQChildEvent@@@Z 0042418c     Qt5Core:Qt5Core.dll
 0002:00000190       __imp_?connectNotify@QObject@@MAEXABVQMetaMethod@@@Z 00424190     Qt5Core:Qt5Core.dll
 0002:00000194       __imp_?customEvent@QObject@@MAEXPAVQEvent@@@Z 00424194     Qt5Core:Qt5Core.dll
 0002:00000198       __imp_?disconnectNotify@QObject@@MAEXABVQMetaMethod@@@Z 00424198     Qt5Core:Qt5Core.dll
 0002:0000019c       __imp_?event@QObject@@UAE_NPAVQEvent@@@Z 0042419c     Qt5Core:Qt5Core.dll
 0002:000001a0       __imp_?eventFilter@QObject@@UAE_NPAV1@PAVQEvent@@@Z 004241a0     Qt5Core:Qt5Core.dll
 0002:000001a4       __imp_?timerEvent@QObject@@MAEXPAVQTimerEvent@@@Z 004241a4     Qt5Core:Qt5Core.dll
 0002:000001a8       __imp_??0QString@@QAE@VQLatin1String@@@Z 004241a8     Qt5Core:Qt5Core.dll
 0002:000001ac       __imp_??0QString@@QAE@ABV0@@Z 004241ac     Qt5Core:Qt5Core.dll
 0002:000001b0       __imp_?detach@QListData@@QAEPAUData@1@H@Z 004241b0     Qt5Core:Qt5Core.dll
 0002:000001b4       __imp_?size@QListData@@QBEHXZ 004241b4     Qt5Core:Qt5Core.dll
 0002:000001b8       __imp_?detach_helper@QHashData@@QAEPAU1@P6AXPAUNode@1@PAX@ZP6AX0@ZHH@Z 004241b8     Qt5Core:Qt5Core.dll
 0002:000001bc       __imp_?free_helper@QHashData@@QAEXP6AXPAUNode@1@@Z@Z 004241bc     Qt5Core:Qt5Core.dll
 0002:000001c0       __imp_??0QString@@QAE@XZ   004241c0     Qt5Core:Qt5Core.dll
 0002:000001c4       __imp_??4QString@@QAEAAV0@VQLatin1String@@@Z 004241c4     Qt5Core:Qt5Core.dll
 0002:000001c8       __imp_??4QString@@QAEAAV0@$$QAV0@@Z 004241c8     Qt5Core:Qt5Core.dll
 0002:000001cc       __imp_??0QTextStream@@QAE@PAU_iobuf@@V?$QFlags@W4OpenModeFlag@QIODevice@@@@@Z 004241cc     Qt5Core:Qt5Core.dll
 0002:000001d0       __imp_??1QTextStream@@UAE@XZ 004241d0     Qt5Core:Qt5Core.dll
 0002:000001d4       __imp_??6QTextStream@@QAEAAV0@D@Z 004241d4     Qt5Core:Qt5Core.dll
 0002:000001d8       __imp_??6QDebug@@QAEAAV0@_N@Z 004241d8     Qt5Core:Qt5Core.dll
 0002:000001dc       __imp_??6QDebug@@QAEAAV0@H@Z 004241dc     Qt5Core:Qt5Core.dll
 0002:000001e0       __imp_??6QDebug@@QAEAAV0@PBD@Z 004241e0     Qt5Core:Qt5Core.dll
 0002:000001e4       __imp_??6QDebug@@QAEAAV0@ABVQString@@@Z 004241e4     Qt5Core:Qt5Core.dll
 0002:000001e8       __imp_??6QDebug@@QAEAAV0@PBX@Z 004241e8     Qt5Core:Qt5Core.dll
 0002:000001ec       __imp_?indexOfEnumerator@QMetaObject@@QBEHPBD@Z 004241ec     Qt5Core:Qt5Core.dll
 0002:000001f0       __imp_?enumerator@QMetaObject@@QBE?AVQMetaEnum@@H@Z 004241f0     Qt5Core:Qt5Core.dll
 0002:000001f4       __imp_??1QByteArray@@QAE@XZ 004241f4     Qt5Core:Qt5Core.dll
 0002:000001f8       __imp_?constData@QByteArray@@QBEPBDXZ 004241f8     Qt5Core:Qt5Core.dll
 0002:000001fc       __imp_??4QString@@QAEAAV0@ABV0@@Z 004241fc     Qt5Core:Qt5Core.dll
 0002:00000200       __imp_?clear@QString@@QAEXXZ 00424200     Qt5Core:Qt5Core.dll
 0002:00000204       __imp_?arg@QString@@QBE?AV1@ABV1@0@Z 00424204     Qt5Core:Qt5Core.dll
 0002:00000208       __imp_?arg@QString@@QBE?AV1@ABV1@00@Z 00424208     Qt5Core:Qt5Core.dll
 0002:0000020c       __imp_?append@QString@@QAEAAV1@ABV1@@Z 0042420c     Qt5Core:Qt5Core.dll
 0002:00000210       __imp_??8@YA_NABVQString@@0@Z 00424210     Qt5Core:Qt5Core.dll
 0002:00000214       __imp_??0QVariant@@QAE@ABVQDateTime@@@Z 00424214     Qt5Core:Qt5Core.dll
 0002:00000218       __imp_?toString@QVariant@@QBE?AVQString@@XZ 00424218     Qt5Core:Qt5Core.dll
 0002:0000021c       __imp_??0QDate@@QAE@HHH@Z  0042421c     Qt5Core:Qt5Core.dll
 0002:00000220       __imp_?year@QDate@@QBEHXZ  00424220     Qt5Core:Qt5Core.dll
 0002:00000224       __imp_?month@QDate@@QBEHXZ 00424224     Qt5Core:Qt5Core.dll
 0002:00000228       __imp_?dayOfWeek@QDate@@QBEHXZ 00424228     Qt5Core:Qt5Core.dll
 0002:0000022c       __imp_??0QTime@@QAE@HHHH@Z 0042422c     Qt5Core:Qt5Core.dll
 0002:00000230       __imp_?hour@QTime@@QBEHXZ  00424230     Qt5Core:Qt5Core.dll
 0002:00000234       __imp_?minute@QTime@@QBEHXZ 00424234     Qt5Core:Qt5Core.dll
 0002:00000238       __imp_??0QDateTime@@QAE@XZ 00424238     Qt5Core:Qt5Core.dll
 0002:0000023c       __imp_??0QDateTime@@QAE@ABVQDate@@ABVQTime@@W4TimeSpec@Qt@@@Z 0042423c     Qt5Core:Qt5Core.dll
 0002:00000240       __imp_??0QDateTime@@QAE@ABV0@@Z 00424240     Qt5Core:Qt5Core.dll
 0002:00000244       __imp_??1QDateTime@@QAE@XZ 00424244     Qt5Core:Qt5Core.dll
 0002:00000248       __imp_??4QDateTime@@QAEAAV0@$$QAV0@@Z 00424248     Qt5Core:Qt5Core.dll
 0002:0000024c       __imp_?date@QDateTime@@QBE?AVQDate@@XZ 0042424c     Qt5Core:Qt5Core.dll
 0002:00000250       __imp_?time@QDateTime@@QBE?AVQTime@@XZ 00424250     Qt5Core:Qt5Core.dll
 0002:00000254       __imp_?addDays@QDateTime@@QBE?AV1@_J@Z 00424254     Qt5Core:Qt5Core.dll
 0002:00000258       __imp_?addMonths@QDateTime@@QBE?AV1@H@Z 00424258     Qt5Core:Qt5Core.dll
 0002:0000025c       __imp_?addSecs@QDateTime@@QBE?AV1@_J@Z 0042425c     Qt5Core:Qt5Core.dll
 0002:00000260       __imp_??MQDateTime@@QBE_NABV0@@Z 00424260     Qt5Core:Qt5Core.dll
 0002:00000264       __imp_?currentDateTime@QDateTime@@SA?AV1@XZ 00424264     Qt5Core:Qt5Core.dll
 0002:00000268       __imp_?fromTime_t@QDateTime@@SA?AV1@I@Z 00424268     Qt5Core:Qt5Core.dll
 0002:0000026c       __imp_??6@YA?AVQDebug@@V0@ABVQDateTime@@@Z 0042426c     Qt5Core:Qt5Core.dll
 0002:00000270       __imp_??1QDebug@@QAE@XZ    00424270     Qt5Core:Qt5Core.dll
 0002:00000274       __imp_??0QFile@@QAE@ABVQString@@@Z 00424274     Qt5Core:Qt5Core.dll
 0002:00000278       __imp_??1QFile@@UAE@XZ     00424278     Qt5Core:Qt5Core.dll
 0002:0000027c       __imp_?setFileName@QFile@@QAEXABVQString@@@Z 0042427c     Qt5Core:Qt5Core.dll
 0002:00000280       __imp_?exists@QFile@@QBE_NXZ 00424280     Qt5Core:Qt5Core.dll
 0002:00000284       __imp_?valueToKey@QMetaEnum@@QBEPBDH@Z 00424284     Qt5Core:Qt5Core.dll
 0002:00000288       __imp_?errorString@QIODevice@@QBE?AVQString@@XZ 00424288     Qt5Core:Qt5Core.dll
 0002:0000028c       __imp_?error@QFileDevice@@QBE?AW4FileError@1@XZ 0042428c     Qt5Core:Qt5Core.dll
 0002:00000290       __imp_?remove@QFile@@QAE_NXZ 00424290     Qt5Core:Qt5Core.dll
 0002:00000294       __imp_?rename@QFile@@QAE_NABVQString@@@Z 00424294     Qt5Core:Qt5Core.dll
 0002:00000298       __imp_??0QFileInfo@@QAE@ABVQString@@@Z 00424298     Qt5Core:Qt5Core.dll
 0002:0000029c       __imp_??1QFileInfo@@QAE@XZ 0042429c     Qt5Core:Qt5Core.dll
 0002:000002a0       __imp_?dir@QFileInfo@@QBE?AVQDir@@XZ 004242a0     Qt5Core:Qt5Core.dll
 0002:000002a4       __imp_??1QDir@@QAE@XZ      004242a4     Qt5Core:Qt5Core.dll
 0002:000002a8       __imp_?dirName@QDir@@QBE?AVQString@@XZ 004242a8     Qt5Core:Qt5Core.dll
 0002:000002ac       __imp_?cdUp@QDir@@QAE_NXZ  004242ac     Qt5Core:Qt5Core.dll
 0002:000002b0       __imp_?mkdir@QDir@@QBE_NABVQString@@@Z 004242b0     Qt5Core:Qt5Core.dll
 0002:000002b4       __imp_?exists@QDir@@QBE_NXZ 004242b4     Qt5Core:Qt5Core.dll
 0002:000002b8       __imp_??0QTextStream@@QAE@PAVQIODevice@@@Z 004242b8     Qt5Core:Qt5Core.dll
 0002:000002bc       __imp_?atEnd@QFileDevice@@UBE_NXZ 004242bc     Qt5Core:Qt5Core.dll
 0002:000002c0       __imp_?bytesAvailable@QIODevice@@UBE_JXZ 004242c0     Qt5Core:Qt5Core.dll
 0002:000002c4       __imp_?bytesToWrite@QIODevice@@UBE_JXZ 004242c4     Qt5Core:Qt5Core.dll
 0002:000002c8       __imp_?canReadLine@QIODevice@@UBE_NXZ 004242c8     Qt5Core:Qt5Core.dll
 0002:000002cc       __imp_?close@QFileDevice@@UAEXXZ 004242cc     Qt5Core:Qt5Core.dll
 0002:000002d0       __imp_?fileName@QFile@@UBE?AVQString@@XZ 004242d0     Qt5Core:Qt5Core.dll
 0002:000002d4       __imp_?isSequential@QFileDevice@@UBE_NXZ 004242d4     Qt5Core:Qt5Core.dll
 0002:000002d8       __imp_?metaObject@QFile@@UBEPBUQMetaObject@@XZ 004242d8     Qt5Core:Qt5Core.dll
 0002:000002dc       __imp_?open@QFile@@UAE_NV?$QFlags@W4OpenModeFlag@QIODevice@@@@@Z 004242dc     Qt5Core:Qt5Core.dll
 0002:000002e0       __imp_?permissions@QFile@@UBE?AV?$QFlags@W4Permission@QFileDevice@@@@XZ 004242e0     Qt5Core:Qt5Core.dll
 0002:000002e4       __imp_?pos@QFileDevice@@UBE_JXZ 004242e4     Qt5Core:Qt5Core.dll
 0002:000002e8       __imp_?qt_metacall@QFile@@UAEHW4Call@QMetaObject@@HPAPAX@Z 004242e8     Qt5Core:Qt5Core.dll
 0002:000002ec       __imp_?qt_metacast@QFile@@UAEPAXPBD@Z 004242ec     Qt5Core:Qt5Core.dll
 0002:000002f0       __imp_?readData@QFileDevice@@MAE_JPAD_J@Z 004242f0     Qt5Core:Qt5Core.dll
 0002:000002f4       __imp_?readLineData@QFileDevice@@MAE_JPAD_J@Z 004242f4     Qt5Core:Qt5Core.dll
 0002:000002f8       __imp_?reset@QIODevice@@UAE_NXZ 004242f8     Qt5Core:Qt5Core.dll
 0002:000002fc       __imp_?resize@QFile@@UAE_N_J@Z 004242fc     Qt5Core:Qt5Core.dll
 0002:00000300       __imp_?seek@QFileDevice@@UAE_N_J@Z 00424300     Qt5Core:Qt5Core.dll
 0002:00000304       __imp_?setPermissions@QFile@@UAE_NV?$QFlags@W4Permission@QFileDevice@@@@@Z 00424304     Qt5Core:Qt5Core.dll
 0002:00000308       __imp_?size@QFile@@UBE_JXZ 00424308     Qt5Core:Qt5Core.dll
 0002:0000030c       __imp_?waitForBytesWritten@QIODevice@@UAE_NH@Z 0042430c     Qt5Core:Qt5Core.dll
 0002:00000310       __imp_?waitForReadyRead@QIODevice@@UAE_NH@Z 00424310     Qt5Core:Qt5Core.dll
 0002:00000314       __imp_?writeData@QFileDevice@@MAE_JPBD_J@Z 00424314     Qt5Core:Qt5Core.dll
 0002:00000318       __imp_??1Connection@QMetaObject@@QAE@XZ 00424318     Qt5Core:Qt5Core.dll
 0002:0000031c       __imp_??6@YA?AVQDebug@@V0@PBVQObject@@@Z 0042431c     Qt5Core:Qt5Core.dll
 0002:00000320       __imp_?shared_null@QListData@@2UData@1@B 00424320     Qt5Core:Qt5Core.dll
 0002:00000324       __imp_??0QChar@@QAE@XZ     00424324     Qt5Core:Qt5Core.dll
 0002:00000328       __imp_?toLower@QChar@@QBE?AV1@XZ 00424328     Qt5Core:Qt5Core.dll
 0002:0000032c       __imp_??0QString@@QAE@$$QAV0@@Z 0042432c     Qt5Core:Qt5Core.dll
 0002:00000330       __imp_?at@QString@@QBE?BVQChar@@H@Z 00424330     Qt5Core:Qt5Core.dll
 0002:00000334       __imp_?indexOf@QString@@QBEHVQChar@@HW4CaseSensitivity@Qt@@@Z 00424334     Qt5Core:Qt5Core.dll
 0002:00000338       __imp_?mid@QString@@QBE?AV1@HH@Z 00424338     Qt5Core:Qt5Core.dll
 0002:0000033c       __imp_?startsWith@QString@@QBE_NVQLatin1String@@W4CaseSensitivity@Qt@@@Z 0042433c     Qt5Core:Qt5Core.dll
 0002:00000340       __imp_?rightJustified@QString@@QBE?AV1@HVQChar@@_N@Z 00424340     Qt5Core:Qt5Core.dll
 0002:00000344       __imp_?toLower@QString@@QGBE?AV1@XZ 00424344     Qt5Core:Qt5Core.dll
 0002:00000348       __imp_??YQString@@QAEAAV0@VQChar@@@Z 00424348     Qt5Core:Qt5Core.dll
 0002:0000034c       __imp_?number@QString@@SA?AV1@HH@Z 0042434c     Qt5Core:Qt5Core.dll
 0002:00000350       __imp_?number@QString@@SA?AV1@_JH@Z 00424350     Qt5Core:Qt5Core.dll
 0002:00000354       __imp_??8QString@@QBE_NVQLatin1String@@@Z 00424354     Qt5Core:Qt5Core.dll
 0002:00000358       __imp_?day@QDate@@QBEHXZ   00424358     Qt5Core:Qt5Core.dll
 0002:0000035c       __imp_?weekNumber@QDate@@QBEHPAH@Z 0042435c     Qt5Core:Qt5Core.dll
 0002:00000360       __imp_?shortMonthName@QDate@@SA?AVQString@@HW4MonthNameType@1@@Z 00424360     Qt5Core:Qt5Core.dll
 0002:00000364       __imp_?shortDayName@QDate@@SA?AVQString@@HW4MonthNameType@1@@Z 00424364     Qt5Core:Qt5Core.dll
 0002:00000368       __imp_?longMonthName@QDate@@SA?AVQString@@HW4MonthNameType@1@@Z 00424368     Qt5Core:Qt5Core.dll
 0002:0000036c       __imp_?longDayName@QDate@@SA?AVQString@@HW4MonthNameType@1@@Z 0042436c     Qt5Core:Qt5Core.dll
 0002:00000370       __imp_?second@QTime@@QBEHXZ 00424370     Qt5Core:Qt5Core.dll
 0002:00000374       __imp_?msec@QTime@@QBEHXZ  00424374     Qt5Core:Qt5Core.dll
 0002:00000378       __imp_?isValid@QDateTime@@QBE_NXZ 00424378     Qt5Core:Qt5Core.dll
 0002:0000037c       __imp_?toTime_t@QDateTime@@QBEIXZ 0042437c     Qt5Core:Qt5Core.dll
 0002:00000380       __imp_?qHash@@YAIABVQString@@I@Z 00424380     Qt5Core:Qt5Core.dll
 0002:00000384       __imp_?realloc@QListData@@QAEXH@Z 00424384     Qt5Core:Qt5Core.dll
 0002:00000388       __imp_??BQByteArray@@QBEPBDXZ 00424388     Qt5Core:Qt5Core.dll
 0002:0000038c       __imp_?toLatin1@QString@@QGBE?AVQByteArray@@XZ 0042438c     Qt5Core:Qt5Core.dll
 0002:00000390       __imp_?fromLatin1@QString@@SA?AV1@PBDH@Z 00424390     Qt5Core:Qt5Core.dll
 0002:00000394       __imp_??4QCharRef@@QAEAAV0@VQChar@@@Z 00424394     Qt5Core:Qt5Core.dll
 0002:00000398       __imp_?toLower@QCharRef@@QBE?AVQChar@@XZ 00424398     Qt5Core:Qt5Core.dll
 0002:0000039c       __imp_?allocateNode@QHashData@@QAEPAXH@Z 0042439c     Qt5Core:Qt5Core.dll
 0002:000003a0       __imp_?rehash@QHashData@@QAEXH@Z 004243a0     Qt5Core:Qt5Core.dll
 0002:000003a4       __imp_?nextNode@QHashData@@SAPAUNode@1@PAU21@@Z 004243a4     Qt5Core:Qt5Core.dll
 0002:000003a8       __imp_?indexOfProperty@QMetaObject@@QBEHPBD@Z 004243a8     Qt5Core:Qt5Core.dll
 0002:000003ac       __imp_?property@QMetaObject@@QBE?AVQMetaProperty@@H@Z 004243ac     Qt5Core:Qt5Core.dll
 0002:000003b0       __imp_?normalizedType@QMetaObject@@SA?AVQByteArray@@PBD@Z 004243b0     Qt5Core:Qt5Core.dll
 0002:000003b4       __imp_?registerNormalizedType@QMetaType@@SAHABVQByteArray@@P6AXPAX@ZP6APAX1PBX@ZHV?$QFlags@W4TypeFlag@QMetaType@@@@PBUQMetaObject@@@Z 004243b4     Qt5Core:Qt5Core.dll
 0002:000003b8       __imp_?registerNormalizedTypedef@QMetaType@@SAHABVQByteArray@@H@Z 004243b8     Qt5Core:Qt5Core.dll
 0002:000003bc       __imp_??0QVariant@@QAE@XZ  004243bc     Qt5Core:Qt5Core.dll
 0002:000003c0       __imp_??0QVariant@@QAE@HPBXI@Z 004243c0     Qt5Core:Qt5Core.dll
 0002:000003c4       __imp_??0QVariant@@QAE@H@Z 004243c4     Qt5Core:Qt5Core.dll
 0002:000003c8       __imp_??0QVariant@@QAE@_J@Z 004243c8     Qt5Core:Qt5Core.dll
 0002:000003cc       __imp_??0QVariant@@QAE@_N@Z 004243cc     Qt5Core:Qt5Core.dll
 0002:000003d0       __imp_??4QVariant@@QAEAAV0@$$QAV0@@Z 004243d0     Qt5Core:Qt5Core.dll
 0002:000003d4       __imp_??0QMetaProperty@@QAE@XZ 004243d4     Qt5Core:Qt5Core.dll
 0002:000003d8       __imp_?name@QMetaProperty@@QBEPBDXZ 004243d8     Qt5Core:Qt5Core.dll
 0002:000003dc       __imp_?typeName@QMetaProperty@@QBEPBDXZ 004243dc     Qt5Core:Qt5Core.dll
 0002:000003e0       __imp_?isWritable@QMetaProperty@@QBE_NXZ 004243e0     Qt5Core:Qt5Core.dll
 0002:000003e4       __imp_?write@QMetaProperty@@QBE_NPAVQObject@@ABVQVariant@@@Z 004243e4     Qt5Core:Qt5Core.dll
 0002:000003e8       __imp_?shared_null@QHashData@@2U1@B 004243e8     Qt5Core:Qt5Core.dll
 0002:000003ec       __imp_?left@QString@@QBE?AV1@H@Z 004243ec     Qt5Core:Qt5Core.dll
 0002:000003f0       __imp_?toUpper@QString@@QGBE?AV1@XZ 004243f0     Qt5Core:Qt5Core.dll
 0002:000003f4       __imp_?trimmed@QString@@QHAE?AV1@XZ 004243f4     Qt5Core:Qt5Core.dll
 0002:000003f8       __imp_?registerStreamOperators@QMetaType@@SAXPBDP6AXAAVQDataStream@@PBX@ZP6AX1PAX@Z@Z 004243f8     Qt5Core:Qt5Core.dll
 0002:000003fc       __imp_??6QDebug@@QAEAAV0@_J@Z 004243fc     Qt5Core:Qt5Core.dll
 0002:00000400       __imp_?systemEnvironment@QProcess@@SA?AVQStringList@@XZ 00424400     Qt5Core:Qt5Core.dll
 0002:00000404       __imp_??0QSettings@@QAE@PAVQObject@@@Z 00424404     Qt5Core:Qt5Core.dll
 0002:00000408       __imp_??1QSettings@@UAE@XZ 00424408     Qt5Core:Qt5Core.dll
 0002:0000040c       __imp_?beginGroup@QSettings@@QAEXABVQString@@@Z 0042440c     Qt5Core:Qt5Core.dll
 0002:00000410       __imp_?value@QSettings@@QBE?AVQVariant@@ABVQString@@ABV2@@Z 00424410     Qt5Core:Qt5Core.dll
 0002:00000414       __imp_?addMSecs@QDateTime@@QBE?AV1@_J@Z 00424414     Qt5Core:Qt5Core.dll
 0002:00000418       __imp_?self@QCoreApplication@@0PAV1@A 00424418     Qt5Core:Qt5Core.dll
 0002:0000041c       __imp_??0QByteArray@@QAE@XZ 0042441c     Qt5Core:Qt5Core.dll
 0002:00000420       __imp_??6@YAAAVQDataStream@@AAV0@ABVQByteArray@@@Z 00424420     Qt5Core:Qt5Core.dll
 0002:00000424       __imp_??5@YAAAVQDataStream@@AAV0@AAVQByteArray@@@Z 00424424     Qt5Core:Qt5Core.dll
 0002:00000428       __imp_?append@QString@@QAEAAV1@VQLatin1String@@@Z 00424428     Qt5Core:Qt5Core.dll
 0002:0000042c       __imp_?replace@QString@@QAEAAV1@VQLatin1String@@0W4CaseSensitivity@Qt@@@Z 0042442c     Qt5Core:Qt5Core.dll
 0002:00000430       __imp_??6@YAAAVQDataStream@@AAV0@ABVQString@@@Z 00424430     Qt5Core:Qt5Core.dll
 0002:00000434       __imp_??5@YAAAVQDataStream@@AAV0@AAVQString@@@Z 00424434     Qt5Core:Qt5Core.dll
 0002:00000438       __imp_?isEmpty@QListData@@QBE_NXZ 00424438     Qt5Core:Qt5Core.dll
 0002:0000043c       __imp_?at@QListData@@QBEPAPAXH@Z 0042443c     Qt5Core:Qt5Core.dll
 0002:00000440       __imp_??4QVariant@@QAEAAV0@ABV0@@Z 00424440     Qt5Core:Qt5Core.dll
 0002:00000444       __imp_??5@YAAAVQDataStream@@AAV0@AAVQVariant@@@Z 00424444     Qt5Core:Qt5Core.dll
 0002:00000448       __imp_??6@YAAAVQDataStream@@AAV0@ABVQVariant@@@Z 00424448     Qt5Core:Qt5Core.dll
 0002:0000044c       __imp_?isTransactionStarted@QIODevice@@QBE_NXZ 0042444c     Qt5Core:Qt5Core.dll
 0002:00000450       __imp_??0QBuffer@@QAE@PAVQObject@@@Z 00424450     Qt5Core:Qt5Core.dll
 0002:00000454       __imp_??0QBuffer@@QAE@PAVQByteArray@@PAVQObject@@@Z 00424454     Qt5Core:Qt5Core.dll
 0002:00000458       __imp_??1QBuffer@@UAE@XZ   00424458     Qt5Core:Qt5Core.dll
 0002:0000045c       __imp_?buffer@QBuffer@@QAEAAVQByteArray@@XZ 0042445c     Qt5Core:Qt5Core.dll
 0002:00000460       __imp_?open@QBuffer@@UAE_NV?$QFlags@W4OpenModeFlag@QIODevice@@@@@Z 00424460     Qt5Core:Qt5Core.dll
 0002:00000464       __imp_?close@QBuffer@@UAEXXZ 00424464     Qt5Core:Qt5Core.dll
 0002:00000468       __imp_??0QDataStream@@QAE@PAVQIODevice@@@Z 00424468     Qt5Core:Qt5Core.dll
 0002:0000046c       __imp_??1QDataStream@@QAE@XZ 0042446c     Qt5Core:Qt5Core.dll
 0002:00000470       __imp_?status@QDataStream@@QBE?AW4Status@1@XZ 00424470     Qt5Core:Qt5Core.dll
 0002:00000474       __imp_?setStatus@QDataStream@@QAEXW4Status@1@@Z 00424474     Qt5Core:Qt5Core.dll
 0002:00000478       __imp_?resetStatus@QDataStream@@QAEXXZ 00424478     Qt5Core:Qt5Core.dll
 0002:0000047c       __imp_??5QDataStream@@QAEAAV0@AAF@Z 0042447c     Qt5Core:Qt5Core.dll
 0002:00000480       __imp_??5QDataStream@@QAEAAV0@AAH@Z 00424480     Qt5Core:Qt5Core.dll
 0002:00000484       __imp_??6QDataStream@@QAEAAV0@F@Z 00424484     Qt5Core:Qt5Core.dll
 0002:00000488       __imp_??6QDataStream@@QAEAAV0@H@Z 00424488     Qt5Core:Qt5Core.dll
 0002:0000048c       __imp_?translate@QCoreApplication@@SA?AVQString@@PBD00H@Z 0042448c     Qt5Core:Qt5Core.dll
 0002:00000490       __imp_??0QThreadStorageData@@QAE@P6AXPAX@Z@Z 00424490     Qt5Core:Qt5Core.dll
 0002:00000494       __imp_??1QThreadStorageData@@QAE@XZ 00424494     Qt5Core:Qt5Core.dll
 0002:00000498       __imp_?get@QThreadStorageData@@QBEPAPAXXZ 00424498     Qt5Core:Qt5Core.dll
 0002:0000049c       __imp_?set@QThreadStorageData@@QAEPAPAXPAX@Z 0042449c     Qt5Core:Qt5Core.dll
 0002:000004a0       __imp_?indexOf@QString@@QBEHABV1@HW4CaseSensitivity@Qt@@@Z 004244a0     Qt5Core:Qt5Core.dll
 0002:000004a4       __imp_?indexOf@QString@@QBEHVQLatin1String@@HW4CaseSensitivity@Qt@@@Z 004244a4     Qt5Core:Qt5Core.dll
 0002:000004a8       __imp_?toLower@QString@@QHAE?AV1@XZ 004244a8     Qt5Core:Qt5Core.dll
 0002:000004ac       __imp_?trimmed@QString@@QGBE?AV1@XZ 004244ac     Qt5Core:Qt5Core.dll
 0002:000004b0       __imp_?toInt@QString@@QBEHPA_NH@Z 004244b0     Qt5Core:Qt5Core.dll
 0002:000004b4       __imp_?toLongLong@QString@@QBE_JPA_NH@Z 004244b4     Qt5Core:Qt5Core.dll
 0002:000004b8       __imp_?isNull@QString@@QBE_NXZ 004244b8     Qt5Core:Qt5Core.dll
 0002:000004bc       __imp_?digitValue@QChar@@QBEHXZ 004244bc     Qt5Core:Qt5Core.dll
 0002:000004c0       __imp_?toLatin1@QChar@@QBEDXZ 004244c0     Qt5Core:Qt5Core.dll
 0002:000004c4       __imp_?isDigit@QChar@@QBE_NXZ 004244c4     Qt5Core:Qt5Core.dll
 0002:000004c8       __imp_??0QString@@QAE@VQChar@@@Z 004244c8     Qt5Core:Qt5Core.dll
 0002:000004cc       __imp_?arg@QString@@QBE?AV1@HHHVQChar@@@Z 004244cc     Qt5Core:Qt5Core.dll
 0002:000004d0       __imp_?lastIndexOf@QString@@QBEHABV1@HW4CaseSensitivity@Qt@@@Z 004244d0     Qt5Core:Qt5Core.dll
 0002:000004d4       __imp_?leftJustified@QString@@QBE?AV1@HVQChar@@_N@Z 004244d4     Qt5Core:Qt5Core.dll
 0002:000004d8       __imp_??0QChar@@QAE@I@Z    004244d8     Qt5Core:Qt5Core.dll
 0002:000004dc       __imp_?isSpace@QChar@@QBE_NXZ 004244dc     Qt5Core:Qt5Core.dll
 0002:000004e0       __imp_?right@QString@@QBE?AV1@H@Z 004244e0     Qt5Core:Qt5Core.dll
 0002:000004e4       __imp_?QStringList_contains@QtPrivate@@YA_NPBVQStringList@@ABVQString@@W4CaseSensitivity@Qt@@@Z 004244e4     Qt5Core:Qt5Core.dll
 0002:000004e8       __imp_?readLine@QTextStream@@QAE?AVQString@@_J@Z 004244e8     Qt5Core:Qt5Core.dll
 0002:000004ec       __imp_?childKeys@QSettings@@QBE?AVQStringList@@XZ 004244ec     Qt5Core:Qt5Core.dll
 0002:000004f0       __imp_??0QReadWriteLock@@QAE@W4RecursionMode@0@@Z 004244f0     Qt5Core:Qt5Core.dll
 0002:000004f4       __imp_??1QReadWriteLock@@QAE@XZ 004244f4     Qt5Core:Qt5Core.dll
 0002:000004f8       __imp_??1QReadLocker@@QAE@XZ 004244f8     Qt5Core:Qt5Core.dll
 0002:000004fc       __imp_?relock@QReadLocker@@QAEXXZ 004244fc     Qt5Core:Qt5Core.dll
 0002:00000500       __imp_??1QWriteLocker@@QAE@XZ 00424500     Qt5Core:Qt5Core.dll
 0002:00000504       __imp_?relock@QWriteLocker@@QAEXXZ 00424504     Qt5Core:Qt5Core.dll
 0002:00000508       __imp_??5QDataStream@@QAEAAV0@AAC@Z 00424508     Qt5Core:Qt5Core.dll
 0002:0000050c       __imp_??6QDataStream@@QAEAAV0@C@Z 0042450c     Qt5Core:Qt5Core.dll
 0002:00000510       __imp_?cast@QMetaObject@@QBEPAVQObject@@PAV2@@Z 00424510     Qt5Core:Qt5Core.dll
 0002:00000514       __imp_?erase@QListData@@QAEPAPAXPAPAX@Z 00424514     Qt5Core:Qt5Core.dll
 0002:00000518       __imp_?previousNode@QHashData@@SAPAUNode@1@PAU21@@Z 00424518     Qt5Core:Qt5Core.dll
 0002:0000051c       __imp_??5QDataStream@@QAEAAV0@AA_J@Z 0042451c     Qt5Core:Qt5Core.dll
 0002:00000520       __imp_??6QDataStream@@QAEAAV0@_J@Z 00424520     Qt5Core:Qt5Core.dll
 0002:00000524       __imp_?currentThread@QThread@@SAPAV1@XZ 00424524     Qt5Core:Qt5Core.dll
 0002:00000528       __imp_?qgetenv@@YA?AVQByteArray@@PBD@Z 00424528     Qt5Core:Qt5Core.dll
 0002:0000052c       __imp_?qInstallMessageHandler@@YAP6AXW4QtMsgType@@ABVQMessageLogContext@@ABVQString@@@ZP6AX012@Z@Z 0042452c     Qt5Core:Qt5Core.dll
 0002:00000530       __imp_?isNull@QByteArray@@QBE_NXZ 00424530     Qt5Core:Qt5Core.dll
 0002:00000534       __imp_?exists@QFile@@SA_NABVQString@@@Z 00424534     Qt5Core:Qt5Core.dll
 0002:00000538       __imp_?childGroups@QSettings@@QBE?AVQStringList@@XZ 00424538     Qt5Core:Qt5Core.dll
 0002:0000053c       __imp_?toLocalTime@QDateTime@@QBE?AV1@XZ 0042453c     Qt5Core:Qt5Core.dll
 0002:00000540       __imp_?toUTC@QDateTime@@QBE?AV1@XZ 00424540     Qt5Core:Qt5Core.dll
 0002:00000544       __imp_?secsTo@QDateTime@@QBE_JABV1@@Z 00424544     Qt5Core:Qt5Core.dll
 0002:00000548       __imp_?qBadAlloc@@YAXXZ    00424548     Qt5Core:Qt5Core.dll
 0002:0000054c       \177Qt5Core_NULL_THUNK_DATA 0042454c     Qt5Core:Qt5Core.dll
 0002:00000550       __imp_?drawPixmap@QPainter@@QAEXABVQRect@@ABVQPixmap@@@Z 00424550     Qt5Gui:Qt5Gui.dll
 0002:00000554       __imp_?scaled@QPixmap@@QBE?AV1@HHW4AspectRatioMode@Qt@@W4TransformationMode@3@@Z 00424554     Qt5Gui:Qt5Gui.dll
 0002:00000558       __imp_??1QPixmap@@UAE@XZ   00424558     Qt5Gui:Qt5Gui.dll
 0002:0000055c       __imp_??0QPixmap@@QAE@ABVQString@@PBDV?$QFlags@W4ImageConversionFlag@Qt@@@@@Z 0042455c     Qt5Gui:Qt5Gui.dll
 0002:00000560       __imp_??0QPixmap@@QAE@XZ   00424560     Qt5Gui:Qt5Gui.dll
 0002:00000564       __imp_?fromRgb@QColor@@SA?AV1@HHHH@Z 00424564     Qt5Gui:Qt5Gui.dll
 0002:00000568       \177Qt5Gui_NULL_THUNK_DATA 00424568     Qt5Gui:Qt5Gui.dll
 0002:0000056c       __imp_?qt_metacall@QSplashScreen@@UAEHW4Call@QMetaObject@@HPAPAX@Z 0042456c     Qt5Widgets:Qt5Widgets.dll
 0002:00000570       __imp_?qt_metacast@QSplashScreen@@UAEPAXPBD@Z 00424570     Qt5Widgets:Qt5Widgets.dll
 0002:00000574       __imp_?staticMetaObject@QSplashScreen@@2UQMetaObject@@B 00424574     Qt5Widgets:Qt5Widgets.dll
 0002:00000578       __imp_?wheelEvent@QWidget@@MAEXPAVQWheelEvent@@@Z 00424578     Qt5Widgets:Qt5Widgets.dll
 0002:0000057c       __imp_?tabletEvent@QWidget@@MAEXPAVQTabletEvent@@@Z 0042457c     Qt5Widgets:Qt5Widgets.dll
 0002:00000580       __imp_?sizeHint@QWidget@@UBE?AVQSize@@XZ 00424580     Qt5Widgets:Qt5Widgets.dll
 0002:00000584       __imp_?showEvent@QWidget@@MAEXPAVQShowEvent@@@Z 00424584     Qt5Widgets:Qt5Widgets.dll
 0002:00000588       __imp_?sharedPainter@QWidget@@MBEPAVQPainter@@XZ 00424588     Qt5Widgets:Qt5Widgets.dll
 0002:0000058c       __imp_?setVisible@QWidget@@UAEX_N@Z 0042458c     Qt5Widgets:Qt5Widgets.dll
 0002:00000590       __imp_?resizeEvent@QWidget@@MAEXPAVQResizeEvent@@@Z 00424590     Qt5Widgets:Qt5Widgets.dll
 0002:00000594       __imp_?redirected@QWidget@@MBEPAVQPaintDevice@@PAVQPoint@@@Z 00424594     Qt5Widgets:Qt5Widgets.dll
 0002:00000598       __imp_?paintEvent@QWidget@@MAEXPAVQPaintEvent@@@Z 00424598     Qt5Widgets:Qt5Widgets.dll
 0002:0000059c       __imp_?paintEngine@QWidget@@UBEPAVQPaintEngine@@XZ 0042459c     Qt5Widgets:Qt5Widgets.dll
 0002:000005a0       __imp_?nativeEvent@QWidget@@MAE_NABVQByteArray@@PAXPAJ@Z 004245a0     Qt5Widgets:Qt5Widgets.dll
 0002:000005a4       __imp_?moveEvent@QWidget@@MAEXPAVQMoveEvent@@@Z 004245a4     Qt5Widgets:Qt5Widgets.dll
 0002:000005a8       __imp_?mouseReleaseEvent@QWidget@@MAEXPAVQMouseEvent@@@Z 004245a8     Qt5Widgets:Qt5Widgets.dll
 0002:000005ac       __imp_?mouseMoveEvent@QWidget@@MAEXPAVQMouseEvent@@@Z 004245ac     Qt5Widgets:Qt5Widgets.dll
 0002:000005b0       __imp_?mouseDoubleClickEvent@QWidget@@MAEXPAVQMouseEvent@@@Z 004245b0     Qt5Widgets:Qt5Widgets.dll
 0002:000005b4       __imp_?minimumSizeHint@QWidget@@UBE?AVQSize@@XZ 004245b4     Qt5Widgets:Qt5Widgets.dll
 0002:000005b8       __imp_?metric@QWidget@@MBEHW4PaintDeviceMetric@QPaintDevice@@@Z 004245b8     Qt5Widgets:Qt5Widgets.dll
 0002:000005bc       __imp_?leaveEvent@QWidget@@MAEXPAVQEvent@@@Z 004245bc     Qt5Widgets:Qt5Widgets.dll
 0002:000005c0       __imp_?keyReleaseEvent@QWidget@@MAEXPAVQKeyEvent@@@Z 004245c0     Qt5Widgets:Qt5Widgets.dll
 0002:000005c4       __imp_?keyPressEvent@QWidget@@MAEXPAVQKeyEvent@@@Z 004245c4     Qt5Widgets:Qt5Widgets.dll
 0002:000005c8       __imp_?inputMethodQuery@QWidget@@UBE?AVQVariant@@W4InputMethodQuery@Qt@@@Z 004245c8     Qt5Widgets:Qt5Widgets.dll
 0002:000005cc       __imp_?inputMethodEvent@QWidget@@MAEXPAVQInputMethodEvent@@@Z 004245cc     Qt5Widgets:Qt5Widgets.dll
 0002:000005d0       __imp_?initPainter@QWidget@@MBEXPAVQPainter@@@Z 004245d0     Qt5Widgets:Qt5Widgets.dll
 0002:000005d4       __imp_?hideEvent@QWidget@@MAEXPAVQHideEvent@@@Z 004245d4     Qt5Widgets:Qt5Widgets.dll
 0002:000005d8       __imp_?heightForWidth@QWidget@@UBEHH@Z 004245d8     Qt5Widgets:Qt5Widgets.dll
 0002:000005dc       __imp_?hasHeightForWidth@QWidget@@UBE_NXZ 004245dc     Qt5Widgets:Qt5Widgets.dll
 0002:000005e0       __imp_?focusOutEvent@QWidget@@MAEXPAVQFocusEvent@@@Z 004245e0     Qt5Widgets:Qt5Widgets.dll
 0002:000005e4       __imp_?focusNextPrevChild@QWidget@@MAE_N_N@Z 004245e4     Qt5Widgets:Qt5Widgets.dll
 0002:000005e8       __imp_?focusInEvent@QWidget@@MAEXPAVQFocusEvent@@@Z 004245e8     Qt5Widgets:Qt5Widgets.dll
 0002:000005ec       __imp_?event@QSplashScreen@@MAE_NPAVQEvent@@@Z 004245ec     Qt5Widgets:Qt5Widgets.dll
 0002:000005f0       __imp_?enterEvent@QWidget@@MAEXPAVQEvent@@@Z 004245f0     Qt5Widgets:Qt5Widgets.dll
 0002:000005f4       __imp_?dropEvent@QWidget@@MAEXPAVQDropEvent@@@Z 004245f4     Qt5Widgets:Qt5Widgets.dll
 0002:000005f8       __imp_?dragMoveEvent@QWidget@@MAEXPAVQDragMoveEvent@@@Z 004245f8     Qt5Widgets:Qt5Widgets.dll
 0002:000005fc       __imp_?dragLeaveEvent@QWidget@@MAEXPAVQDragLeaveEvent@@@Z 004245fc     Qt5Widgets:Qt5Widgets.dll
 0002:00000600       __imp_?dragEnterEvent@QWidget@@MAEXPAVQDragEnterEvent@@@Z 00424600     Qt5Widgets:Qt5Widgets.dll
 0002:00000604       __imp_?devType@QWidget@@UBEHXZ 00424604     Qt5Widgets:Qt5Widgets.dll
 0002:00000608       __imp_?contextMenuEvent@QWidget@@MAEXPAVQContextMenuEvent@@@Z 00424608     Qt5Widgets:Qt5Widgets.dll
 0002:0000060c       __imp_?closeEvent@QWidget@@MAEXPAVQCloseEvent@@@Z 0042460c     Qt5Widgets:Qt5Widgets.dll
 0002:00000610       __imp_?changeEvent@QWidget@@MAEXPAVQEvent@@@Z 00424610     Qt5Widgets:Qt5Widgets.dll
 0002:00000614       __imp_?actionEvent@QWidget@@MAEXPAVQActionEvent@@@Z 00424614     Qt5Widgets:Qt5Widgets.dll
 0002:00000618       __imp_?drawContents@QSplashScreen@@MAEXPAVQPainter@@@Z 00424618     Qt5Widgets:Qt5Widgets.dll
 0002:0000061c       __imp_?showMessage@QSplashScreen@@QAEXABVQString@@HABVQColor@@@Z 0042461c     Qt5Widgets:Qt5Widgets.dll
 0002:00000620       __imp_?setPixmap@QSplashScreen@@QAEXABVQPixmap@@@Z 00424620     Qt5Widgets:Qt5Widgets.dll
 0002:00000624       __imp_??0QSplashScreen@@QAE@PAVQWidget@@ABVQPixmap@@V?$QFlags@W4WindowType@Qt@@@@@Z 00424624     Qt5Widgets:Qt5Widgets.dll
 0002:00000628       __imp_?setWindowFlags@QWidget@@QAEXV?$QFlags@W4WindowType@Qt@@@@@Z 00424628     Qt5Widgets:Qt5Widgets.dll
 0002:0000062c       __imp_?update@QWidget@@QAEXXZ 0042462c     Qt5Widgets:Qt5Widgets.dll
 0002:00000630       __imp_?rect@QWidget@@QBE?AVQRect@@XZ 00424630     Qt5Widgets:Qt5Widgets.dll
 0002:00000634       __imp_?finish@QSplashScreen@@QAEXPAVQWidget@@@Z 00424634     Qt5Widgets:Qt5Widgets.dll
 0002:00000638       __imp_??1QSplashScreen@@UAE@XZ 00424638     Qt5Widgets:Qt5Widgets.dll
 0002:0000063c       __imp_?show@QWidget@@QAEXXZ 0042463c     Qt5Widgets:Qt5Widgets.dll
 0002:00000640       __imp_?exec@QApplication@@SAHXZ 00424640     Qt5Widgets:Qt5Widgets.dll
 0002:00000644       __imp_??1QApplication@@UAE@XZ 00424644     Qt5Widgets:Qt5Widgets.dll
 0002:00000648       __imp_??0QApplication@@QAE@AAHPAPADH@Z 00424648     Qt5Widgets:Qt5Widgets.dll
 0002:0000064c       \177Qt5Widgets_NULL_THUNK_DATA 0042464c     Qt5Widgets:Qt5Widgets.dll
 0002:00000650       __imp__CommandLineToArgvW@8 00424650     shell32:SHELL32.dll
 0002:00000654       \177SHELL32_NULL_THUNK_DATA 00424654     shell32:SHELL32.dll
 0002:00000658       __imp___except_handler4_common 00424658     vcruntime:VCRUNTIME140.dll
 0002:0000065c       __imp__memset              0042465c     vcruntime:VCRUNTIME140.dll
 0002:00000660       __imp____std_exception_destroy 00424660     vcruntime:VCRUNTIME140.dll
 0002:00000664       __imp____std_exception_copy 00424664     vcruntime:VCRUNTIME140.dll
 0002:00000668       __imp__memcpy              00424668     vcruntime:VCRUNTIME140.dll
 0002:0000066c       __imp____CxxFrameHandler3  0042466c     vcruntime:VCRUNTIME140.dll
 0002:00000670       __imp___CxxThrowException@8 00424670     vcruntime:VCRUNTIME140.dll
 0002:00000674       __imp____std_terminate     00424674     vcruntime:VCRUNTIME140.dll
 0002:00000678       __imp___purecall           00424678     vcruntime:VCRUNTIME140.dll
 0002:0000067c       \177VCRUNTIME140_NULL_THUNK_DATA 0042467c     vcruntime:VCRUNTIME140.dll
 0002:00000680       __imp___callnewh           00424680     ucrt:api-ms-win-crt-heap-l1-1-0.dll
 0002:00000684       __imp___set_new_mode       00424684     ucrt:api-ms-win-crt-heap-l1-1-0.dll
 0002:00000688       __imp__free                00424688     ucrt:api-ms-win-crt-heap-l1-1-0.dll
 0002:0000068c       __imp__malloc              0042468c     ucrt:api-ms-win-crt-heap-l1-1-0.dll
 0002:00000690       \177api-ms-win-crt-heap-l1-1-0_NULL_THUNK_DATA 00424690     ucrt:api-ms-win-crt-heap-l1-1-0.dll
 0002:00000694       __imp___configthreadlocale 00424694     ucrt:api-ms-win-crt-locale-l1-1-0.dll
 0002:00000698       \177api-ms-win-crt-locale-l1-1-0_NULL_THUNK_DATA 00424698     ucrt:api-ms-win-crt-locale-l1-1-0.dll
 0002:0000069c       __imp____setusermatherr    0042469c     ucrt:api-ms-win-crt-math-l1-1-0.dll
 0002:000006a0       \177api-ms-win-crt-math-l1-1-0_NULL_THUNK_DATA 004246a0     ucrt:api-ms-win-crt-math-l1-1-0.dll
 0002:000006a4       __imp___c_exit             004246a4     ucrt:api-ms-win-crt-runtime-l1-1-0.dll
 0002:000006a8       __imp__exit                004246a8     ucrt:api-ms-win-crt-runtime-l1-1-0.dll
 0002:000006ac       __imp___controlfp_s        004246ac     ucrt:api-ms-win-crt-runtime-l1-1-0.dll
 0002:000006b0       __imp__terminate           004246b0     ucrt:api-ms-win-crt-runtime-l1-1-0.dll
 0002:000006b4       __imp___configure_narrow_argv 004246b4     ucrt:api-ms-win-crt-runtime-l1-1-0.dll
 0002:000006b8       __imp___initialize_narrow_environment 004246b8     ucrt:api-ms-win-crt-runtime-l1-1-0.dll
 0002:000006bc       __imp___initialize_onexit_table 004246bc     ucrt:api-ms-win-crt-runtime-l1-1-0.dll
 0002:000006c0       __imp___exit               004246c0     ucrt:api-ms-win-crt-runtime-l1-1-0.dll
 0002:000006c4       __imp___crt_atexit         004246c4     ucrt:api-ms-win-crt-runtime-l1-1-0.dll
 0002:000006c8       __imp___cexit              004246c8     ucrt:api-ms-win-crt-runtime-l1-1-0.dll
 0002:000006cc       __imp___seh_filter_exe     004246cc     ucrt:api-ms-win-crt-runtime-l1-1-0.dll
 0002:000006d0       __imp___set_app_type       004246d0     ucrt:api-ms-win-crt-runtime-l1-1-0.dll
 0002:000006d4       __imp___register_thread_local_exe_atexit_callback 004246d4     ucrt:api-ms-win-crt-runtime-l1-1-0.dll
 0002:000006d8       __imp___get_narrow_winmain_command_line 004246d8     ucrt:api-ms-win-crt-runtime-l1-1-0.dll
 0002:000006dc       __imp___initterm           004246dc     ucrt:api-ms-win-crt-runtime-l1-1-0.dll
 0002:000006e0       __imp___initterm_e         004246e0     ucrt:api-ms-win-crt-runtime-l1-1-0.dll
 0002:000006e4       __imp___register_onexit_function 004246e4     ucrt:api-ms-win-crt-runtime-l1-1-0.dll
 0002:000006e8       \177api-ms-win-crt-runtime-l1-1-0_NULL_THUNK_DATA 004246e8     ucrt:api-ms-win-crt-runtime-l1-1-0.dll
 0002:000006ec       __imp___set_fmode          004246ec     ucrt:api-ms-win-crt-stdio-l1-1-0.dll
 0002:000006f0       __imp____acrt_iob_func     004246f0     ucrt:api-ms-win-crt-stdio-l1-1-0.dll
 0002:000006f4       __imp____p__commode        004246f4     ucrt:api-ms-win-crt-stdio-l1-1-0.dll
 0002:000006f8       \177api-ms-win-crt-stdio-l1-1-0_NULL_THUNK_DATA 004246f8     ucrt:api-ms-win-crt-stdio-l1-1-0.dll
 0002:000006fc       __imp_?start@PluginFramework@ExtensionSystem@@QAEXXZ 004246fc     pluginframework:pluginframework.dll
 0002:00000700       __imp_?setAppProfile@PluginFramework@ExtensionSystem@@QAEXABVQString@@_N@Z 00424700     pluginframework:pluginframework.dll
 0002:00000704       __imp_?metaObject@PluginFramework@ExtensionSystem@@UBEPBUQMetaObject@@XZ 00424704     pluginframework:pluginframework.dll
 0002:00000708       __imp_?qt_metacall@PluginFramework@ExtensionSystem@@UAEHW4Call@QMetaObject@@HPAPAX@Z 00424708     pluginframework:pluginframework.dll
 0002:0000070c       __imp_?setWatchingPluginDirEnable@PluginFramework@ExtensionSystem@@QAEX_N@Z 0042470c     pluginframework:pluginframework.dll
 0002:00000710       __imp_?setLoadEnabledPluginOnly@PluginFramework@ExtensionSystem@@QAEX_N@Z 00424710     pluginframework:pluginframework.dll
 0002:00000714       __imp_?qt_metacast@PluginFramework@ExtensionSystem@@UAEPAXPBD@Z 00424714     pluginframework:pluginframework.dll
 0002:00000718       __imp_?action@PluginEvent@ExtensionSystem@@QBE?AW4Action@12@XZ 00424718     pluginframework:pluginframework.dll
 0002:0000071c       __imp_?symbolic@PluginEvent@ExtensionSystem@@QBE?AVQString@@XZ 0042471c     pluginframework:pluginframework.dll
 0002:00000720       __imp_?initIndex@PluginEvent@ExtensionSystem@@QBEHXZ 00424720     pluginframework:pluginframework.dll
 0002:00000724       __imp_?pluginSize@PluginEvent@ExtensionSystem@@QBEHXZ 00424724     pluginframework:pluginframework.dll
 0002:00000728       __imp_?init@PluginFramework@ExtensionSystem@@QAEXXZ 00424728     pluginframework:pluginframework.dll
 0002:0000072c       __imp_??1PluginFramework@ExtensionSystem@@UAE@XZ 0042472c     pluginframework:pluginframework.dll
 0002:00000730       __imp_??0PluginFramework@ExtensionSystem@@QAE@PAVQObject@@@Z 00424730     pluginframework:pluginframework.dll
 0002:00000734       \177pluginframework_NULL_THUNK_DATA 00424734     pluginframework:pluginframework.dll
 0002:00000738       ___guard_check_icall_fptr  00424738     MSVCRT:guard_support.obj
 0002:0000073c       ___xc_a                    0042473c     MSVCRT:initializers.obj
 0002:000007ec       ___xc_z                    004247ec     MSVCRT:initializers.obj
 0002:000007f0       ___xi_a                    004247f0     MSVCRT:initializers.obj
 0002:000007fc       ___xi_z                    004247fc     MSVCRT:initializers.obj
 0002:00000800       ___xp_a                    00424800     MSVCRT:initializers.obj
 0002:00000804       ___xp_z                    00424804     MSVCRT:initializers.obj
 0002:00000808       ___xt_a                    00424808     MSVCRT:initializers.obj
 0002:0000080c       ___xt_z                    0042480c     MSVCRT:initializers.obj
 0002:00000814       ??_7LogObject@Log4Qt@@6B@  00424814     appenderskeleton.obj
 0002:00000848       ??_7AppenderSkeleton@Log4Qt@@6B@ 00424848     appenderskeleton.obj
 0002:000008ac       ??_C@_0CH@OOBHEMLD@APPENDER_ACTIVATE_MISSING_LAYOUT@ 004248ac     appenderskeleton.obj
 0002:000008d8       ??_C@_0EH@HEKEFHIC@Activation?5of?5appender?5?8?$CF1?8?5that@ 004248d8     appenderskeleton.obj
 0002:00000920       ??_C@_0CE@BBKAJLBE@Adding?5null?5Filter?5to?5Appender?5?8@ 00424920     appenderskeleton.obj
 0002:00000944       ??_C@_0BN@IIBAALEJ@APPENDER_NOT_ACTIVATED_ERROR?$AA@ 00424944     appenderskeleton.obj
 0002:00000964       ??_C@_0CD@NCFEIBIE@Use?5of?5non?5activated?5appender?5?8?$CF@ 00424964     appenderskeleton.obj
 0002:00000988       ??_C@_0BG@FMLLOMFD@APPENDER_CLOSED_ERROR?$AA@ 00424988     appenderskeleton.obj
 0002:000009a0       ??_C@_0BM@NDKPCB@Use?5of?5closed?5appender?5?8?$CF1?8?$AA@ 004249a0     appenderskeleton.obj
 0002:000009bc       ??_C@_0CC@LIFDHLGB@APPENDER_USE_MISSING_LAYOUT_ERRO@ 004249bc     appenderskeleton.obj
 0002:000009e0       ??_C@_0EA@PKIPBBGB@Use?5of?5appender?5?8?$CF1?8?5that?5requir@ 004249e0     appenderskeleton.obj
 0002:00000a20       ??_C@_06GKOMLONN@Log4Qt?$AA@ 00424a20     basicconfigurator.obj
 0002:00000a2c       ??_7ConsoleAppender@Log4Qt@@6B@ 00424a2c     consoleappender.obj
 0002:00000a98       ??_SQTextStream@@6B@       00424a98     consoleappender.obj
 0002:00000a9c       ??_C@_0O@MJEFNHBK@STDOUT_TARGET?$AA@ 00424a9c     consoleappender.obj
 0002:00000aac       ??_C@_0O@LKCMONGN@STDERR_TARGET?$AA@ 00424aac     consoleappender.obj
 0002:00000abc       ??_C@_06DNBFFLKD@STDOUT?$AA@ 00424abc     consoleappender.obj
 0002:00000ac4       ??_C@_06BLNAKME@STDERR?$AA@ 00424ac4     consoleappender.obj
 0002:00000acc       ??_C@_0BB@DPOFPCIE@ConsoleAppender?$CI?$AA@ 00424acc     consoleappender.obj
 0002:00000ae0       ??_C@_05HKGIJGOH@name?3?$AA@ 00424ae0     consoleappender.obj
 0002:00000ae8       ??_C@_01CLKCMJKC@?5?$AA@   00424ae8     consoleappender.obj
 0002:00000aec       ??_C@_07JPDHGMME@filter?3?$AA@ 00424aec     consoleappender.obj
 0002:00000af4       ??_C@_09HPMGMDGH@isactive?3?$AA@ 00424af4     consoleappender.obj
 0002:00000b00       ??_C@_09MLIEFLMO@isclosed?3?$AA@ 00424b00     consoleappender.obj
 0002:00000b0c       ??_C@_07CNKHCAPN@layout?3?$AA@ 00424b0c     consoleappender.obj
 0002:00000b14       ??_C@_07IIFHOGPO@target?3?$AA@ 00424b14     consoleappender.obj
 0002:00000b1c       ??_C@_0BA@FJKHGMIL@referencecount?3?$AA@ 00424b1c     consoleappender.obj
 0002:00000b2c       ??_C@_0L@GHCPDMEJ@threshold?3?$AA@ 00424b2c     consoleappender.obj
 0002:00000b38       ??_C@_01PKGAHCOL@?$CJ?$AA@ 00424b38     consoleappender.obj
 0002:00000b40       ??_7DailyRollingFileAppender@Log4Qt@@6B@ 00424b40     dailyrollingfileappender.obj
 0002:00000ba8       ??_C@_0O@GCCIHLKJ@?8?4?8yyyy?9MM?9dd?$AA@ 00424ba8     dailyrollingfileappender.obj
 0002:00000bb8       ??_C@_0CD@PGHAAELE@APPENDER_USE_INVALID_PATTERN_ERR@ 00424bb8     dailyrollingfileappender.obj
 0002:00000bdc       ??_C@_0DN@KJEDFFGP@Use?5of?5appender?5?8?$CF1?8?5without?5hav@ 00424bdc     dailyrollingfileappender.obj
 0002:00000c1c       ??_C@_0BK@ODKNGBBH@DailyRollingFileAppender?$CI?$AA@ 00424c1c     dailyrollingfileappender.obj
 0002:00000c38       ??_C@_0BD@NMHALCLF@activedatepattern?3?$AA@ 00424c38     dailyrollingfileappender.obj
 0002:00000c4c       ??_C@_0M@MDBALGHK@appendfile?3?$AA@ 00424c4c     dailyrollingfileappender.obj
 0002:00000c58       ??_C@_0M@MLMNHDPL@bufferedio?3?$AA@ 00424c58     dailyrollingfileappender.obj
 0002:00000c64       ??_C@_0N@GHHBLHPB@datepattern?3?$AA@ 00424c64     dailyrollingfileappender.obj
 0002:00000c74       ??_C@_09CIAPECED@encoding?3?$AA@ 00424c74     dailyrollingfileappender.obj
 0002:00000c80       ??_C@_0L@DPNKGPCK@frequency?3?$AA@ 00424c80     dailyrollingfileappender.obj
 0002:00000c8c       ??_C@_05BOPHDICO@file?3?$AA@ 00424c8c     dailyrollingfileappender.obj
 0002:00000c94       ??_C@_0BA@NGJMKIHD@immediateflush?3?$AA@ 00424c94     dailyrollingfileappender.obj
 0002:00000ca4       ??_C@_0O@JNJBPDDF@rollovertime?3?$AA@ 00424ca4     dailyrollingfileappender.obj
 0002:00000cb4       ??_C@_07BKDCAEPG@writer?3?$AA@ 00424cb4     dailyrollingfileappender.obj
 0002:00000cbc       ??_C@_0BP@IAMBBDPC@APPENDER_INVALID_PATTERN_ERROR?$AA@ 00424cbc     dailyrollingfileappender.obj
 0002:00000ce0       ??_C@_0EA@JEGDDHLB@The?5pattern?5?8?$CF1?8?5does?5not?5specif@ 00424ce0     dailyrollingfileappender.obj
 0002:00000d20       ??_C@_0CK@HEDNMJFN@Frequency?5set?5to?5?$CF2?5using?5date?5p@ 00424d20     dailyrollingfileappender.obj
 0002:00000d50       ??_C@_0FK@NDHMHDEE@Computing?5roll?5over?5time?5from?5?$CF1@ 00424d50     dailyrollingfileappender.obj
 0002:00000dac       ??_C@_0M@ILLGFNIH@DatePattern?$AA@ 00424dac     dailyrollingfileappender.obj
 0002:00000dbc       ??_7FileAppender@Log4Qt@@6B@ 00424dbc     fileappender.obj
 0002:00000e2c       ??_SQFile@@6B@             00424e2c     fileappender.obj
 0002:00000ea8       ??_C@_0CF@GMHPDJIH@APPENDER_ACTIVATE_MISSING_FILE_E@ 00424ea8     fileappender.obj
 0002:00000ed0       ??_C@_0ED@FEDLGGGH@Activation?5of?5Appender?5?8?$CF1?8?5that@ 00424ed0     fileappender.obj
 0002:00000f14       ??_C@_0BM@PCEAKIEH@APPENDER_NO_OPEN_FILE_ERROR?$AA@ 00424f14     fileappender.obj
 0002:00000f30       ??_C@_0CH@GEKAFAEI@Use?5of?5appender?5?8?$CF1?8?5without?5ope@ 00424f30     fileappender.obj
 0002:00000f58       ??_C@_0CE@MIGKEMFP@Closing?5file?5?8?$CF1?8?5for?5appender?5?8@ 00424f58     fileappender.obj
 0002:00000f7c       ??_C@_0O@LOBLAGKB@FileAppender?$CI?$AA@ 00424f7c     fileappender.obj
 0002:00000f8c       ??_C@_0BM@BEGNBPBA@APPENDER_WRITING_FILE_ERROR?$AA@ 00424f8c     fileappender.obj
 0002:00000fa8       ??_C@_0CP@PNNLADHL@Unable?5to?5write?5to?5file?5?8?$CF1?8?5for@ 00424fa8     fileappender.obj
 0002:00000fd8       ??_C@_0CO@CPAKMEJG@Creating?5missing?5parent?5director@ 00424fd8     fileappender.obj
 0002:00001008       ??_C@_0BM@IMNGLOPP@APPENDER_OPENING_FILE_ERROR?$AA@ 00425008     fileappender.obj
 0002:00001024       ??_C@_0CL@GJBFGJAA@Unable?5to?5open?5file?5?8?$CF1?8?5for?5app@ 00425024     fileappender.obj
 0002:00001050       ??_C@_0CD@DKJJOJAA@Opened?5file?5?8?$CF1?8?5for?5appender?5?8?$CF@ 00425050     fileappender.obj
 0002:00001074       ??_C@_0BL@IAJKDIGP@APPENDER_REMOVE_FILE_ERROR?$AA@ 00425074     fileappender.obj
 0002:00001090       ??_C@_0CN@EMDDLDCI@Unable?5to?5remove?5file?5?8?$CF1?8?5for?5a@ 00425090     fileappender.obj
 0002:000010c0       ??_C@_0BL@GFCPIBDO@Renaming?5file?5?8?$CF1?8?5to?5?8?$CF2?8?$AA@ 004250c0     fileappender.obj
 0002:000010dc       ??_C@_0BN@CECDKJJJ@APPENDER_RENAMING_FILE_ERROR?$AA@ 004250dc     fileappender.obj
 0002:000010fc       ??_C@_0DF@MENEJGCP@Unable?5to?5rename?5file?5?8?$CF1?8?5to?5?8?$CF@ 004250fc     fileappender.obj
 0002:00001138       ??_7ConfiguratorHelper@Log4Qt@@6B@ 00425138     configuratorhelper.obj
 0002:00001164       ??_C@_04OKGDLNCL@NONE?$AA@ 00425164     datetime.obj
 0002:0000116c       ??_C@_0O@NPPBHDMI@TIME_RELATIVE?$AA@ 0042516c     datetime.obj
 0002:0000117c       ??_C@_07OGBLAENL@ISO8601?$AA@ 0042517c     datetime.obj
 0002:00001184       ??_C@_0BI@CCALEHOF@yyyy?9MM?9dd?5hh?3mm?3ss?4zzz?$AA@ 00425184     datetime.obj
 0002:0000119c       ??_C@_0O@KCDOGJDI@TIME_ABSOLUTE?$AA@ 0042519c     datetime.obj
 0002:000011ac       ??_C@_0N@NAGEJHBF@HH?3mm?3ss?4zzz?$AA@ 004251ac     datetime.obj
 0002:000011bc       ??_C@_04FBLNPEBP@DATE?$AA@ 004251bc     datetime.obj
 0002:000011c4       ??_C@_0BK@BDAPHIPI@dd?5MMM?5YYYY?5HH?3mm?3ss?4zzzz?$AA@ 004251c4     datetime.obj
 0002:000011e0       ??_C@_0P@GEIMJNH@?8dMyhHmszAPapw?$AA@ 004251e0     datetime.obj
 0002:000011f0       ??_C@_04KPGEHEGE@dddd?$AA@ 004251f0     datetime.obj
 0002:000011f8       ??_C@_03CELAINOI@ddd?$AA@  004251f8     datetime.obj
 0002:000011fc       ??_C@_02EOPBOLLC@dd?$AA@   004251fc     datetime.obj
 0002:00001200       ??_C@_04MNFFDLCB@MMMM?$AA@ 00425200     datetime.obj
 0002:00001208       ??_C@_03IKFAIPNI@MMM?$AA@  00425208     datetime.obj
 0002:0000120c       ??_C@_02DNCLAJDG@MM?$AA@   0042520c     datetime.obj
 0002:00001210       ??_C@_04HOPFPECK@yyyy?$AA@ 00425210     datetime.obj
 0002:00001218       ??_C@_02KFGDLHIN@yy?$AA@   00425218     datetime.obj
 0002:0000121c       ??_C@_02OLFOFNNK@hh?$AA@   0042521c     datetime.obj
 0002:00001220       ??_C@_02EGJHDPJI@HH?$AA@   00425220     datetime.obj
 0002:00001224       ??_C@_02JAOCGLHE@mm?$AA@   00425224     datetime.obj
 0002:00001228       ??_C@_02FCBLNKNB@ss?$AA@   00425228     datetime.obj
 0002:0000122c       ??_C@_03FGIPBMOB@zzz?$AA@  0042522c     datetime.obj
 0002:00001230       ??_C@_02DEDBPAFC@AM?$AA@   00425230     datetime.obj
 0002:00001234       ??_C@_02CJNFDJBF@PM?$AA@   00425234     datetime.obj
 0002:00001238       ??_C@_02DBHOLHAJ@ww?$AA@   00425238     datetime.obj
 0002:0000123c       ??_C@_04DDKJGDCM@bool?$AA@ 0042523c     factory.obj
 0002:00001244       ??_C@_03JBIPMCLC@int?$AA@  00425244     factory.obj
 0002:00001248       ??_C@_06FOOEDBLO@qint64?$AA@ 00425248     factory.obj
 0002:0000124f       ??_C@_00CNPNBAHC@?$AA@     0042524f     factory.obj
 0002:00001250       ??_C@_07CMBGHPFP@QString?$AA@ 00425250     factory.obj
 0002:00001258       ??_C@_0O@KLDNHIJK@Log4Qt?3?3Level?$AA@ 00425258     factory.obj
 0002:0000126c       ??_7Layout@Log4Qt@@6B@     0042526c     factory.obj
 0002:000012ac       ??_7SimpleLayout@Log4Qt@@6B@ 004252ac     factory.obj
 0002:000012ec       ??_7DebugAppender@Log4Qt@@6B@ 004252ec     factory.obj
 0002:00001354       ??_7Filter@Log4Qt@@6B@     00425354     factory.obj
 0002:00001390       ??_7DenyAllFilter@Log4Qt@@6B@ 00425390     factory.obj
 0002:000013c8       ??_C@_0BA@FFJPEAN@Log4Qt?3?3Factory?$AA@ 004253c8     factory.obj
 0002:000013d8       ??_C@_0EO@EGOGDLGO@Request?5for?5the?5creation?5of?5Appe@ 004253d8     factory.obj
 0002:00001428       ??_C@_0EM@FCAIIGBC@Request?5for?5the?5creation?5of?5Layo@ 00425428     factory.obj
 0002:00001474       ??_C@_0DM@JPPPNELF@Setting?5property?5?8?$CF1?8?5on?5object?5@ 00425474     factory.obj
 0002:000014b0       ??_C@_09CPGINHIB@qlonglong?$AA@ 004254b0     factory.obj
 0002:000014bc       ??_C@_0CA@PGGBMNJC@CONFIGURATOR_UNKNOWN_TYPE_ERROR?$AA@ 004254bc     factory.obj
 0002:000014e0       ??_C@_0EG@LLLNBGAK@Cannot?5convert?5to?5type?5?8?$CF1?8?5for?5@ 004254e0     factory.obj
 0002:00001528       ??_C@_0DC@CAGOENPM@Unxpected?5error?5result?5from?5QMet@ 00425528     factory.obj
 0002:0000155c       ??_C@_0CB@ONLMDPP@org?4apache?4log4j?4ConsoleAppender@ 0042555c     factory.obj
 0002:00001580       ??_C@_0BI@GEFPJDEO@Log4Qt?3?3ConsoleAppender?$AA@ 00425580     factory.obj
 0002:00001598       ??_C@_0CK@MIJFJBLA@org?4apache?4log4j?4DailyRollingFil@ 00425598     factory.obj
 0002:000015c4       ??_C@_0CB@BHJKFEHF@Log4Qt?3?3DailyRollingFileAppender@ 004255c4     factory.obj
 0002:000015e8       ??_C@_0CF@CBHPICBC@org?4apache?4log4j?4varia?4DebugAppe@ 004255e8     factory.obj
 0002:00001610       ??_C@_0BG@KEDOAINJ@Log4Qt?3?3DebugAppender?$AA@ 00425610     factory.obj
 0002:00001628       ??_C@_0BO@CNONPDPG@org?4apache?4log4j?4FileAppender?$AA@ 00425628     factory.obj
 0002:00001648       ??_C@_0BF@LGPCPCGE@Log4Qt?3?3FileAppender?$AA@ 00425648     factory.obj
 0002:00001660       ??_C@_0CE@FNHFFNML@org?4apache?4log4j?4varia?4ListAppen@ 00425660     factory.obj
 0002:00001684       ??_C@_0BF@HJMPEOJJ@Log4Qt?3?3ListAppender?$AA@ 00425684     factory.obj
 0002:0000169c       ??_C@_0CE@DNEMLJOM@org?4apache?4log4j?4varia?4NullAppen@ 0042569c     factory.obj
 0002:000016c0       ??_C@_0BF@BJPGKKLO@Log4Qt?3?3NullAppender?$AA@ 004256c0     factory.obj
 0002:000016d8       ??_C@_0CF@IELGJNLM@org?4apache?4log4j?4RollingFileAppe@ 004256d8     factory.obj
 0002:00001700       ??_C@_0BM@LPEMEPPK@Log4Qt?3?3RollingFileAppender?$AA@ 00425700     factory.obj
 0002:0000171c       ??_C@_0CF@KCCODLLP@org?4apache?4log4j?4varia?4DenyAllFi@ 0042571c     factory.obj
 0002:00001744       ??_C@_0BG@CHGPLBHE@Log4Qt?3?3DenyAllFilter?$AA@ 00425744     factory.obj
 0002:0000175c       ??_C@_0CI@OOEMLFIC@org?4apache?4log4j?4varia?4LevelMatc@ 0042575c     factory.obj
 0002:00001784       ??_C@_0BJ@LDABMNGB@Log4Qt?3?3LevelMatchFilter?$AA@ 00425784     factory.obj
 0002:000017a0       ??_C@_0CI@GGKFJCPD@org?4apache?4log4j?4varia?4LevelRang@ 004257a0     factory.obj
 0002:000017c8       ??_C@_0BJ@DLOIOKBA@Log4Qt?3?3LevelRangeFilter?$AA@ 004257c8     factory.obj
 0002:000017e4       ??_C@_0CJ@ONEBIMM@org?4apache?4log4j?4varia?4StringMat@ 004257e4     factory.obj
 0002:00001810       ??_C@_0BK@DHIKOGHG@Log4Qt?3?3StringMatchFilter?$AA@ 00425810     factory.obj
 0002:0000182c       ??_C@_0BP@OGDPOBOL@org?4apache?4log4j?4PatternLayout?$AA@ 0042582c     factory.obj
 0002:0000184c       ??_C@_0BG@PIKFAMIC@Log4Qt?3?3PatternLayout?$AA@ 0042584c     factory.obj
 0002:00001864       ??_C@_0BO@HIMGGMLN@org?4apache?4log4j?4SimpleLayout?$AA@ 00425864     factory.obj
 0002:00001884       ??_C@_0BF@ODNJGNCP@Log4Qt?3?3SimpleLayout?$AA@ 00425884     factory.obj
 0002:0000189c       ??_C@_0BM@GMDEHOOM@org?4apache?4log4j?4TTCCLayout?$AA@ 0042589c     factory.obj
 0002:000018b8       ??_C@_0BD@BODNBACG@Log4Qt?3?3TTCCLayout?$AA@ 004258b8     factory.obj
 0002:000018cc       ??_C@_0BM@BBGHGFPC@CONFIGURATOR_PROPERTY_ERROR?$AA@ 004258cc     factory.obj
 0002:000018e8       ??_C@_0CH@CBDMDLJH@Unable?5to?5set?5property?5value?5on?5@ 004258e8     factory.obj
 0002:00001910       ??_C@_01GBGANLPD@0?$AA@    00425910     factory.obj
 0002:00001914       ??_C@_0BM@CGEGOFLD@Invalid?5null?5object?5pointer?$AA@ 00425914     factory.obj
 0002:00001930       ??_C@_0BM@KCOKBPDN@Invalid?5empty?5property?5name?$AA@ 00425930     factory.obj
 0002:0000194c       ??_C@_0CL@MJKCLAEJ@Property?5?8?$CF1?8?5does?5not?5exist?5in?5@ 0042594c     factory.obj
 0002:00001978       ??_C@_0CM@ODHILFGE@Property?5?8?$CF1?8?5is?5not?5writable?5in@ 00425978     factory.obj
 0002:000019a4       ??_C@_02KEGNLNML@?0?5?$AA@ 004259a4     factory.obj
 0002:000019ac       ??_7InitialisationHelper@Log4Qt@@6B@ 004259ac     initialisationhelper.obj
 0002:000019b0       ??_C@_0BB@FIKLNKHL@Log4Qt?3?3LogError?$AA@ 004259b0     initialisationhelper.obj
 0002:000019c4       ??_C@_0BF@DKKDBEO@Log4Qt?3?3LoggingEvent?$AA@ 004259c4     initialisationhelper.obj
 0002:000019dc       ??_C@_05GCIPIGEI@Debug?$AA@ 004259dc     initialisationhelper.obj
 0002:000019e4       ??_C@_0BE@NLKCKLAO@DefaultInitOverride?$AA@ 004259e4     initialisationhelper.obj
 0002:000019f8       ??_C@_0O@PIILMNHI@Configuration?$AA@ 004259f8     initialisationhelper.obj
 0002:00001a08       ??_C@_0BC@KKEEKCLJ@ConfiguratorClass?$AA@ 00425a08     initialisationhelper.obj
 0002:00001a1c       ??_C@_07JMGPMOCE@log4qt_?$AA@ 00425a1c     initialisationhelper.obj
 0002:00001a24       ??_C@_02LMMGGCAJ@?3?5?$AA@ 00425a24     logerror.obj
 0002:00001a28       ??_C@_02MOLJINC@?3?3?$AA@  00425a28     logerror.obj
 0002:00001a2c       ??_C@_02GFKOMOKH@?5?$CI?$AA@ 00425a2c     logerror.obj
 0002:00001a30       ??_C@_05LAPONLG@false?$AA@ 00425a30     optionconverter.obj
 0002:00001a38       ??_C@_04LOAJBDKD@true?$AA@ 00425a38     optionconverter.obj
 0002:00001a40       ??_C@_0BI@EGLOJCAH@Log4Qt?3?3OptionConverter?$AA@ 00425a40     optionconverter.obj
 0002:00001a58       ??_C@_02PDDBGIOM@$?$HL?$AA@ 00425a58     optionconverter.obj
 0002:00001a5c       ??_C@_01CELHOKLL@?$HN?$AA@ 00425a5c     optionconverter.obj
 0002:00001a60       ??_C@_0CI@BAPMGEPM@CONFIGURATOR_INVALID_SUBSTITUTIO@ 00425a60     optionconverter.obj
 0002:00001a88       ??_C@_0FE@EHKDDMLN@Missing?5closing?5bracket?5for?5open@ 00425a88     optionconverter.obj
 0002:00001adc       ??_C@_01LFCBOECM@?4?$AA@   00425adc     optionconverter.obj
 0002:00001ae0       ??_C@_07MHHIKOPA@enabled?$AA@ 00425ae0     optionconverter.obj
 0002:00001ae8       ??_C@_01HIHLOKLC@1?$AA@    00425ae8     optionconverter.obj
 0002:00001aec       ??_C@_08BEHKFNNO@disabled?$AA@ 00425aec     optionconverter.obj
 0002:00001af8       ??_C@_0CC@HLHMEFBH@CONFIGURATOR_INVALID_OPTION_ERRO@ 00425af8     optionconverter.obj
 0002:00001b1c       ??_C@_0CJ@IPMDNCF@Invalid?5option?5string?5?8?$CF1?8?5for?5a@ 00425b1c     optionconverter.obj
 0002:00001b48       ??_C@_02BDPHALAJ@kb?$AA@   00425b48     optionconverter.obj
 0002:00001b4c       ??_C@_02BHHKHHLL@mb?$AA@   00425b4c     optionconverter.obj
 0002:00001b50       ??_C@_02BKONPCGN@gb?$AA@   00425b50     optionconverter.obj
 0002:00001b54       ??_C@_0CL@EIPDBKCK@Invalid?5option?5string?5?8?$CF1?8?5for?5a@ 00425b54     optionconverter.obj
 0002:00001b80       ??_C@_0CK@IALBBNGE@Invalid?5option?5string?5?8?$CF1?8?5for?5a@ 00425b80     optionconverter.obj
 0002:00001bac       ??_C@_0CJ@CPGOMKNP@Invalid?5option?5string?5?8?$CF1?8?5for?5a@ 00425bac     optionconverter.obj
 0002:00001bd8       ??_C@_0CH@NNGJGKOM@Invalid?5option?5string?5?8?$CF1?8?5for?5a@ 00425bd8     optionconverter.obj
 0002:00001c00       ??_C@_0L@HBOJKLHG@system?4out?$AA@ 00425c00     optionconverter.obj
 0002:00001c0c       ??_C@_0O@OAHFOPLJ@stdout_target?$AA@ 00425c0c     optionconverter.obj
 0002:00001c1c       ??_C@_0L@ENEBPKBB@system?4err?$AA@ 00425c1c     optionconverter.obj
 0002:00001c28       ??_C@_0O@JDBMNFMO@stderr_target?$AA@ 00425c28     optionconverter.obj
 0002:00001c38       ??_C@_0CI@HNMKLOLA@Invalid?5option?5string?5?8?$CF1?8?5for?5a@ 00425c38     optionconverter.obj
 0002:00001c64       ??_7PatternFormatter@Log4Qt@@6B@ 00425c64     patternformatter.obj
 0002:00001c68       ??_C@_0BJ@NCKCPEKA@Log4Qt?3?3PatternFormatter?$AA@ 00425c68     patternformatter.obj
 0002:00001c88       ??_7PatternConverter@Log4Qt@@6B@ 00425c88     patternformatter.obj
 0002:00001c98       ??_7BasicPatternConverter@Log4Qt@@6B@ 00425c98     patternformatter.obj
 0002:00001ca8       ??_7DatePatternConverter@Log4Qt@@6B@ 00425ca8     patternformatter.obj
 0002:00001cb8       ??_7LiteralPatternConverter@Log4Qt@@6B@ 00425cb8     patternformatter.obj
 0002:00001cc8       ??_7LoggerPatternConverter@Log4Qt@@6B@ 00425cc8     patternformatter.obj
 0002:00001cd8       ??_7MDCPatternConverter@Log4Qt@@6B@ 00425cd8     patternformatter.obj
 0002:00001ce4       ??_C@_05FNOFIGCA@CFlLM?$AA@ 00425ce4     patternformatter.obj
 0002:00001cec       ??_C@_08IGDFLCEF@cdmprtxX?$AA@ 00425cec     patternformatter.obj
 0002:00001cf8       ??_C@_02ELLOPNDH@cd?$AA@   00425cf8     patternformatter.obj
 0002:00001d00       ??_C@_0EO@GKBKDNFC@Creating?5Converter?5for?5character@ 00425d00     patternformatter.obj
 0002:00001d50       ??_C@_0DE@OEADKPDN@Creating?5literal?5LiteralConverte@ 00425d50     patternformatter.obj
 0002:00001d84       ??_C@_0BM@ONMMHGJO@LAYOUT_EXPECTED_DIGIT_ERROR?$AA@ 00425d84     patternformatter.obj
 0002:00001da0       ??_C@_0CP@PHKBJHDI@Found?5character?5?8?$CF1?8?5where?5digit@ 00425da0     patternformatter.obj
 0002:00001dd0       ??_C@_0DI@NNIGBJFN@Invalid?5conversion?5character?5?8?$CF1@ 00425dd0     patternformatter.obj
 0002:00001e08       ??_C@_0CA@ENKBOAPC@Unexptected?5end?5of?5pattern?5?8?$CF1?8?$AA@ 00425e08     patternformatter.obj
 0002:00001e28       ??_C@_0BI@NCCPGHGP@Log4Qt?3?3PatterFormatter?$AA@ 00425e28     patternformatter.obj
 0002:00001e40       ??_C@_0CD@EBPHOCLI@LAYOUT_OPTION_IS_NOT_INTEGER_ERR@ 00425e40     patternformatter.obj
 0002:00001e64       ??_C@_0DA@LACIKGOB@Option?5?8?$CF1?8?5cannot?5be?5converted?5@ 00425e64     patternformatter.obj
 0002:00001e94       ??_C@_0CF@JGLDGOEN@LAYOUT_INTEGER_IS_NOT_POSITIVE_E@ 00425e94     patternformatter.obj
 0002:00001ebc       ??_C@_0CD@CPGNHOAP@Option?5?$CF1?5isn?8t?5a?5positive?5integ@ 00425ebc     patternformatter.obj
 0002:00001ee0       ??_C@_07PPCDFFME@INT_MAX?$AA@ 00425ee0     patternformatter.obj
 0002:00001ee8       ??_C@_0BC@PGNAAPLB@MESSAGE_CONVERTER?$AA@ 00425ee8     patternformatter.obj
 0002:00001efc       ??_C@_0O@NKKIAAMN@NDC_CONVERTER?$AA@ 00425efc     patternformatter.obj
 0002:00001f0c       ??_C@_0BA@GNGBLGDF@LEVEL_CONVERTER?$AA@ 00425f0c     patternformatter.obj
 0002:00001f1c       ??_C@_0BB@KGBOAOJG@THREAD_CONVERTER?$AA@ 00425f1c     patternformatter.obj
 0002:00001f30       ??_C@_0BH@IMNKCEBF@BasicPatternConverter?$CI?$AA@ 00425f30     patternformatter.obj
 0002:00001f48       ??_C@_05CKMGOEBL@type?3?$AA@ 00425f48     patternformatter.obj
 0002:00001f50       ??_C@_0BG@BJHCKLGB@DatePatternConverter?$CI?$AA@ 00425f50     patternformatter.obj
 0002:00001f68       ??_C@_07CDCECEAD@format?3?$AA@ 00425f68     patternformatter.obj
 0002:00001f70       ??_C@_0BJ@DGOLJHB@LiteralPatternConverter?$CI?$AA@ 00425f70     patternformatter.obj
 0002:00001f8c       ??_C@_08EIPHIHFE@literal?3?$AA@ 00425f8c     patternformatter.obj
 0002:00001f98       ??_C@_0BI@GFGFFMLC@LoggerPatternConverter?$CI?$AA@ 00425f98     patternformatter.obj
 0002:00001fb0       ??_C@_0L@NDGJJGJF@precision?3?$AA@ 00425fb0     patternformatter.obj
 0002:00001fbc       ??_C@_0BF@IHBBMBPB@MDCPatternConverter?$CI?$AA@ 00425fbc     patternformatter.obj
 0002:00001fd4       ??_C@_04KFEOMECJ@key?3?$AA@ 00425fd4     patternformatter.obj
 0002:00001fdc       ??_C@_08IKIEJLDH@pattern?3?$AA@ 00425fdc     patternformatter.obj
 0002:00001fe8       ??_C@_0BA@ENBDKLAL@FormattingInfo?$CI?$AA@ 00425fe8     patternformatter.obj
 0002:00001ff8       ??_C@_04HJLBDLME@min?3?$AA@ 00425ff8     patternformatter.obj
 0002:00002000       ??_C@_04KEKOMMOJ@max?3?$AA@ 00426000     patternformatter.obj
 0002:00002008       ??_C@_05IMFNPGK@left?3?$AA@ 00426008     patternformatter.obj
 0002:00002010       ??_C@_07HAPKBFDG@tnr?2?$CC?8?5?$AA@ 00426010     properties.obj
 0002:00002018       ??_C@_07MCCCEGJF@?7?6?$AN?2?$CC?8?5?$AA@ 00426018     properties.obj
 0002:00002020       ??_C@_03DNJNKHCF@?5?3?$DN?$AA@ 00426020     properties.obj
 0002:00002024       ?msEscapeChar@Properties@Log4Qt@@0DB 00426024     properties.obj
 0002:00002028       ??_C@_0BD@NCNLJHLK@Log4Qt?3?3Properties?$AA@ 00426028     properties.obj
 0002:0000203c       ??_C@_0BO@MHBGFCAP@No?5device?5specified?5for?5load?4?$AA@ 0042603c     properties.obj
 0002:00002060       ??_C@_0EF@NBGKJJEO@Unknown?5escape?5sequence?5?8?2?$CF1?8?5in@ 00426060     properties.obj
 0002:000020a8       ??_C@_0EH@OFDMOANE@Unknown?5escape?5sequence?5?8?2?$CF1?8?5in@ 004260a8     properties.obj
 0002:000020f0       ??_C@_0DI@OBKOIAEO@Found?5value?5with?5no?5key?5in?5prope@ 004260f0     properties.obj
 0002:00002128       ??_C@_0BM@INIBHGJA@Loaded?5property?5?8?$CF1?8?5?3?5?8?$CF2?8?$AA@ 00426128     properties.obj
 0002:00002148       ??_7Hierarchy@Log4Qt@@6B@  00426148     hierarchy.obj
 0002:00002178       ??_C@_0BJ@ILEPAOKK@Log4Qt?3?3LoggerRepository?$AA@ 00426178     hierarchy.obj
 0002:00002194       ??_C@_0CE@DKELEBHE@Unexpected?5destruction?5of?5Hierar@ 00426194     hierarchy.obj
 0002:000021b8       ??_C@_02CGJDNOJI@Qt?$AA@   004261b8     hierarchy.obj
 0002:000021bc       ??_C@_0L@GANGAPJK@Hierarchy?$CI?$AA@ 004261bc     hierarchy.obj
 0002:000021c8       ??_C@_08BCHAPOCF@loggers?3?$AA@ 004261c8     hierarchy.obj
 0002:000021d4       ??_C@_0M@GKIGLILN@root?9level?3?$AA@ 004261d4     hierarchy.obj
 0002:000021e0       ??_C@_0BA@NPADBALB@root?9appenders?3?$AA@ 004261e0     hierarchy.obj
 0002:000021f0       ??_C@_04NBFCGMPH@root?$AA@ 004261f0     hierarchy.obj
 0002:000021f8       ??_C@_0L@NPNLKGOJ@text?1plain?$AA@ 004261f8     layout.obj
 0002:00002204       ??_C@_02PCIJFNDE@?$AN?6?$AA@ 00426204     layout.obj
 0002:00002208       ??_C@_05KOHFLOFG@Level?$AA@ 00426208     level.obj
 0002:00002210       ??_C@_04HIBGFPH@NULL?$AA@  00426210     level.obj
 0002:00002218       ??_C@_03NIFPGLBG@ALL?$AA@  00426218     level.obj
 0002:0000221c       ??_C@_05EHILDPJH@TRACE?$AA@ 0042621c     level.obj
 0002:00002224       ??_C@_05KOLFGEDA@DEBUG?$AA@ 00426224     level.obj
 0002:0000222c       ??_C@_04BEADLPGM@INFO?$AA@ 0042622c     level.obj
 0002:00002234       ??_C@_04JBIELMDE@WARN?$AA@ 00426234     level.obj
 0002:0000223c       ??_C@_05MBDEGLCK@ERROR?$AA@ 0042623c     level.obj
 0002:00002244       ??_C@_05JLFELJNP@FATAL?$AA@ 00426244     level.obj
 0002:0000224c       ??_C@_03MPPIHBHJ@OFF?$AA@  0042624c     level.obj
 0002:00002250       ??_C@_0ED@LHMMNJIC@Use?5of?5invalid?5level?5string?5?8?$CF1?8@ 00426250     level.obj
 0002:00002294       ??_C@_06NPPLCPNF@Level?$CI?$AA@ 00426294     level.obj
 0002:000022a0       ??_7Logger@Log4Qt@@6B@     004262a0     logger.obj
 0002:000022d4       ??_C@_0CB@CMPOPCGM@Unexpected?5destruction?5of?5Logger@ 004262d4     logger.obj
 0002:000022f8       ??_C@_0DM@GHBMHJFA@Invalid?5root?5logger?5level?5NULL_I@ 004262f8     logger.obj
 0002:00002334       ??_C@_0CE@PKJENOLG@Adding?5null?5Appender?5to?5Logger?5?8@ 00426334     logger.obj
 0002:00002358       ??_C@_0DB@MHKAHNOH@Adding?5of?5duplicate?5appender?5?8?$CF2@ 00426358     logger.obj
 0002:0000238c       ??_C@_0CI@KNMLNLAP@Removing?5all?5appenders?5from?5logg@ 0042638c     logger.obj
 0002:000023b4       ??_C@_0DB@BFLEIDKJ@Request?5to?5remove?5null?5Appender?5@ 004263b4     logger.obj
 0002:000023e8       ??_C@_0EM@JHOJEBK@Request?5to?5remove?5Appender?5?8?$CF2?8?0@ 004263e8     logger.obj
 0002:00002434       ??_C@_07KBCCEKCC@Logger?$CI?$AA@ 00426434     logger.obj
 0002:0000243c       ??_C@_0L@DANFANNH@appenders?3?$AA@ 0042643c     logger.obj
 0002:00002448       ??_C@_0M@BKKFLIGJ@additivity?3?$AA@ 00426448     logger.obj
 0002:00002454       ??_C@_0O@NPNGKPMK@parentLogger?3?$AA@ 00426454     logger.obj
 0002:00002468       ??_7LogManager@Log4Qt@@6B@ 00426468     logmanager.obj
 0002:0000246c       ??_C@_0BD@NAOIJHCJ@Log4Qt?3?3LogManager?$AA@ 0042646c     logmanager.obj
 0002:00002480       ??_C@_0CF@MGAMFEEA@Unexpected?5destruction?5of?5LogMan@ 00426480     logmanager.obj
 0002:000024a8       ??_C@_05DLLNMCMC@0?43?40?$AA@ 004264a8     logmanager.obj
 0002:000024b0       ??_C@_0BN@GGJNCING@Activate?5Qt?5message?5handling?$AA@ 004264b0     logmanager.obj
 0002:000024d0       ??_C@_0BP@NCFNCHOI@Deactivate?5Qt?5message?5handling?$AA@ 004264d0     logmanager.obj
 0002:000024f0       ??_C@_0M@BJPAFFOO@LogLog?5TTCC?$AA@ 004264f0     logmanager.obj
 0002:000024fc       ??_C@_0O@FGCGJFBG@LogLog?5stdout?$AA@ 004264fc     logmanager.obj
 0002:0000250c       ??_C@_0O@GKIOMEHB@LogLog?5stderr?$AA@ 0042650c     logmanager.obj
 0002:0000251c       ??_C@_0DM@ICOHNAHD@DefaultInitOverride?5is?5set?4?5Abor@ 0042651c     logmanager.obj
 0002:00002558       ??_C@_0EI@FDBBLOKN@Default?5initialisation?5configure@ 00426558     logmanager.obj
 0002:000025a0       ??_C@_0L@KOOGALIH@Properties?$AA@ 004265a0     logmanager.obj
 0002:000025ac       ??_C@_0BC@JJOGNBKH@Log4Qt?1Properties?$AA@ 004265ac     logmanager.obj
 0002:000025c0       ??_C@_0DH@JFALDDPE@Default?5initialisation?5configure@ 004265c0     logmanager.obj
 0002:000025f8       ??_C@_0BC@BEPNNCPH@log4qt?4properties?$AA@ 004265f8     logmanager.obj
 0002:0000260c       ??_C@_0DJ@ILFMLHEC@Default?5initialisation?5configure@ 0042660c     logmanager.obj
 0002:00002648       ??_C@_0DD@CEKJNBDB@Default?5initialisation?5leaves?5pa@ 00426648     logmanager.obj
 0002:0000267c       ??_C@_0BH@HEFNBNGL@Initialising?5Log4Qt?5?$CF1?$AA@ 0042667c     logmanager.obj
 0002:00002694       ??_C@_0CD@MMAJEPKM@Program?5startup?5time?5is?5?$CF1?5?$CIUTC?$CF@ 00426694     logmanager.obj
 0002:000026b8       ??_C@_0CD@LPBCPLGG@Internal?5logging?5uses?5the?5level?5@ 004266b8     logmanager.obj
 0002:000026dc       ??_C@_0CG@LDKEDKPK@Settings?5from?5the?5system?5environ@ 004266dc     logmanager.obj
 0002:00002704       ??_C@_0N@BJMOBNB@?5?5?5?5?$CF1?3?5?8?$CF2?8?$AA@ 00426704     logmanager.obj
 0002:00002714       ??_C@_0CI@OCGLAKNA@Settings?5from?5the?5application?5se@ 00426714     logmanager.obj
 0002:0000273c       ??_C@_07PNJHFPLM@?5?5?5?5?$CF1?3?$AA@ 0042673c     logmanager.obj
 0002:00002744       ??_C@_0BB@LLDKFJCP@?5?5?5?5?5?5?5?5?$CF1?3?5?8?$CF2?8?$AA@ 00426744     logmanager.obj
 0002:00002758       ??_C@_0L@KCKGOIIM@?5?5?5?5?$CF1?1?$CF2?3?$AA@ 00426758     logmanager.obj
 0002:00002764       ??_C@_0DC@BDGDELIA@?5?5?5?5QCoreApplication?3?3instance?$CI?$CJ@ 00426764     logmanager.obj
 0002:00002798       ??_C@_0BC@OGEMGKAE@QT_FATAL_WARNINGS?$AA@ 00426798     logmanager.obj
 0002:000027b0       ??_7PatternLayout@Log4Qt@@6B@ 004267b0     patternlayout.obj
 0002:000027ec       ??_C@_04DMEIEFGK@?$CFm?$CFn?$AA@ 004267ec     patternlayout.obj
 0002:000027f4       ??_C@_0P@JLAAPNOL@PatternLayout?$CI?$AA@ 004267f4     patternlayout.obj
 0002:00002804       ??_C@_0BN@DOLCLOFF@Log4Qt?3?3PropertyConfigurator?$AA@ 00426804     propertyconfigurator.obj
 0002:00002824       ??_C@_0CA@BINHALFK@CONFIGURATOR_OPENING_FILE_ERROR?$AA@ 00426824     propertyconfigurator.obj
 0002:00002844       ??_C@_0CC@KHMGJDLC@Unable?5to?5open?5property?5file?5?8?$CF1@ 00426844     propertyconfigurator.obj
 0002:00002868       ??_C@_0CA@HBFMAAHD@CONFIGURATOR_READING_FILE_ERROR?$AA@ 00426868     propertyconfigurator.obj
 0002:00002888       ??_C@_0CC@OFEJHNEJ@Unable?5to?5read?5property?5file?5?8?$CF1@ 00426888     propertyconfigurator.obj
 0002:000028ac       ??_C@_0M@JPOMOEDO@log4j?4reset?$AA@ 004268ac     propertyconfigurator.obj
 0002:000028b8       ??_C@_0M@NIKDNCJG@log4j?4Debug?$AA@ 004268b8     propertyconfigurator.obj
 0002:000028c4       ??_C@_0BC@JCBAEHIA@log4j?4configDebug?$AA@ 004268c4     propertyconfigurator.obj
 0002:000028d8       ??_C@_0BA@ILMBCFND@log4j?4threshold?$AA@ 004268d8     propertyconfigurator.obj
 0002:000028e8       ??_C@_0BH@NLCBLGD@log4j?4handleQtMessages?$AA@ 004268e8     propertyconfigurator.obj
 0002:00002900       ??_C@_0BE@IGEAAOHL@Reset?5configuration?$AA@ 00426900     propertyconfigurator.obj
 0002:00002914       ??_C@_0CG@JNGGHEAD@?$FL?$CF1?$FN?5is?5deprecated?4?5Use?5?$FL?$CF2?$FN?5ins@ 00426914     propertyconfigurator.obj
 0002:0000293c       ??_C@_0CD@PPJDFIKH@Set?5level?5for?5Log4Qt?5logging?5to?5@ 0042693c     propertyconfigurator.obj
 0002:00002960       ??_C@_0CJ@KDIDBAHD@Set?5threshold?5for?5LoggerReposito@ 00426960     propertyconfigurator.obj
 0002:0000298c       ??_C@_0DD@FAMJMPKJ@Set?5handling?5of?5Qt?5messages?5Logg@ 0042698c     propertyconfigurator.obj
 0002:000029c0       ??_C@_0O@HNLDEIKC@log4j?4logger?4?$AA@ 004269c0     propertyconfigurator.obj
 0002:000029d0       ??_C@_0BA@LMBANFFF@log4j?4category?4?$AA@ 004269d0     propertyconfigurator.obj
 0002:000029e0       ??_C@_0BB@EADCFPGC@log4j?4rootLogger?$AA@ 004269e0     propertyconfigurator.obj
 0002:000029f4       ??_C@_0BD@MOJFNGK@log4j?4rootCategory?$AA@ 004269f4     propertyconfigurator.obj
 0002:00002a08       ??_C@_0DJ@PJIDGMHC@Could?5not?5find?5root?5logger?5infor@ 00426a08     propertyconfigurator.obj
 0002:00002a44       ??_C@_0BC@PDIBBACI@log4j?4additivity?4?$AA@ 00426a44     propertyconfigurator.obj
 0002:00002a58       ??_C@_0DE@CADFGBKA@Parsing?5additivity?5for?5logger?3?5k@ 00426a58     propertyconfigurator.obj
 0002:00002a8c       ??_C@_0CL@DFMKBFAA@Setting?5additivity?5for?5logger?5?8?$CF@ 00426a8c     propertyconfigurator.obj
 0002:00002ab8       ??_C@_0BA@BGFALNLO@log4j?4appender?4?$AA@ 00426ab8     propertyconfigurator.obj
 0002:00002ac8       ??_C@_0BM@DHEFKDOF@Parsing?5appender?5named?5?8?$CF1?8?$AA@ 00426ac8     propertyconfigurator.obj
 0002:00002ae4       ??_C@_0CC@IFBDCMCF@Appender?5?8?$CF1?8?5was?5already?5parsed@ 00426ae4     propertyconfigurator.obj
 0002:00002b08       ??_C@_0CE@OIGGCGLN@CONFIGURATOR_MISSING_APPENDER_ER@ 00426b08     propertyconfigurator.obj
 0002:00002b2c       ??_C@_0DE@GMCAKLKL@Missing?5appender?5definition?5for?5@ 00426b2c     propertyconfigurator.obj
 0002:00002b60       ??_C@_0CK@MMMPNIL@CONFIGURATOR_UNKNOWN_APPENDER_CL@ 00426b60     propertyconfigurator.obj
 0002:00002b8c       ??_C@_0DC@KGCDJKDG@Unable?5to?5create?5appender?5of?5cla@ 00426b8c     propertyconfigurator.obj
 0002:00002bc0       ??_C@_06GDMDKJEN@layout?$AA@ 00426bc0     propertyconfigurator.obj
 0002:00002bc8       ??_C@_07HHHBNJDO@?4layout?$AA@ 00426bc8     propertyconfigurator.obj
 0002:00002bd0       ??_C@_0CH@EKMJAKBC@Parsing?5layout?5for?5appender?5name@ 00426bd0     propertyconfigurator.obj
 0002:00002bf8       ??_C@_0CC@LNHODGIP@CONFIGURATOR_MISSING_LAYOUT_ERRO@ 00426bf8     propertyconfigurator.obj
 0002:00002c1c       ??_C@_0CM@HDAPPHCL@Missing?5layout?5definition?5for?5ap@ 00426c1c     propertyconfigurator.obj
 0002:00002c48       ??_C@_0CI@KBBNMGBK@CONFIGURATOR_UNKNOWN_LAYOUT_CLAS@ 00426c48     propertyconfigurator.obj
 0002:00002c70       ??_C@_0EC@CGIMDCBO@Unable?5to?5create?5layoput?5of?5clas@ 00426c70     propertyconfigurator.obj
 0002:00002cb4       ??_C@_09DGEPCOOL@INHERITED?$AA@ 00426cb4     propertyconfigurator.obj
 0002:00002cc0       ??_C@_0CF@JCPJMHHO@Parsing?5logger?3?5key?5?8?$CF1?8?0?5value?5@ 00426cc0     propertyconfigurator.obj
 0002:00002ce8       ??_C@_0CN@BBLOBJEM@The?5root?5logger?5level?5cannot?5be?5@ 00426ce8     propertyconfigurator.obj
 0002:00002d18       ??_C@_0CC@ENMEFCCL@Set?5level?5for?5logger?5?8?$CF1?8?5to?5?8?$CF2@ 00426d18     propertyconfigurator.obj
 0002:00002d40       ??_C@_0EJ@CMFHOJID@Setting?5properties?5for?5object?5of@ 00426d40     propertyconfigurator.obj
 0002:00002d8c       ??_C@_0BF@LKBOPKAE@PropertyConfigurator?$AA@ 00426d8c     propertyconfigurator.obj
 0002:00002da8       ??_7RollingFileAppender@Log4Qt@@6B@ 00426da8     rollingfileappender.obj
 0002:00002e10       ??_C@_0CG@DNKMIAOG@Rolling?5over?5with?5maxBackupIndex@ 00426e10     rollingfileappender.obj
 0002:00002e38       ??_C@_02PEDAEKLF@?41?$AA@  00426e38     rollingfileappender.obj
 0002:00002e3c       ??_C@_0BF@IECGLNLG@RollingFileAppender?$CI?$AA@ 00426e3c     rollingfileappender.obj
 0002:00002e54       ??_C@_0BA@BJGAEJPL@maxbackupindex?3?$AA@ 00426e54     rollingfileappender.obj
 0002:00002e64       ??_C@_0BB@EBBKHPJG@maximumfilesize?3?$AA@ 00426e64     rollingfileappender.obj
 0002:00002e78       ??_C@_03NLJIHOMM@?5?9?5?$AA@ 00426e78     simplelayout.obj
 0002:00002e7c       ??_C@_0O@FPEALFCG@SimpleLayout?$CI?$AA@ 00426e7c     simplelayout.obj
 0002:00002e90       ??_7TTCCLayout@Log4Qt@@6B@ 00426e90     ttcclayout.obj
 0002:00002ecc       ??_C@_03MKECLMCO@?$CFd?$HL?$AA@ 00426ecc     ttcclayout.obj
 0002:00002ed0       ??_C@_05MNFDBJCJ@?5?$FL?$CFt?$FN?$AA@ 00426ed0     ttcclayout.obj
 0002:00002ed8       ??_C@_05BPHHNCHA@?5?$CF?95p?$AA@ 00426ed8     ttcclayout.obj
 0002:00002ee0       ??_C@_03ONPDDLC@?5?$CFc?$AA@ 00426ee0     ttcclayout.obj
 0002:00002ee4       ??_C@_03KHOJPICI@?5?$CFx?$AA@ 00426ee4     ttcclayout.obj
 0002:00002ee8       ??_C@_07MPPIFCCC@?5?9?5?$CFm?$CFn?$AA@ 00426ee8     ttcclayout.obj
 0002:00002ef0       ??_C@_0M@NHFKGHMK@TTCCLayout?$CI?$AA@ 00426ef0     ttcclayout.obj
 0002:00002efc       ??_C@_0BD@DHGJENO@categoryprefixing?3?$AA@ 00426efc     ttcclayout.obj
 0002:00002f10       ??_C@_0BB@JEDANGP@contextprinting?3?$AA@ 00426f10     ttcclayout.obj
 0002:00002f24       ??_C@_0M@GOILMCID@dateformat?3?$AA@ 00426f24     ttcclayout.obj
 0002:00002f30       ??_C@_0BA@FFOLCCMM@threadprinting?3?$AA@ 00426f30     ttcclayout.obj
 0002:00002f44       ??_7WriterAppender@Log4Qt@@6B@ 00426f44     writerappender.obj
 0002:00002fac       ??_C@_05EGJIMALK@UTF?98?$AA@ 00426fac     writerappender.obj
 0002:00002fb4       ??_C@_0CH@NNEIJPOE@APPENDER_ACTIVATE_MISSING_WRITER@ 00426fb4     writerappender.obj
 0002:00002fe0       ??_C@_0EH@IFCLMOFA@Activation?5of?5Appender?5?8?$CF1?8?5that@ 00426fe0     writerappender.obj
 0002:00003028       ??_C@_0CC@ILAMKIDG@APPENDER_USE_MISSING_WRITER_ERRO@ 00427028     writerappender.obj
 0002:0000304c       ??_C@_0CK@EBHEIPJH@Use?5of?5appender?5?8?$CF1?8?5without?5a?5w@ 0042704c     writerappender.obj
 0002:00003078       ??_C@_0BA@GKNOIOEM@WriterAppender?$CI?$AA@ 00427078     writerappender.obj
 0002:00003088       ??_C@_0BA@BJCBJBOP@immediateFlush?3?$AA@ 00427088     writerappender.obj
 0002:00003098       ??_C@_0P@GHOFOOJD@DebugAppender?$CI?$AA@ 00427098     debugappender.obj
 0002:000030a8       ??_C@_0P@MPABGAHP@DenyAllFilter?$CI?$AA@ 004270a8     denyallfilter.obj
 0002:000030b8       ??_C@_05PFMLFOMN@next?3?$AA@ 004270b8     denyallfilter.obj
 0002:000030c4       ??_7NullAppender@Log4Qt@@6B@ 004270c4     nullappender.obj
 0002:00003128       ??_C@_0O@NILCDJDD@NullAppender?$CI?$AA@ 00427128     nullappender.obj
 0002:0000313c       ??_7LevelMatchFilter@Log4Qt@@6B@ 0042713c     levelmatchfilter.obj
 0002:00003174       ??_C@_0BC@LMBDIPBA@LevelMatchFilter?$CI?$AA@ 00427174     levelmatchfilter.obj
 0002:00003188       ??_C@_0P@IMDEFFN@acceptonmatch?3?$AA@ 00427188     levelmatchfilter.obj
 0002:00003198       ??_C@_0O@HBHOIAPG@leveltomatch?3?$AA@ 00427198     levelmatchfilter.obj
 0002:000031ac       ??_7LevelRangeFilter@Log4Qt@@6B@ 004271ac     levelrangefilter.obj
 0002:000031e4       ??_C@_0BC@JLJJCHJN@LevelRangeFilter?$CI?$AA@ 004271e4     levelrangefilter.obj
 0002:000031f8       ??_C@_09ENLBLAMO@levelmin?3?$AA@ 004271f8     levelrangefilter.obj
 0002:00003204       ??_C@_09JAKOEHOD@levelmax?3?$AA@ 00427204     levelrangefilter.obj
 0002:00003214       ??_7ListAppender@Log4Qt@@6B@ 00427214     listappender.obj
 0002:00003278       ??_C@_0EJ@JFBHGCBP@Attempt?5to?5set?5maximum?5count?5for@ 00427278     listappender.obj
 0002:000032c4       ??_C@_0O@HNNILFLM@ListAppender?$CI?$AA@ 004272c4     listappender.obj
 0002:000032d4       ??_C@_06LNPFDKAM@count?3?$AA@ 004272d4     listappender.obj
 0002:000032dc       ??_C@_09NDKHBNAG@maxcount?3?$AA@ 004272dc     listappender.obj
 0002:000032ec       ??_7StringMatchFilter@Log4Qt@@6B@ 004272ec     stringmatchfilter.obj
 0002:00003324       ??_C@_0BD@FGGKLDBM@StringMatchFilter?$CI?$AA@ 00427324     stringmatchfilter.obj
 0002:00003338       ??_C@_0P@FJOFMGOF@stringtomatch?3?$AA@ 00427338     stringmatchfilter.obj
 0002:00003348       ??_C@_06CHGOAPND@prefix?$AA@ 00427348     main.obj
 0002:00003350       ??_C@_06BDGKJDBI@regexp?$AA@ 00427350     main.obj
 0002:00003358       ??_C@_06EOIELIPE@filter?$AA@ 00427358     main.obj
 0002:00003360       ??_C@_09ELLNFDPM@directory?$AA@ 00427360     main.obj
 0002:0000336c       ??_C@_06GABBCIBA@method?$AA@ 0042736c     main.obj
 0002:00003374       ??_C@_05PHLGJONK@title?$AA@ 00427374     main.obj
 0002:0000337c       ??_C@_0BA@EPEDAFAH@getOpenFileName?$AA@ 0042737c     main.obj
 0002:0000338c       ??_C@_0P@CBEMDMIC@getOpenFileUrl?$AA@ 0042738c     main.obj
 0002:0000339c       ??_C@_0BB@JKDJPMJD@getOpenFileNames?$AA@ 0042739c     main.obj
 0002:000033b0       ??_C@_0BA@HIFIEAF@getOpenFileUrls?$AA@ 004273b0     main.obj
 0002:000033c0       ??_C@_0BF@NEGJOMNF@getExistingDirectory?$AA@ 004273c0     main.obj
 0002:000033d8       ??_C@_0BI@CPAJPFBG@getExistingDirectoryUrl?$AA@ 004273d8     main.obj
 0002:000033f0       ??_C@_0BA@DJLHOCII@getSaveFileName?$AA@ 004273f0     main.obj
 0002:00003400       ??_C@_0P@JOKCDMC@getSaveFileUrl?$AA@ 00427400     main.obj
 0002:00003410       ??_C@_0CF@NPOPIKMF@event?1plugin?1propertybrowser?1ser@ 00427410     main.obj
 0002:00003438       ??_C@_05KNFBNCOH@float?$AA@ 00427438     main.obj
 0002:00003440       ??_C@_0CE@KHDMJCIM@event?1plugin?1propertybrowser?1cli@ 00427440     main.obj
 0002:00003464       ??_C@_0L@OOKGDJAB@event?4type?$AA@ 00427464     main.obj
 0002:00003470       ??_C@_0O@FMKFDBFE@property?4show?$AA@ 00427470     main.obj
 0002:00003480       ??_C@_0O@IHIIGPJA@property?4hide?$AA@ 00427480     main.obj
 0002:00003490       ??_C@_0O@DILIFPLF@property?4list?$AA@ 00427490     main.obj
 0002:000034a0       ??_C@_06BNJCAIGJ@double?$AA@ 004274a0     main.obj
 0002:000034a8       ??_C@_04IAGNFIBA@size?$AA@ 004274a8     main.obj
 0002:000034b0       ??_C@_04LHPFHFPH@rect?$AA@ 004274b0     main.obj
 0002:000034b8       ??_C@_04DAMGJPCA@file?$AA@ 004274b8     main.obj
 0002:000034c0       ??_C@_04EFPADHIC@font?$AA@ 004274c0     main.obj
 0002:000034c8       ??_C@_04DNPGJOMD@flag?$AA@ 004274c8     main.obj
 0002:000034d0       ??_C@_04DBJPMPLO@enum?$AA@ 004274d0     main.obj
 0002:000034d8       ??_C@_04JNIHBGGH@date?$AA@ 004274d8     main.obj
 0002:000034e0       ??_C@_04CLCEDBPF@time?$AA@ 004274e0     main.obj
 0002:000034e8       ??_C@_04CIMGMMMG@text?$AA@ 004274e8     main.obj
 0002:000034f0       ??_C@_05PEENBMOG@color?$AA@ 004274f0     main.obj
 0002:000034f8       ??_C@_05BBEJFBFA@point?$AA@ 004274f8     main.obj
 0002:00003500       ??_C@_06ICGJLFIM@string?$AA@ 00427500     main.obj
 0002:00003508       ??_C@_08FGNPMIBK@datetime?$AA@ 00427508     main.obj
 0002:00003514       ??_C@_0L@NEJLEPKE@stringlist?$AA@ 00427514     main.obj
 0002:00003520       ??_C@_08NEGKDHCC@shortcut?$AA@ 00427520     main.obj
 0002:0000352c       ??_C@_04MLLLIHIP@null?$AA@ 0042752c     main.obj
 0002:00003534       ??_C@_04MEMAJGDJ@name?$AA@ 00427534     main.obj
 0002:0000353c       ??_C@_05MFEJDJP@value?$AA@ 0042753c     main.obj
 0002:00003544       ??_C@_03KLIPLJLL@min?$AA@  00427544     main.obj
 0002:00003548       ??_C@_03LJAEFNNE@max?$AA@  00427548     main.obj
 0002:0000354c       ??_C@_04GPMDFGEJ@type?$AA@ 0042754c     main.obj
 0002:00003554       ??_C@_07FOPBDDAL@options?$AA@ 00427554     main.obj
 0002:0000355c       ??_C@_08LJAEALMJ@editable?$AA@ 0042755c     main.obj
 0002:00003568       ??_C@_09GGPFAKGI@associate?$AA@ 00427568     main.obj
 0002:00003574       ??_C@_08EDANLLJD@subitems?$AA@ 00427574     main.obj
 0002:00003580       ??_C@_08KJBEGKBO@showtext?$AA@ 00427580     main.obj
 0002:0000358c       ??_C@_08LCDAKGCH@decimals?$AA@ 0042758c     main.obj
 0002:00003598       ??_C@_0L@HOCHOMFK@singleStep?$AA@ 00427598     main.obj
 0002:000035a4       ??_C@_06EMCDFPCG@suffix?$AA@ 004275a4     main.obj
 0002:000035b0       ??_SPluginFramework@ExtensionSystem@@6B@ 004275b0     main.obj
 0002:000035dc       ??_C@_0BC@NJGBPHBG@?3?1app?1log4qt?4conf?$AA@ 004275dc     main.obj
 0002:000035f0       ??_C@_08HEDCAEFE@QxPlugin?$AA@ 004275f0     main.obj
 0002:000035fc       ??_C@_06COFBDCHE@v0?44?43?$AA@ 004275fc     main.obj
 0002:00003604       ??_C@_07FFLLKOAD@Command?$AA@ 00427604     main.obj
 0002:0000360c       ??_C@_0BA@HNKFLBMD@Language?5Config?$AA@ 0042760c     main.obj
 0002:0000361c       ??_C@_04GHJNJNPO@main?$AA@ 0042761c     main.obj
 0002:00003624       ??_C@_0BG@GFAMOIPH@specific?5the?5language?$AA@ 00427624     main.obj
 0002:0000363c       ??_C@_01HHGOMJKL@l?$AA@    0042763c     main.obj
 0002:00003640       ??_C@_07EKLFBIAH@lanague?$AA@ 00427640     main.obj
 0002:00003648       ??_C@_0BK@HGKPHPPH@Only?5Load?5Enabled?5Plugins?$AA@ 00427648     main.obj
 0002:00003664       ??_C@_0DJ@HHGNAPGN@only?5load?5enabled?5plugins?5that?5d@ 00427664     main.obj
 0002:000036a0       ??_C@_01KGKMHCOC@e?$AA@    004276a0     main.obj
 0002:000036a4       ??_C@_0BG@NJBMEJHB@loadEnabledPluginOnly?$AA@ 004276a4     main.obj
 0002:000036bc       ??_C@_0BF@OGJJHMDP@Auto?5Install?5Plugins?$AA@ 004276bc     main.obj
 0002:000036d4       ??_C@_0CP@BJFHKEDD@watching?5the?5changing?5of?5the?5plu@ 004276d4     main.obj
 0002:00003704       ??_C@_01NOFIACDB@w?$AA@    00427704     main.obj
 0002:00003708       ??_C@_0P@IFFHDCAO@watchPluginDir?$AA@ 00427708     main.obj
 0002:00003718       ??_C@_0BJ@GKBCJLBC@Load?5Application?5Profile?$AA@ 00427718     main.obj
 0002:00003734       ??_C@_0BJ@IJJIKJEP@Load?5application?5profile?$AA@ 00427734     main.obj
 0002:00003750       ??_C@_01JBBJJEPG@p?$AA@    00427750     main.obj
 0002:00003754       ??_C@_0L@NNKAFJCP@appProfile?$AA@ 00427754     main.obj
 0002:00003760       ??_C@_0CE@EJIMELIO@1pluginChanged?$CIconst?5PluginEvent@ 00427760     main.obj
 0002:00003784       ??_C@_0CE@CNGMDAHA@2pluginChanged?$CIconst?5PluginEvent@ 00427784     main.obj
 0002:000037ac       ??_7SplashScreen@@6BQObject@@@ 004277ac     splashscreen.obj
 0002:00003868       ??_7SplashScreen@@6BQPaintDevice@@@ 00427868     splashscreen.obj
 0002:00003884       ??_C@_0BI@FDFOEONO@?3?1app?1images?1splash?4png?$AA@ 00427884     splashscreen.obj
 0002:0000389c       ??_C@_0L@MPPAGPJD@Installed?5?$AA@ 0042789c     splashscreen.obj
 0002:000038a8       ??_C@_0L@JKLDJKKD@Resolved?5?5?$AA@ 004278a8     splashscreen.obj
 0002:000038b4       ??_C@_0L@GNENHJAP@Actived?5?5?5?$AA@ 004278b4     splashscreen.obj
 0002:000038c0       ??_C@_01OHGJGJJP@?$FL?$AA@ 004278c0     splashscreen.obj
 0002:000038c4       ??_C@_02LFBICAEH@?$FN?7?$AA@ 004278c4     splashscreen.obj
 0002:000038c8       ??_C@_09PEPLIKNL@?$FL?$CF1?$FN?5?$DO?5?$CF2?$AA@ 004278c8     splashscreen.obj
 0002:000038d4       ??_C@_01EEMJAFIK@?6?$AA@   004278d4     splashscreen.obj
 0002:000038d8       ??_C@_0BN@MNIIIKCH@?3?1app?1images?1progressbar?4png?$AA@ 004278d8     splashscreen.obj
 0002:000038f8       __real@00000000            004278f8     splashscreen.obj
 0002:000038fc       __real@3f000000            004278fc     splashscreen.obj
 0002:00003900       __real@3f800000            00427900     splashscreen.obj
 0002:00003908       __real@3fe0000000000000    00427908     splashscreen.obj
 0002:000fffe8       ?staticMetaObject@Appender@Log4Qt@@2UQMetaObject@@B 00523fe8     moc_appender.obj
 0002:00100000       ?staticMetaObject@AppenderSkeleton@Log4Qt@@2UQMetaObject@@B 00524000     moc_appenderskeleton.obj
 0002:00100108       ?staticMetaObject@ConsoleAppender@Log4Qt@@2UQMetaObject@@B 00524108     moc_consoleappender.obj
 0002:00100220       ?staticMetaObject@DailyRollingFileAppender@Log4Qt@@2UQMetaObject@@B 00524220     moc_dailyrollingfileappender.obj
 0002:001003f0       ?staticMetaObject@FileAppender@Log4Qt@@2UQMetaObject@@B 005243f0     moc_fileappender.obj
 0002:001004d8       ??_C@_0BE@GDINDPGL@yyyy?9MM?9dd_hh?9mm?9ss?$AA@ 005244d8     moc_fileappender.obj
 0002:00100698       ?staticMetaObject@Layout@Log4Qt@@2UQMetaObject@@B 00524698     moc_layout.obj
 0002:001008f0       ?staticMetaObject@PatternLayout@Log4Qt@@2UQMetaObject@@B 005248f0     moc_patternlayout.obj
 0002:00100a30       ?staticMetaObject@RollingFileAppender@Log4Qt@@2UQMetaObject@@B 00524a30     moc_rollingfileappender.obj
 0002:00100b30       ?staticMetaObject@SimpleLayout@Log4Qt@@2UQMetaObject@@B 00524b30     moc_simplelayout.obj
 0002:00100bb0       ?staticMetaObject@Filter@Log4Qt@@2UQMetaObject@@B 00524bb0     moc_filter.obj
 0002:00100ce8       ?staticMetaObject@TTCCLayout@Log4Qt@@2UQMetaObject@@B 00524ce8     moc_ttcclayout.obj
 0002:00100ee0       ?staticMetaObject@WriterAppender@Log4Qt@@2UQMetaObject@@B 00524ee0     moc_writerappender.obj
 0002:00101008       ?staticMetaObject@DebugAppender@Log4Qt@@2UQMetaObject@@B 00525008     moc_debugappender.obj
 0002:00101084       ?staticMetaObject@DenyAllFilter@Log4Qt@@2UQMetaObject@@B 00525084     moc_denyallfilter.obj
 0002:00101100       ?staticMetaObject@NullAppender@Log4Qt@@2UQMetaObject@@B 00525100     moc_nullappender.obj
 0002:00101180       ?staticMetaObject@LevelMatchFilter@Log4Qt@@2UQMetaObject@@B 00525180     moc_levelmatchfilter.obj
 0002:00101270       ?staticMetaObject@LevelRangeFilter@Log4Qt@@2UQMetaObject@@B 00525270     moc_levelrangefilter.obj
 0002:00101378       ?staticMetaObject@ListAppender@Log4Qt@@2UQMetaObject@@B 00525378     moc_listappender.obj
 0002:00101448       ?staticMetaObject@StringMatchFilter@Log4Qt@@2UQMetaObject@@B 00525448     moc_stringmatchfilter.obj
 0002:00101658       ??_7type_info@@6B@         00525658     MSVCRT:std_type_info_static.obj
 0002:00101660       ??_7exception@std@@6B@     00525660     MSVCRT:throw_bad_alloc.obj
 0002:00101668       ??_C@_0BC@EOODALEL@Unknown?5exception?$AA@ 00525668     MSVCRT:throw_bad_alloc.obj
 0002:00101680       ??_7bad_alloc@std@@6B@     00525680     MSVCRT:throw_bad_alloc.obj
 0002:00101688       ??_C@_0P@GHFPNOJB@bad?5allocation?$AA@ 00525688     MSVCRT:throw_bad_alloc.obj
 0002:0010169c       ??_7bad_array_new_length@std@@6B@ 0052569c     MSVCRT:throw_bad_alloc.obj
 0002:001016a4       ??_C@_0BF@KINCDENJ@bad?5array?5new?5length?$AA@ 005256a4     MSVCRT:throw_bad_alloc.obj
 0002:00101728       __load_config_used         00525728     MSVCRT:loadcfg.obj
 0002:00101784       ??_R4LogObject@Log4Qt@@6B@ 00525784     appenderskeleton.obj
 0002:00101798       ??_R3LogObject@Log4Qt@@8   00525798     appenderskeleton.obj
 0002:001017a8       ??_R2LogObject@Log4Qt@@8   005257a8     appenderskeleton.obj
 0002:001017b4       ??_R1A@?0A@EA@LogObject@Log4Qt@@8 005257b4     appenderskeleton.obj
 0002:001017d0       ??_R1A@?0A@EA@QObject@@8   005257d0     appenderskeleton.obj
 0002:001017ec       ??_R3QObject@@8            005257ec     appenderskeleton.obj
 0002:001017fc       ??_R2QObject@@8            005257fc     appenderskeleton.obj
 0002:00101804       ??_R3Appender@Log4Qt@@8    00525804     appenderskeleton.obj
 0002:00101814       ??_R2Appender@Log4Qt@@8    00525814     appenderskeleton.obj
 0002:00101824       ??_R1A@?0A@EA@Appender@Log4Qt@@8 00525824     appenderskeleton.obj
 0002:00101840       ??_R4AppenderSkeleton@Log4Qt@@6B@ 00525840     appenderskeleton.obj
 0002:00101854       ??_R3AppenderSkeleton@Log4Qt@@8 00525854     appenderskeleton.obj
 0002:00101864       ??_R2AppenderSkeleton@Log4Qt@@8 00525864     appenderskeleton.obj
 0002:00101878       ??_R1A@?0A@EA@AppenderSkeleton@Log4Qt@@8 00525878     appenderskeleton.obj
 0002:00101894       ??_R4QTextStream@@6B@      00525894     consoleappender.obj
 0002:001018a8       ??_R3QTextStream@@8        005258a8     consoleappender.obj
 0002:001018b8       ??_R2QTextStream@@8        005258b8     consoleappender.obj
 0002:001018c0       ??_R1A@?0A@EA@QTextStream@@8 005258c0     consoleappender.obj
 0002:001018dc       ??_R4ConsoleAppender@Log4Qt@@6B@ 005258dc     consoleappender.obj
 0002:001018f0       ??_R3ConsoleAppender@Log4Qt@@8 005258f0     consoleappender.obj
 0002:00101900       ??_R2ConsoleAppender@Log4Qt@@8 00525900     consoleappender.obj
 0002:0010191c       ??_R1A@?0A@EA@ConsoleAppender@Log4Qt@@8 0052591c     consoleappender.obj
 0002:00101938       ??_R1A@?0A@EA@WriterAppender@Log4Qt@@8 00525938     consoleappender.obj
 0002:00101954       ??_R3WriterAppender@Log4Qt@@8 00525954     consoleappender.obj
 0002:00101964       ??_R2WriterAppender@Log4Qt@@8 00525964     consoleappender.obj
 0002:0010197c       ??_R4DailyRollingFileAppender@Log4Qt@@6B@ 0052597c     dailyrollingfileappender.obj
 0002:00101990       ??_R3DailyRollingFileAppender@Log4Qt@@8 00525990     dailyrollingfileappender.obj
 0002:001019a0       ??_R2DailyRollingFileAppender@Log4Qt@@8 005259a0     dailyrollingfileappender.obj
 0002:001019c0       ??_R1A@?0A@EA@DailyRollingFileAppender@Log4Qt@@8 005259c0     dailyrollingfileappender.obj
 0002:001019dc       ??_R1A@?0A@EA@FileAppender@Log4Qt@@8 005259dc     dailyrollingfileappender.obj
 0002:001019f8       ??_R3FileAppender@Log4Qt@@8 005259f8     dailyrollingfileappender.obj
 0002:00101a08       ??_R2FileAppender@Log4Qt@@8 00525a08     dailyrollingfileappender.obj
 0002:00101a24       ??_R4QFile@@6B@            00525a24     fileappender.obj
 0002:00101a38       ??_R3QFile@@8              00525a38     fileappender.obj
 0002:00101a48       ??_R2QFile@@8              00525a48     fileappender.obj
 0002:00101a5c       ??_R1A@?0A@EA@QFile@@8     00525a5c     fileappender.obj
 0002:00101a78       ??_R1A@?0A@EA@QFileDevice@@8 00525a78     fileappender.obj
 0002:00101a94       ??_R3QFileDevice@@8        00525a94     fileappender.obj
 0002:00101aa4       ??_R2QFileDevice@@8        00525aa4     fileappender.obj
 0002:00101ab4       ??_R1A@?0A@EA@QIODevice@@8 00525ab4     fileappender.obj
 0002:00101ad0       ??_R3QIODevice@@8          00525ad0     fileappender.obj
 0002:00101ae0       ??_R2QIODevice@@8          00525ae0     fileappender.obj
 0002:00101aec       ??_R4FileAppender@Log4Qt@@6B@ 00525aec     fileappender.obj
 0002:00101b00       ??_R4ConfiguratorHelper@Log4Qt@@6B@ 00525b00     configuratorhelper.obj
 0002:00101b14       ??_R3ConfiguratorHelper@Log4Qt@@8 00525b14     configuratorhelper.obj
 0002:00101b24       ??_R2ConfiguratorHelper@Log4Qt@@8 00525b24     configuratorhelper.obj
 0002:00101b30       ??_R1A@?0A@EA@ConfiguratorHelper@Log4Qt@@8 00525b30     configuratorhelper.obj
 0002:00101b4c       ??_R4Filter@Log4Qt@@6B@    00525b4c     factory.obj
 0002:00101b60       ??_R3Filter@Log4Qt@@8      00525b60     factory.obj
 0002:00101b70       ??_R2Filter@Log4Qt@@8      00525b70     factory.obj
 0002:00101b80       ??_R1A@?0A@EA@Filter@Log4Qt@@8 00525b80     factory.obj
 0002:00101b9c       ??_R4Layout@Log4Qt@@6B@    00525b9c     factory.obj
 0002:00101bb0       ??_R3Layout@Log4Qt@@8      00525bb0     factory.obj
 0002:00101bc0       ??_R2Layout@Log4Qt@@8      00525bc0     factory.obj
 0002:00101bd0       ??_R1A@?0A@EA@Layout@Log4Qt@@8 00525bd0     factory.obj
 0002:00101bec       ??_R4SimpleLayout@Log4Qt@@6B@ 00525bec     factory.obj
 0002:00101c00       ??_R3SimpleLayout@Log4Qt@@8 00525c00     factory.obj
 0002:00101c10       ??_R2SimpleLayout@Log4Qt@@8 00525c10     factory.obj
 0002:00101c24       ??_R1A@?0A@EA@SimpleLayout@Log4Qt@@8 00525c24     factory.obj
 0002:00101c40       ??_R4DebugAppender@Log4Qt@@6B@ 00525c40     factory.obj
 0002:00101c54       ??_R3DebugAppender@Log4Qt@@8 00525c54     factory.obj
 0002:00101c64       ??_R2DebugAppender@Log4Qt@@8 00525c64     factory.obj
 0002:00101c7c       ??_R1A@?0A@EA@DebugAppender@Log4Qt@@8 00525c7c     factory.obj
 0002:00101c98       ??_R4DenyAllFilter@Log4Qt@@6B@ 00525c98     factory.obj
 0002:00101cac       ??_R3DenyAllFilter@Log4Qt@@8 00525cac     factory.obj
 0002:00101cbc       ??_R2DenyAllFilter@Log4Qt@@8 00525cbc     factory.obj
 0002:00101cd0       ??_R1A@?0A@EA@DenyAllFilter@Log4Qt@@8 00525cd0     factory.obj
 0002:00101cec       ??_R4InitialisationHelper@Log4Qt@@6B@ 00525cec     initialisationhelper.obj
 0002:00101d00       ??_R3InitialisationHelper@Log4Qt@@8 00525d00     initialisationhelper.obj
 0002:00101d10       ??_R2InitialisationHelper@Log4Qt@@8 00525d10     initialisationhelper.obj
 0002:00101d18       ??_R1A@?0A@EA@InitialisationHelper@Log4Qt@@8 00525d18     initialisationhelper.obj
 0002:00101d34       ??_R4PatternConverter@Log4Qt@@6B@ 00525d34     patternformatter.obj
 0002:00101d48       ??_R3PatternConverter@Log4Qt@@8 00525d48     patternformatter.obj
 0002:00101d58       ??_R2PatternConverter@Log4Qt@@8 00525d58     patternformatter.obj
 0002:00101d60       ??_R1A@?0A@EA@PatternConverter@Log4Qt@@8 00525d60     patternformatter.obj
 0002:00101d7c       ??_R4PatternFormatter@Log4Qt@@6B@ 00525d7c     patternformatter.obj
 0002:00101d90       ??_R3PatternFormatter@Log4Qt@@8 00525d90     patternformatter.obj
 0002:00101da0       ??_R2PatternFormatter@Log4Qt@@8 00525da0     patternformatter.obj
 0002:00101da8       ??_R1A@?0A@EA@PatternFormatter@Log4Qt@@8 00525da8     patternformatter.obj
 0002:00101dc4       ??_R4BasicPatternConverter@Log4Qt@@6B@ 00525dc4     patternformatter.obj
 0002:00101dd8       ??_R3BasicPatternConverter@Log4Qt@@8 00525dd8     patternformatter.obj
 0002:00101de8       ??_R2BasicPatternConverter@Log4Qt@@8 00525de8     patternformatter.obj
 0002:00101df4       ??_R1A@?0A@EA@BasicPatternConverter@Log4Qt@@8 00525df4     patternformatter.obj
 0002:00101e10       ??_R4DatePatternConverter@Log4Qt@@6B@ 00525e10     patternformatter.obj
 0002:00101e24       ??_R3DatePatternConverter@Log4Qt@@8 00525e24     patternformatter.obj
 0002:00101e34       ??_R2DatePatternConverter@Log4Qt@@8 00525e34     patternformatter.obj
 0002:00101e40       ??_R1A@?0A@EA@DatePatternConverter@Log4Qt@@8 00525e40     patternformatter.obj
 0002:00101e5c       ??_R4LiteralPatternConverter@Log4Qt@@6B@ 00525e5c     patternformatter.obj
 0002:00101e70       ??_R3LiteralPatternConverter@Log4Qt@@8 00525e70     patternformatter.obj
 0002:00101e80       ??_R2LiteralPatternConverter@Log4Qt@@8 00525e80     patternformatter.obj
 0002:00101e8c       ??_R1A@?0A@EA@LiteralPatternConverter@Log4Qt@@8 00525e8c     patternformatter.obj
 0002:00101ea8       ??_R4LoggerPatternConverter@Log4Qt@@6B@ 00525ea8     patternformatter.obj
 0002:00101ebc       ??_R3LoggerPatternConverter@Log4Qt@@8 00525ebc     patternformatter.obj
 0002:00101ecc       ??_R2LoggerPatternConverter@Log4Qt@@8 00525ecc     patternformatter.obj
 0002:00101ed8       ??_R1A@?0A@EA@LoggerPatternConverter@Log4Qt@@8 00525ed8     patternformatter.obj
 0002:00101ef4       ??_R4MDCPatternConverter@Log4Qt@@6B@ 00525ef4     patternformatter.obj
 0002:00101f08       ??_R3MDCPatternConverter@Log4Qt@@8 00525f08     patternformatter.obj
 0002:00101f18       ??_R2MDCPatternConverter@Log4Qt@@8 00525f18     patternformatter.obj
 0002:00101f24       ??_R1A@?0A@EA@MDCPatternConverter@Log4Qt@@8 00525f24     patternformatter.obj
 0002:00101f40       ??_R3LoggerRepository@Log4Qt@@8 00525f40     hierarchy.obj
 0002:00101f50       ??_R2LoggerRepository@Log4Qt@@8 00525f50     hierarchy.obj
 0002:00101f58       ??_R1A@?0A@EA@LoggerRepository@Log4Qt@@8 00525f58     hierarchy.obj
 0002:00101f74       ??_R4Hierarchy@Log4Qt@@6B@ 00525f74     hierarchy.obj
 0002:00101f88       ??_R3Hierarchy@Log4Qt@@8   00525f88     hierarchy.obj
 0002:00101f98       ??_R2Hierarchy@Log4Qt@@8   00525f98     hierarchy.obj
 0002:00101fa4       ??_R1A@?0A@EA@Hierarchy@Log4Qt@@8 00525fa4     hierarchy.obj
 0002:00101fc0       ??_R4Logger@Log4Qt@@6B@    00525fc0     logger.obj
 0002:00101fd4       ??_R3Logger@Log4Qt@@8      00525fd4     logger.obj
 0002:00101fe4       ??_R2Logger@Log4Qt@@8      00525fe4     logger.obj
 0002:00101ff0       ??_R1A@?0A@EA@Logger@Log4Qt@@8 00525ff0     logger.obj
 0002:0010200c       ??_R4LogManager@Log4Qt@@6B@ 0052600c     logmanager.obj
 0002:00102020       ??_R3LogManager@Log4Qt@@8  00526020     logmanager.obj
 0002:00102030       ??_R2LogManager@Log4Qt@@8  00526030     logmanager.obj
 0002:00102038       ??_R1A@?0A@EA@LogManager@Log4Qt@@8 00526038     logmanager.obj
 0002:00102054       ??_R4PatternLayout@Log4Qt@@6B@ 00526054     patternlayout.obj
 0002:00102068       ??_R3PatternLayout@Log4Qt@@8 00526068     patternlayout.obj
 0002:00102078       ??_R2PatternLayout@Log4Qt@@8 00526078     patternlayout.obj
 0002:0010208c       ??_R1A@?0A@EA@PatternLayout@Log4Qt@@8 0052608c     patternlayout.obj
 0002:001020a8       ??_R4RollingFileAppender@Log4Qt@@6B@ 005260a8     rollingfileappender.obj
 0002:001020bc       ??_R3RollingFileAppender@Log4Qt@@8 005260bc     rollingfileappender.obj
 0002:001020cc       ??_R2RollingFileAppender@Log4Qt@@8 005260cc     rollingfileappender.obj
 0002:001020ec       ??_R1A@?0A@EA@RollingFileAppender@Log4Qt@@8 005260ec     rollingfileappender.obj
 0002:00102108       ??_R4TTCCLayout@Log4Qt@@6B@ 00526108     ttcclayout.obj
 0002:0010211c       ??_R3TTCCLayout@Log4Qt@@8  0052611c     ttcclayout.obj
 0002:0010212c       ??_R2TTCCLayout@Log4Qt@@8  0052612c     ttcclayout.obj
 0002:00102140       ??_R1A@?0A@EA@TTCCLayout@Log4Qt@@8 00526140     ttcclayout.obj
 0002:0010215c       ??_R4WriterAppender@Log4Qt@@6B@ 0052615c     writerappender.obj
 0002:00102170       ??_R4NullAppender@Log4Qt@@6B@ 00526170     nullappender.obj
 0002:00102184       ??_R3NullAppender@Log4Qt@@8 00526184     nullappender.obj
 0002:00102194       ??_R2NullAppender@Log4Qt@@8 00526194     nullappender.obj
 0002:001021ac       ??_R1A@?0A@EA@NullAppender@Log4Qt@@8 005261ac     nullappender.obj
 0002:001021c8       ??_R4LevelMatchFilter@Log4Qt@@6B@ 005261c8     levelmatchfilter.obj
 0002:001021dc       ??_R3LevelMatchFilter@Log4Qt@@8 005261dc     levelmatchfilter.obj
 0002:001021ec       ??_R2LevelMatchFilter@Log4Qt@@8 005261ec     levelmatchfilter.obj
 0002:00102200       ??_R1A@?0A@EA@LevelMatchFilter@Log4Qt@@8 00526200     levelmatchfilter.obj
 0002:0010221c       ??_R4LevelRangeFilter@Log4Qt@@6B@ 0052621c     levelrangefilter.obj
 0002:00102230       ??_R3LevelRangeFilter@Log4Qt@@8 00526230     levelrangefilter.obj
 0002:00102240       ??_R2LevelRangeFilter@Log4Qt@@8 00526240     levelrangefilter.obj
 0002:00102254       ??_R1A@?0A@EA@LevelRangeFilter@Log4Qt@@8 00526254     levelrangefilter.obj
 0002:00102270       ??_R4ListAppender@Log4Qt@@6B@ 00526270     listappender.obj
 0002:00102284       ??_R3ListAppender@Log4Qt@@8 00526284     listappender.obj
 0002:00102294       ??_R2ListAppender@Log4Qt@@8 00526294     listappender.obj
 0002:001022ac       ??_R1A@?0A@EA@ListAppender@Log4Qt@@8 005262ac     listappender.obj
 0002:001022c8       ??_R4StringMatchFilter@Log4Qt@@6B@ 005262c8     stringmatchfilter.obj
 0002:001022dc       ??_R3StringMatchFilter@Log4Qt@@8 005262dc     stringmatchfilter.obj
 0002:001022ec       ??_R2StringMatchFilter@Log4Qt@@8 005262ec     stringmatchfilter.obj
 0002:00102300       ??_R1A@?0A@EA@StringMatchFilter@Log4Qt@@8 00526300     stringmatchfilter.obj
 0002:0010231c       ??_R4PluginFramework@ExtensionSystem@@6B@ 0052631c     main.obj
 0002:00102330       ??_R3PluginFramework@ExtensionSystem@@8 00526330     main.obj
 0002:00102340       ??_R2PluginFramework@ExtensionSystem@@8 00526340     main.obj
 0002:0010234c       ??_R1A@?0A@EA@PluginFramework@ExtensionSystem@@8 0052634c     main.obj
 0002:00102368       ??_R4SplashScreen@@6BQObject@@@ 00526368     splashscreen.obj
 0002:0010237c       ??_R3SplashScreen@@8       0052637c     splashscreen.obj
 0002:0010238c       ??_R2SplashScreen@@8       0052638c     splashscreen.obj
 0002:001023a4       ??_R1A@?0A@EA@SplashScreen@@8 005263a4     splashscreen.obj
 0002:001023c0       ??_R1A@?0A@EA@QSplashScreen@@8 005263c0     splashscreen.obj
 0002:001023dc       ??_R3QSplashScreen@@8      005263dc     splashscreen.obj
 0002:001023ec       ??_R2QSplashScreen@@8      005263ec     splashscreen.obj
 0002:00102400       ??_R1A@?0A@EA@QWidget@@8   00526400     splashscreen.obj
 0002:0010241c       ??_R3QWidget@@8            0052641c     splashscreen.obj
 0002:0010242c       ??_R2QWidget@@8            0052642c     splashscreen.obj
 0002:0010243c       ??_R17?0A@EA@QPaintDevice@@8 0052643c     splashscreen.obj
 0002:00102458       ??_R3QPaintDevice@@8       00526458     splashscreen.obj
 0002:00102468       ??_R2QPaintDevice@@8       00526468     splashscreen.obj
 0002:00102470       ??_R1A@?0A@EA@QPaintDevice@@8 00526470     splashscreen.obj
 0002:0010248c       ??_R4SplashScreen@@6BQPaintDevice@@@ 0052648c     splashscreen.obj
 0002:001024a0       ??_R4type_info@@6B@        005264a0     MSVCRT:std_type_info_static.obj
 0002:001024b4       ??_R3type_info@@8          005264b4     MSVCRT:std_type_info_static.obj
 0002:001024c4       ??_R2type_info@@8          005264c4     MSVCRT:std_type_info_static.obj
 0002:001024cc       ??_R1A@?0A@EA@type_info@@8 005264cc     MSVCRT:std_type_info_static.obj
 0002:001024e8       ??_R4exception@std@@6B@    005264e8     MSVCRT:throw_bad_alloc.obj
 0002:001024fc       ??_R3exception@std@@8      005264fc     MSVCRT:throw_bad_alloc.obj
 0002:0010250c       ??_R2exception@std@@8      0052650c     MSVCRT:throw_bad_alloc.obj
 0002:00102514       ??_R1A@?0A@EA@exception@std@@8 00526514     MSVCRT:throw_bad_alloc.obj
 0002:00102530       ??_R4bad_alloc@std@@6B@    00526530     MSVCRT:throw_bad_alloc.obj
 0002:00102544       ??_R3bad_alloc@std@@8      00526544     MSVCRT:throw_bad_alloc.obj
 0002:00102554       ??_R2bad_alloc@std@@8      00526554     MSVCRT:throw_bad_alloc.obj
 0002:00102560       ??_R1A@?0A@EA@bad_alloc@std@@8 00526560     MSVCRT:throw_bad_alloc.obj
 0002:0010257c       ??_R4bad_array_new_length@std@@6B@ 0052657c     MSVCRT:throw_bad_alloc.obj
 0002:00102590       ??_R3bad_array_new_length@std@@8 00526590     MSVCRT:throw_bad_alloc.obj
 0002:001025a0       ??_R2bad_array_new_length@std@@8 005265a0     MSVCRT:throw_bad_alloc.obj
 0002:001025b0       ??_R1A@?0A@EA@bad_array_new_length@std@@8 005265b0     MSVCRT:throw_bad_alloc.obj
 0002:001025d0       ___safe_se_handler_table   005265d0     <linker-defined>
 0002:00102c5c       ___rtc_iaa                 00526c5c     MSVCRT:_initsect_.obj
 0002:00102c60       ___rtc_izz                 00526c60     MSVCRT:_initsect_.obj
 0002:00102c64       ___rtc_taa                 00526c64     MSVCRT:_initsect_.obj
 0002:00102c68       ___rtc_tzz                 00526c68     MSVCRT:_initsect_.obj
 0002:0010726c       __TI2?AVbad_alloc@std@@    0052b26c     MSVCRT:throw_bad_alloc.obj
 0002:0010727c       __CTA2?AVbad_alloc@std@@   0052b27c     MSVCRT:throw_bad_alloc.obj
 0002:00107288       __CT??_R0?AVbad_alloc@std@@@8??0bad_alloc@std@@QAE@ABV01@@Z12 0052b288     MSVCRT:throw_bad_alloc.obj
 0002:001072a4       __CT??_R0?AVexception@std@@@8??0exception@std@@QAE@ABV01@@Z12 0052b2a4     MSVCRT:throw_bad_alloc.obj
 0002:001072c0       __TI3?AVbad_array_new_length@std@@ 0052b2c0     MSVCRT:throw_bad_alloc.obj
 0002:001072d0       __CTA3?AVbad_array_new_length@std@@ 0052b2d0     MSVCRT:throw_bad_alloc.obj
 0002:001072e0       __CT??_R0?AVbad_array_new_length@std@@@8??0bad_array_new_length@std@@QAE@ABV01@@Z12 0052b2e0     MSVCRT:throw_bad_alloc.obj
 0002:001072fc       __IMPORT_DESCRIPTOR_pluginframework 0052b2fc     pluginframework:pluginframework.dll
 0002:00107310       __IMPORT_DESCRIPTOR_Qt5Widgets 0052b310     Qt5Widgets:Qt5Widgets.dll
 0002:00107324       __IMPORT_DESCRIPTOR_Qt5Gui 0052b324     Qt5Gui:Qt5Gui.dll
 0002:00107338       __IMPORT_DESCRIPTOR_Qt5Core 0052b338     Qt5Core:Qt5Core.dll
 0002:0010734c       __IMPORT_DESCRIPTOR_KERNEL32 0052b34c     kernel32:KERNEL32.dll
 0002:00107360       __IMPORT_DESCRIPTOR_VCRUNTIME140 0052b360     vcruntime:VCRUNTIME140.dll
 0002:00107374       __IMPORT_DESCRIPTOR_api-ms-win-crt-stdio-l1-1-0 0052b374     ucrt:api-ms-win-crt-stdio-l1-1-0.dll
 0002:00107388       __IMPORT_DESCRIPTOR_api-ms-win-crt-runtime-l1-1-0 0052b388     ucrt:api-ms-win-crt-runtime-l1-1-0.dll
 0002:0010739c       __IMPORT_DESCRIPTOR_api-ms-win-crt-heap-l1-1-0 0052b39c     ucrt:api-ms-win-crt-heap-l1-1-0.dll
 0002:001073b0       __IMPORT_DESCRIPTOR_api-ms-win-crt-math-l1-1-0 0052b3b0     ucrt:api-ms-win-crt-math-l1-1-0.dll
 0002:001073c4       __IMPORT_DESCRIPTOR_api-ms-win-crt-locale-l1-1-0 0052b3c4     ucrt:api-ms-win-crt-locale-l1-1-0.dll
 0002:001073d8       __IMPORT_DESCRIPTOR_SHELL32 0052b3d8     shell32:SHELL32.dll
 0002:001073ec       __NULL_IMPORT_DESCRIPTOR   0052b3ec     pluginframework:pluginframework.dll
 0003:00000000       ?msValueEscapeCodes@Properties@Log4Qt@@0PBDB 00530000     properties.obj
 0003:00000004       ?msValueEscapeChars@Properties@Log4Qt@@0PBDB 00530004     properties.obj
 0003:00000008       ?msKeyEscapeCodes@Properties@Log4Qt@@0PBDB 00530008     properties.obj
 0003:0000000c       ?msKeyEscapeChars@Properties@Log4Qt@@0PBDB 0053000c     properties.obj
 0003:00000010       ?staticMetaObject@ConfiguratorHelper@Log4Qt@@2UQMetaObject@@B 00530010     moc_configuratorhelper.obj
 0003:00000028       ?staticMetaObject@LogObject@Log4Qt@@2UQMetaObject@@B 00530028     moc_logobject.obj
 0003:00000040       ?staticMetaObject@Logger@Log4Qt@@2UQMetaObject@@B 00530040     moc_logger.obj
 0003:00000058       ?staticMetaObject@SplashScreen@@2UQMetaObject@@B 00530058     moc_splashscreen.obj
 0003:00000070       ___security_cookie_complement 00530070     MSVCRT:gs_cookie.obj
 0003:00000074       ___security_cookie         00530074     MSVCRT:gs_cookie.obj
 0003:00000080       ___scrt_native_dllmain_reason 00530080     MSVCRT:utility.obj
 0003:00000084       __fltused                  00530084     MSVCRT:fltused.obj
 0003:00000088       ___isa_enabled             00530088     MSVCRT:_cpu_disp_.obj
 0003:00000090       ___scrt_default_matherr    00530090     MSVCRT:matherr.obj
 0003:00000094       ___scrt_ucrt_dll_is_in_use 00530094     MSVCRT:ucrt_stubs.obj
 0003:00000098       ??_R0?AVLogObject@Log4Qt@@@8 00530098     appenderskeleton.obj
 0003:000000b8       ??_R0?AVQObject@@@8        005300b8     appenderskeleton.obj
 0003:000000d0       ??_R0?AVAppender@Log4Qt@@@8 005300d0     appenderskeleton.obj
 0003:000000f0       ??_R0?AVAppenderSkeleton@Log4Qt@@@8 005300f0     appenderskeleton.obj
 0003:00000118       ??_R0?AVQTextStream@@@8    00530118     consoleappender.obj
 0003:00000134       ??_R0?AVConsoleAppender@Log4Qt@@@8 00530134     consoleappender.obj
 0003:0000015c       ??_R0?AVWriterAppender@Log4Qt@@@8 0053015c     consoleappender.obj
 0003:00000180       ??_R0?AVDailyRollingFileAppender@Log4Qt@@@8 00530180     dailyrollingfileappender.obj
 0003:000001b0       ??_R0?AVFileAppender@Log4Qt@@@8 005301b0     dailyrollingfileappender.obj
 0003:000001d4       ??_R0?AVQFile@@@8          005301d4     fileappender.obj
 0003:000001e8       ??_R0?AVQFileDevice@@@8    005301e8     fileappender.obj
 0003:00000204       ??_R0?AVQIODevice@@@8      00530204     fileappender.obj
 0003:0000021c       ??_R0?AVConfiguratorHelper@Log4Qt@@@8 0053021c     configuratorhelper.obj
 0003:00000244       ??_R0?AVFilter@Log4Qt@@@8  00530244     factory.obj
 0003:00000260       ??_R0?AVLayout@Log4Qt@@@8  00530260     factory.obj
 0003:0000027c       ??_R0?AVSimpleLayout@Log4Qt@@@8 0053027c     factory.obj
 0003:000002a0       ??_R0?AVDebugAppender@Log4Qt@@@8 005302a0     factory.obj
 0003:000002c4       ??_R0?AVDenyAllFilter@Log4Qt@@@8 005302c4     factory.obj
 0003:000002e8       ??_R0?AVInitialisationHelper@Log4Qt@@@8 005302e8     initialisationhelper.obj
 0003:00000314       ??_R0?AVPatternConverter@Log4Qt@@@8 00530314     patternformatter.obj
 0003:0000033c       ??_R0?AVPatternFormatter@Log4Qt@@@8 0053033c     patternformatter.obj
 0003:00000364       ??_R0?AVBasicPatternConverter@Log4Qt@@@8 00530364     patternformatter.obj
 0003:00000390       ??_R0?AVDatePatternConverter@Log4Qt@@@8 00530390     patternformatter.obj
 0003:000003bc       ??_R0?AVLiteralPatternConverter@Log4Qt@@@8 005303bc     patternformatter.obj
 0003:000003ec       ??_R0?AVLoggerPatternConverter@Log4Qt@@@8 005303ec     patternformatter.obj
 0003:00000418       ??_R0?AVMDCPatternConverter@Log4Qt@@@8 00530418     patternformatter.obj
 0003:00000444       ??_R0?AVLoggerRepository@Log4Qt@@@8 00530444     hierarchy.obj
 0003:0000046c       ??_R0?AVHierarchy@Log4Qt@@@8 0053046c     hierarchy.obj
 0003:0000048c       ??_R0?AVLogger@Log4Qt@@@8  0053048c     logger.obj
 0003:000004a8       ??_R0?AVLogManager@Log4Qt@@@8 005304a8     logmanager.obj
 0003:000004c8       ??_R0?AVPatternLayout@Log4Qt@@@8 005304c8     patternlayout.obj
 0003:000004ec       ??_R0?AVRollingFileAppender@Log4Qt@@@8 005304ec     rollingfileappender.obj
 0003:00000518       ??_R0?AVTTCCLayout@Log4Qt@@@8 00530518     ttcclayout.obj
 0003:00000538       ??_R0?AVNullAppender@Log4Qt@@@8 00530538     nullappender.obj
 0003:0000055c       ??_R0?AVLevelMatchFilter@Log4Qt@@@8 0053055c     levelmatchfilter.obj
 0003:00000584       ??_R0?AVLevelRangeFilter@Log4Qt@@@8 00530584     levelrangefilter.obj
 0003:000005ac       ??_R0?AVListAppender@Log4Qt@@@8 005305ac     listappender.obj
 0003:000005d0       ??_R0?AVStringMatchFilter@Log4Qt@@@8 005305d0     stringmatchfilter.obj
 0003:000005f8       ??_R0?AVPluginFramework@ExtensionSystem@@@8 005305f8     main.obj
 0003:00000628       ??_R0?AVSplashScreen@@@8   00530628     splashscreen.obj
 0003:00000644       ??_R0?AVQSplashScreen@@@8  00530644     splashscreen.obj
 0003:00000660       ??_R0?AVQWidget@@@8        00530660     splashscreen.obj
 0003:00000678       ??_R0?AVQPaintDevice@@@8   00530678     splashscreen.obj
 0003:00000694       ??_R0?AVtype_info@@@8      00530694     MSVCRT:std_type_info_static.obj
 0003:000006ac       ??_R0?AVbad_alloc@std@@@8  005306ac     MSVCRT:throw_bad_alloc.obj
 0003:000006c8       ??_R0?AVexception@std@@@8  005306c8     MSVCRT:throw_bad_alloc.obj
 0003:000006e4       ??_R0?AVbad_array_new_length@std@@@8 005306e4     MSVCRT:throw_bad_alloc.obj
 0003:00000718       ?metatype_id@?1??qt_metatype_id@?$QMetaTypeId@VLevel@Log4Qt@@@@SAHXZ@4V?$QBasicAtomicInteger@H@@A 00530718     factory.obj
 0003:00000724       ?msStaticInitialisation@InitialisationHelper@Log4Qt@@0_NA 00530724     initialisationhelper.obj
 0003:00000728       ?metatype_id@?1??qt_metatype_id@?$QMetaTypeId@VLogError@Log4Qt@@@@SAHXZ@4V?$QBasicAtomicInteger@H@@A 00530728     initialisationhelper.obj
 0003:0000072c       ?metatype_id@?1??qt_metatype_id@?$QMetaTypeId@VLoggingEvent@Log4Qt@@@@SAHXZ@4V?$QBasicAtomicInteger@H@@A 0053072c     initialisationhelper.obj
 0003:00000748       ?msSequenceCount@LoggingEvent@Log4Qt@@0_JA 00530748     loggingevent.obj
 0003:00000754       ?mspInstance@LogManager@Log4Qt@@0PAV12@A 00530754     logmanager.obj
 0003:000007fc       ?dummy@?A0xcbdf61e0@@3Uinitializer@1@A 005307fc     qrc_resource.obj
 0003:00000800       ?metatype_id@?1??qt_metatype_id@?$QMetaTypeIdQObject@PAVLogger@Log4Qt@@$07@@SAHXZ@4V?$QBasicAtomicInteger@H@@A 00530800     moc_logger.obj
 0003:00000804       ?metatype_id@?1??qt_metatype_id@?$QMetaTypeIdQObject@PAVFilter@Log4Qt@@$07@@SAHXZ@4V?$QBasicAtomicInteger@H@@A 00530804     moc_filter.obj
 0003:00000808       ___scrt_current_native_startup_state 00530808     MSVCRT:utility.obj
 0003:0000080c       ___scrt_native_startup_lock 0053080c     MSVCRT:utility.obj
 0003:00000b4c       ___isa_available           00530b4c     MSVCRT:_cpu_disp_.obj
 0003:00000b50       ___favor                   00530b50     MSVCRT:_cpu_disp_.obj
 0003:00000b54       ___scrt_debugger_hook_flag 00530b54     MSVCRT:utility_desktop.obj
 0003:00000b58       ?__type_info_root_node@@3U__type_info_node@@A 00530b58     MSVCRT:tncleanup.obj
 0003:00000b60       ?_OptionsStorage@?1??__local_stdio_printf_options@@9@4_KA 00530b60     MSVCRT:default_local_stdio_options.obj
 0003:00000b68       ?_OptionsStorage@?1??__local_stdio_scanf_options@@9@4_KA 00530b68     MSVCRT:default_local_stdio_options.obj
 0003:00000b70       ___dyn_tls_dtor_callback   00530b70     <common>
 0003:00000b74       ___dyn_tls_init_callback   00530b74     <common>

 entry point at        0001:0001e332

 Static symbols

 0000:ffec7000       .debug$S                   00400000     Qt5Core:Qt5Core.dll
 0000:ffec7000       .debug$S                   00400000     kernel32:KERNEL32.dll
 0000:ffec7000       .debug$S                   00400000     kernel32:KERNEL32.dll
 0000:ffec7000       .debug$S                   00400000     shell32:SHELL32.dll
 0000:ffec7000       .debug$S                   00400000     kernel32:KERNEL32.dll
 0000:ffec7000       .debug$S                   00400000     pluginframework:pluginframework.dll
 0000:ffec7000       .debug$S                   00400000     pluginframework:pluginframework.dll
 0000:ffec7000       .debug$S                   00400000     pluginframework:pluginframework.dll
 0000:ffec7000       .debug$S                   00400000     pluginframework:pluginframework.dll
 0000:ffec7000       .debug$S                   00400000     kernel32:KERNEL32.dll
 0000:ffec7000       .debug$S                   00400000     kernel32:KERNEL32.dll
 0000:ffec7000       .debug$S                   00400000     kernel32:KERNEL32.dll
 0000:ffec7000       .debug$S                   00400000     kernel32:KERNEL32.dll
 0000:ffec7000       .debug$S                   00400000     kernel32:KERNEL32.dll
 0000:ffec7000       .debug$S                   00400000     kernel32:KERNEL32.dll
 0000:ffec7000       .debug$S                   00400000     pluginframework:pluginframework.dll
 0000:ffec7000       .debug$S                   00400000     pluginframework:pluginframework.dll
 0000:ffec7000       .debug$S                   00400000     kernel32:KERNEL32.dll
 0000:ffec7000       .debug$S                   00400000     pluginframework:pluginframework.dll
 0000:ffec7000       .debug$S                   00400000     Qt5Core:Qt5Core.dll
 0000:ffec7000       .debug$S                   00400000     Qt5Core:Qt5Core.dll
 0000:ffec7000       .debug$S                   00400000     Qt5Core:Qt5Core.dll
 0000:ffec7000       .debug$S                   00400000     Qt5Core:Qt5Core.dll
 0000:ffec7000       .debug$S                   00400000     pluginframework:pluginframework.dll
 0000:ffec7000       .debug$S                   00400000     pluginframework:pluginframework.dll
 0000:ffec7000       .debug$S                   00400000     Qt5Core:Qt5Core.dll
 0000:ffec7000       .debug$S                   00400000     Qt5Core:Qt5Core.dll
 0000:ffec7000       .debug$S                   00400000     kernel32:KERNEL32.dll
 0000:ffec7000       .debug$S                   00400000     vcruntime:VCRUNTIME140.dll
 0000:ffec7000       .debug$S                   00400000     Qt5Core:Qt5Core.dll
 0000:ffec7000       .debug$S                   00400000     Qt5Core:Qt5Core.dll
 0000:ffec7000       .debug$S                   00400000     Qt5Core:Qt5Core.dll
 0000:ffec7000       .debug$S                   00400000     Qt5Core:Qt5Core.dll
 0000:ffec7000       .debug$S                   00400000     Qt5Core:Qt5Core.dll
 0000:ffec7000       .debug$S                   00400000     Qt5Core:Qt5Core.dll
 0000:ffec7000       .debug$S                   00400000     Qt5Core:Qt5Core.dll
 0000:ffec7000       .debug$S                   00400000     Qt5Core:Qt5Core.dll
 0000:ffec7000       .debug$S                   00400000     Qt5Core:Qt5Core.dll
 0000:ffec7000       .debug$S                   00400000     Qt5Core:Qt5Core.dll
 0000:ffec7000       .debug$S                   00400000     Qt5Core:Qt5Core.dll
 0000:ffec7000       .debug$S                   00400000     Qt5Core:Qt5Core.dll
 0000:ffec7000       .debug$S                   00400000     Qt5Core:Qt5Core.dll
 0000:ffec7000       .debug$S                   00400000     Qt5Core:Qt5Core.dll
 0000:ffec7000       .debug$S                   00400000     Qt5Core:Qt5Core.dll
 0000:ffec7000       .debug$S                   00400000     Qt5Core:Qt5Core.dll
 0000:ffec7000       .debug$S                   00400000     pluginframework:pluginframework.dll
 0000:ffec7000       .debug$S                   00400000     Qt5Core:Qt5Core.dll
 0000:ffec7000       .debug$S                   00400000     Qt5Core:Qt5Core.dll
 0000:ffec7000       .debug$S                   00400000     Qt5Core:Qt5Core.dll
 0000:ffec7000       .debug$S                   00400000     Qt5Core:Qt5Core.dll
 0000:ffec7000       .debug$S                   00400000     pluginframework:pluginframework.dll
 0000:ffec7000       .debug$S                   00400000     pluginframework:pluginframework.dll
 0000:ffec7000       .debug$S                   00400000     Qt5Core:Qt5Core.dll
 0000:ffec7000       .debug$S                   00400000     Qt5Core:Qt5Core.dll
 0000:ffec7000       .debug$S                   00400000     pluginframework:pluginframework.dll
 0000:ffec7000       .debug$S                   00400000     vcruntime:VCRUNTIME140.dll
 0000:ffec7000       .debug$S                   00400000     Qt5Core:Qt5Core.dll
 0000:ffec7000       .debug$S                   00400000     Qt5Core:Qt5Core.dll
 0000:ffec7000       .debug$S                   00400000     Qt5Core:Qt5Core.dll
 0000:ffec7000       .debug$S                   00400000     Qt5Core:Qt5Core.dll
 0000:ffec7000       .debug$S                   00400000     Qt5Core:Qt5Core.dll
 0000:ffec7000       .debug$S                   00400000     Qt5Core:Qt5Core.dll
 0000:ffec7000       .debug$S                   00400000     Qt5Core:Qt5Core.dll
 0000:ffec7000       .debug$S                   00400000     Qt5Core:Qt5Core.dll
 0000:ffec7000       .debug$S                   00400000     Qt5Core:Qt5Core.dll
 0000:ffec7000       .debug$S                   00400000     Qt5Core:Qt5Core.dll
 0000:ffec7000       .debug$S                   00400000     Qt5Core:Qt5Core.dll
 0000:ffec7000       .debug$S                   00400000     Qt5Core:Qt5Core.dll
 0000:ffec7000       .debug$S                   00400000     Qt5Core:Qt5Core.dll
 0000:ffec7000       .debug$S                   00400000     Qt5Core:Qt5Core.dll
 0000:ffec7000       .debug$S                   00400000     Qt5Core:Qt5Core.dll
 0000:ffec7000       .debug$S                   00400000     Qt5Core:Qt5Core.dll
 0000:ffec7000       .debug$S                   00400000     Qt5Core:Qt5Core.dll
 0000:ffec7000       .debug$S                   00400000     Qt5Core:Qt5Core.dll
 0000:ffec7000       .debug$S                   00400000     Qt5Core:Qt5Core.dll
 0000:ffec7000       .debug$S                   00400000     Qt5Core:Qt5Core.dll
 0000:ffec7000       .debug$S                   00400000     Qt5Core:Qt5Core.dll
 0000:ffec7000       .debug$S                   00400000     pluginframework:pluginframework.dll
 0000:ffec7000       .debug$S                   00400000     Qt5Widgets:Qt5Widgets.dll
 0000:ffec7000       .debug$S                   00400000     Qt5Widgets:Qt5Widgets.dll
 0000:ffec7000       .debug$S                   00400000     Qt5Core:Qt5Core.dll
 0000:ffec7000       .debug$S                   00400000     Qt5Core:Qt5Core.dll
 0000:ffec7000       .debug$S                   00400000     vcruntime:VCRUNTIME140.dll
 0000:ffec7000       .debug$S                   00400000     Qt5Core:Qt5Core.dll
 0000:ffec7000       .debug$S                   00400000     Qt5Core:Qt5Core.dll
 0000:ffec7000       .debug$S                   00400000     Qt5Core:Qt5Core.dll
 0000:ffec7000       .debug$S                   00400000     Qt5Core:Qt5Core.dll
 0000:ffec7000       .debug$S                   00400000     Qt5Core:Qt5Core.dll
 0000:ffec7000       .debug$S                   00400000     Qt5Core:Qt5Core.dll
 0000:ffec7000       .debug$S                   00400000     Qt5Widgets:Qt5Widgets.dll
 0000:ffec7000       .debug$S                   00400000     Qt5Widgets:Qt5Widgets.dll
 0000:ffec7000       .debug$S                   00400000     Qt5Widgets:Qt5Widgets.dll
 0000:ffec7000       .debug$S                   00400000     Qt5Widgets:Qt5Widgets.dll
 0000:ffec7000       .debug$S                   00400000     Qt5Widgets:Qt5Widgets.dll
 0000:ffec7000       .debug$S                   00400000     Qt5Widgets:Qt5Widgets.dll
 0000:ffec7000       .debug$S                   00400000     Qt5Widgets:Qt5Widgets.dll
 0000:ffec7000       .debug$S                   00400000     Qt5Widgets:Qt5Widgets.dll
 0000:ffec7000       .debug$S                   00400000     Qt5Widgets:Qt5Widgets.dll
 0000:ffec7000       .debug$S                   00400000     Qt5Widgets:Qt5Widgets.dll
 0000:ffec7000       .debug$S                   00400000     vcruntime:VCRUNTIME140.dll
 0000:ffec7000       .debug$S                   00400000     Qt5Core:Qt5Core.dll
 0000:ffec7000       .debug$S                   00400000     Qt5Core:Qt5Core.dll
 0000:ffec7000       .debug$S                   00400000     Qt5Core:Qt5Core.dll
 0000:ffec7000       .debug$S                   00400000     Qt5Core:Qt5Core.dll
 0000:ffec7000       .debug$S                   00400000     Qt5Core:Qt5Core.dll
 0000:ffec7000       .debug$S                   00400000     Qt5Core:Qt5Core.dll
 0000:ffec7000       .debug$S                   00400000     Qt5Core:Qt5Core.dll
 0000:ffec7000       .debug$S                   00400000     Qt5Core:Qt5Core.dll
 0000:ffec7000       .debug$S                   00400000     Qt5Core:Qt5Core.dll
 0000:ffec7000       .debug$S                   00400000     Qt5Core:Qt5Core.dll
 0000:ffec7000       .debug$S                   00400000     Qt5Core:Qt5Core.dll
 0000:ffec7000       .debug$S                   00400000     Qt5Core:Qt5Core.dll
 0000:ffec7000       .debug$S                   00400000     Qt5Core:Qt5Core.dll
 0000:ffec7000       .debug$S                   00400000     Qt5Core:Qt5Core.dll
 0000:ffec7000       .debug$S                   00400000     Qt5Core:Qt5Core.dll
 0000:ffec7000       .debug$S                   00400000     Qt5Core:Qt5Core.dll
 0000:ffec7000       .debug$S                   00400000     Qt5Core:Qt5Core.dll
 0000:ffec7000       .debug$S                   00400000     Qt5Core:Qt5Core.dll
 0000:ffec7000       .debug$S                   00400000     Qt5Core:Qt5Core.dll
 0000:ffec7000       .debug$S                   00400000     Qt5Core:Qt5Core.dll
 0000:ffec7000       .debug$S                   00400000     Qt5Core:Qt5Core.dll
 0000:ffec7000       .debug$S                   00400000     Qt5Core:Qt5Core.dll
 0000:ffec7000       .debug$S                   00400000     Qt5Core:Qt5Core.dll
 0000:ffec7000       .debug$S                   00400000     Qt5Core:Qt5Core.dll
 0000:ffec7000       .debug$S                   00400000     Qt5Core:Qt5Core.dll
 0000:ffec7000       .debug$S                   00400000     Qt5Core:Qt5Core.dll
 0000:ffec7000       .debug$S                   00400000     Qt5Core:Qt5Core.dll
 0000:ffec7000       .debug$S                   00400000     Qt5Core:Qt5Core.dll
 0000:ffec7000       .debug$S                   00400000     Qt5Core:Qt5Core.dll
 0000:ffec7000       .debug$S                   00400000     Qt5Core:Qt5Core.dll
 0000:ffec7000       .debug$S                   00400000     Qt5Core:Qt5Core.dll
 0000:ffec7000       .debug$S                   00400000     Qt5Core:Qt5Core.dll
 0000:ffec7000       .debug$S                   00400000     Qt5Core:Qt5Core.dll
 0000:ffec7000       .debug$S                   00400000     Qt5Core:Qt5Core.dll
 0000:ffec7000       .debug$S                   00400000     Qt5Core:Qt5Core.dll
 0000:ffec7000       .debug$S                   00400000     Qt5Core:Qt5Core.dll
 0000:ffec7000       .debug$S                   00400000     Qt5Core:Qt5Core.dll
 0000:ffec7000       .debug$S                   00400000     Qt5Core:Qt5Core.dll
 0000:ffec7000       .debug$S                   00400000     Qt5Core:Qt5Core.dll
 0000:ffec7000       .debug$S                   00400000     Qt5Core:Qt5Core.dll
 0000:ffec7000       .debug$S                   00400000     Qt5Widgets:Qt5Widgets.dll
 0000:ffec7000       .debug$S                   00400000     Qt5Widgets:Qt5Widgets.dll
 0000:ffec7000       .debug$S                   00400000     Qt5Widgets:Qt5Widgets.dll
 0000:ffec7000       .debug$S                   00400000     Qt5Widgets:Qt5Widgets.dll
 0000:ffec7000       .debug$S                   00400000     Qt5Widgets:Qt5Widgets.dll
 0000:ffec7000       .debug$S                   00400000     Qt5Widgets:Qt5Widgets.dll
 0000:ffec7000       .debug$S                   00400000     Qt5Widgets:Qt5Widgets.dll
 0000:ffec7000       .debug$S                   00400000     Qt5Widgets:Qt5Widgets.dll
 0000:ffec7000       .debug$S                   00400000     Qt5Widgets:Qt5Widgets.dll
 0000:ffec7000       .debug$S                   00400000     Qt5Widgets:Qt5Widgets.dll
 0000:ffec7000       .debug$S                   00400000     Qt5Widgets:Qt5Widgets.dll
 0000:ffec7000       .debug$S                   00400000     Qt5Widgets:Qt5Widgets.dll
 0000:ffec7000       .debug$S                   00400000     Qt5Widgets:Qt5Widgets.dll
 0000:ffec7000       .debug$S                   00400000     Qt5Widgets:Qt5Widgets.dll
 0000:ffec7000       .debug$S                   00400000     Qt5Widgets:Qt5Widgets.dll
 0000:ffec7000       .debug$S                   00400000     Qt5Widgets:Qt5Widgets.dll
 0000:ffec7000       .debug$S                   00400000     Qt5Widgets:Qt5Widgets.dll
 0000:ffec7000       .debug$S                   00400000     Qt5Widgets:Qt5Widgets.dll
 0000:ffec7000       .debug$S                   00400000     Qt5Widgets:Qt5Widgets.dll
 0000:ffec7000       .debug$S                   00400000     Qt5Widgets:Qt5Widgets.dll
 0000:ffec7000       .debug$S                   00400000     Qt5Widgets:Qt5Widgets.dll
 0000:ffec7000       .debug$S                   00400000     Qt5Widgets:Qt5Widgets.dll
 0000:ffec7000       .debug$S                   00400000     Qt5Widgets:Qt5Widgets.dll
 0000:ffec7000       .debug$S                   00400000     kernel32:KERNEL32.dll
 0000:ffec7000       .debug$S                   00400000     Qt5Widgets:Qt5Widgets.dll
 0000:ffec7000       .debug$S                   00400000     Qt5Widgets:Qt5Widgets.dll
 0000:ffec7000       .debug$S                   00400000     Qt5Widgets:Qt5Widgets.dll
 0000:ffec7000       .debug$S                   00400000     Qt5Widgets:Qt5Widgets.dll
 0000:ffec7000       .debug$S                   00400000     Qt5Widgets:Qt5Widgets.dll
 0000:ffec7000       .debug$S                   00400000     Qt5Widgets:Qt5Widgets.dll
 0000:ffec7000       .debug$S                   00400000     Qt5Widgets:Qt5Widgets.dll
 0000:ffec7000       .debug$S                   00400000     Qt5Widgets:Qt5Widgets.dll
 0000:ffec7000       .debug$S                   00400000     Qt5Widgets:Qt5Widgets.dll
 0000:ffec7000       .debug$S                   00400000     kernel32:KERNEL32.dll
 0000:ffec7000       .debug$S                   00400000     Qt5Widgets:Qt5Widgets.dll
 0000:ffec7000       .debug$S                   00400000     Qt5Core:Qt5Core.dll
 0000:ffec7000       .debug$S                   00400000     Qt5Core:Qt5Core.dll
 0000:ffec7000       .debug$S                   00400000     Qt5Core:Qt5Core.dll
 0000:ffec7000       .debug$S                   00400000     Qt5Core:Qt5Core.dll
 0000:ffec7000       .debug$S                   00400000     Qt5Core:Qt5Core.dll
 0000:ffec7000       .debug$S                   00400000     Qt5Core:Qt5Core.dll
 0000:ffec7000       .debug$S                   00400000     Qt5Core:Qt5Core.dll
 0000:ffec7000       .debug$S                   00400000     Qt5Core:Qt5Core.dll
 0000:ffec7000       .debug$S                   00400000     Qt5Core:Qt5Core.dll
 0000:ffec7000       .debug$S                   00400000     Qt5Core:Qt5Core.dll
 0000:ffec7000       .debug$S                   00400000     Qt5Core:Qt5Core.dll
 0000:ffec7000       .debug$S                   00400000     Qt5Core:Qt5Core.dll
 0000:ffec7000       .debug$S                   00400000     Qt5Core:Qt5Core.dll
 0000:ffec7000       .debug$S                   00400000     Qt5Core:Qt5Core.dll
 0000:ffec7000       .debug$S                   00400000     Qt5Core:Qt5Core.dll
 0000:ffec7000       .debug$S                   00400000     Qt5Core:Qt5Core.dll
 0000:ffec7000       .debug$S                   00400000     Qt5Core:Qt5Core.dll
 0000:ffec7000       .debug$S                   00400000     Qt5Core:Qt5Core.dll
 0000:ffec7000       .debug$S                   00400000     Qt5Core:Qt5Core.dll
 0000:ffec7000       .debug$S                   00400000     Qt5Core:Qt5Core.dll
 0000:ffec7000       .debug$S                   00400000     Qt5Core:Qt5Core.dll
 0000:ffec7000       .debug$S                   00400000     Qt5Core:Qt5Core.dll
 0000:ffec7000       .debug$S                   00400000     Qt5Core:Qt5Core.dll
 0000:ffec7000       .debug$S                   00400000     Qt5Core:Qt5Core.dll
 0000:ffec7000       .debug$S                   00400000     Qt5Core:Qt5Core.dll
 0000:ffec7000       .debug$S                   00400000     Qt5Core:Qt5Core.dll
 0000:ffec7000       .debug$S                   00400000     Qt5Core:Qt5Core.dll
 0000:ffec7000       .debug$S                   00400000     Qt5Core:Qt5Core.dll
 0000:ffec7000       .debug$S                   00400000     Qt5Core:Qt5Core.dll
 0000:ffec7000       .debug$S                   00400000     Qt5Core:Qt5Core.dll
 0000:ffec7000       .debug$S                   00400000     Qt5Core:Qt5Core.dll
 0000:ffec7000       .debug$S                   00400000     kernel32:KERNEL32.dll
 0000:ffec7000       .debug$S                   00400000     Qt5Core:Qt5Core.dll
 0000:ffec7000       .debug$S                   00400000     vcruntime:VCRUNTIME140.dll
 0000:ffec7000       .debug$S                   00400000     vcruntime:VCRUNTIME140.dll
 0000:ffec7000       .debug$S                   00400000     Qt5Widgets:Qt5Widgets.dll
 0000:ffec7000       .debug$S                   00400000     Qt5Core:Qt5Core.dll
 0000:ffec7000       .debug$S                   00400000     Qt5Core:Qt5Core.dll
 0000:ffec7000       .debug$S                   00400000     Qt5Core:Qt5Core.dll
 0000:ffec7000       .debug$S                   00400000     Qt5Core:Qt5Core.dll
 0000:ffec7000       .debug$S                   00400000     Qt5Core:Qt5Core.dll
 0000:ffec7000       .debug$S                   00400000     Qt5Core:Qt5Core.dll
 0000:ffec7000       .debug$S                   00400000     Qt5Core:Qt5Core.dll
 0000:ffec7000       .debug$S                   00400000     Qt5Core:Qt5Core.dll
 0000:ffec7000       .debug$S                   00400000     Qt5Core:Qt5Core.dll
 0000:ffec7000       .debug$S                   00400000     Qt5Core:Qt5Core.dll
 0000:ffec7000       .debug$S                   00400000     Qt5Core:Qt5Core.dll
 0000:ffec7000       .debug$S                   00400000     Qt5Core:Qt5Core.dll
 0000:ffec7000       .debug$S                   00400000     Qt5Core:Qt5Core.dll
 0000:ffec7000       .debug$S                   00400000     Qt5Core:Qt5Core.dll
 0000:ffec7000       .debug$S                   00400000     Qt5Core:Qt5Core.dll
 0000:ffec7000       .debug$S                   00400000     Qt5Core:Qt5Core.dll
 0000:ffec7000       .debug$S                   00400000     Qt5Core:Qt5Core.dll
 0000:ffec7000       .debug$S                   00400000     Qt5Core:Qt5Core.dll
 0000:ffec7000       .debug$S                   00400000     Qt5Core:Qt5Core.dll
 0000:ffec7000       .debug$S                   00400000     Qt5Core:Qt5Core.dll
 0000:ffec7000       .debug$S                   00400000     Qt5Core:Qt5Core.dll
 0000:ffec7000       .debug$S                   00400000     Qt5Core:Qt5Core.dll
 0000:ffec7000       .debug$S                   00400000     kernel32:KERNEL32.dll
 0000:ffec7000       .debug$S                   00400000     Qt5Widgets:Qt5Widgets.dll
 0000:ffec7000       .debug$S                   00400000     Qt5Widgets:Qt5Widgets.dll
 0000:ffec7000       .debug$S                   00400000     Qt5Widgets:Qt5Widgets.dll
 0000:ffec7000       .debug$S                   00400000     Qt5Widgets:Qt5Widgets.dll
 0000:ffec7000       .debug$S                   00400000     Qt5Widgets:Qt5Widgets.dll
 0000:ffec7000       .debug$S                   00400000     Qt5Widgets:Qt5Widgets.dll
 0000:ffec7000       .debug$S                   00400000     Qt5Widgets:Qt5Widgets.dll
 0000:ffec7000       .debug$S                   00400000     Qt5Widgets:Qt5Widgets.dll
 0000:ffec7000       .debug$S                   00400000     Qt5Widgets:Qt5Widgets.dll
 0000:ffec7000       .debug$S                   00400000     Qt5Widgets:Qt5Widgets.dll
 0000:ffec7000       .debug$S                   00400000     Qt5Core:Qt5Core.dll
 0000:ffec7000       .debug$S                   00400000     Qt5Core:Qt5Core.dll
 0000:ffec7000       .debug$S                   00400000     Qt5Core:Qt5Core.dll
 0000:ffec7000       .debug$S                   00400000     Qt5Core:Qt5Core.dll
 0000:ffec7000       .debug$S                   00400000     Qt5Core:Qt5Core.dll
 0000:ffec7000       .debug$S                   00400000     Qt5Core:Qt5Core.dll
 0000:ffec7000       .debug$S                   00400000     Qt5Core:Qt5Core.dll
 0000:ffec7000       .debug$S                   00400000     Qt5Core:Qt5Core.dll
 0000:ffec7000       .debug$S                   00400000     Qt5Gui:Qt5Gui.dll
 0000:ffec7000       .debug$S                   00400000     Qt5Gui:Qt5Gui.dll
 0000:ffec7000       .debug$S                   00400000     Qt5Core:Qt5Core.dll
 0000:ffec7000       .debug$S                   00400000     Qt5Core:Qt5Core.dll
 0000:ffec7000       .debug$S                   00400000     Qt5Core:Qt5Core.dll
 0000:ffec7000       .debug$S                   00400000     Qt5Core:Qt5Core.dll
 0000:ffec7000       .debug$S                   00400000     Qt5Core:Qt5Core.dll
 0000:ffec7000       .debug$S                   00400000     Qt5Core:Qt5Core.dll
 0000:ffec7000       .debug$S                   00400000     Qt5Core:Qt5Core.dll
 0000:ffec7000       .debug$S                   00400000     Qt5Core:Qt5Core.dll
 0000:ffec7000       .debug$S                   00400000     ucrt:api-ms-win-crt-heap-l1-1-0.dll
 0000:ffec7000       .debug$S                   00400000     ucrt:api-ms-win-crt-heap-l1-1-0.dll
 0000:ffec7000       .debug$S                   00400000     ucrt:api-ms-win-crt-heap-l1-1-0.dll
 0000:ffec7000       .debug$S                   00400000     ucrt:api-ms-win-crt-heap-l1-1-0.dll
 0000:ffec7000       .debug$S                   00400000     ucrt:api-ms-win-crt-locale-l1-1-0.dll
 0000:ffec7000       .debug$S                   00400000     ucrt:api-ms-win-crt-math-l1-1-0.dll
 0000:ffec7000       .debug$S                   00400000     Qt5Core:Qt5Core.dll
 0000:ffec7000       .debug$S                   00400000     ucrt:api-ms-win-crt-runtime-l1-1-0.dll
 0000:ffec7000       .debug$S                   00400000     ucrt:api-ms-win-crt-runtime-l1-1-0.dll
 0000:ffec7000       .debug$S                   00400000     ucrt:api-ms-win-crt-runtime-l1-1-0.dll
 0000:ffec7000       .debug$S                   00400000     ucrt:api-ms-win-crt-runtime-l1-1-0.dll
 0000:ffec7000       .debug$S                   00400000     ucrt:api-ms-win-crt-runtime-l1-1-0.dll
 0000:ffec7000       .debug$S                   00400000     ucrt:api-ms-win-crt-runtime-l1-1-0.dll
 0000:ffec7000       .debug$S                   00400000     ucrt:api-ms-win-crt-runtime-l1-1-0.dll
 0000:ffec7000       .debug$S                   00400000     ucrt:api-ms-win-crt-runtime-l1-1-0.dll
 0000:ffec7000       .debug$S                   00400000     ucrt:api-ms-win-crt-runtime-l1-1-0.dll
 0000:ffec7000       .debug$S                   00400000     ucrt:api-ms-win-crt-runtime-l1-1-0.dll
 0000:ffec7000       .debug$S                   00400000     ucrt:api-ms-win-crt-runtime-l1-1-0.dll
 0000:ffec7000       .debug$S                   00400000     ucrt:api-ms-win-crt-runtime-l1-1-0.dll
 0000:ffec7000       .debug$S                   00400000     ucrt:api-ms-win-crt-runtime-l1-1-0.dll
 0000:ffec7000       .debug$S                   00400000     ucrt:api-ms-win-crt-runtime-l1-1-0.dll
 0000:ffec7000       .debug$S                   00400000     ucrt:api-ms-win-crt-runtime-l1-1-0.dll
 0000:ffec7000       .debug$S                   00400000     ucrt:api-ms-win-crt-runtime-l1-1-0.dll
 0000:ffec7000       .debug$S                   00400000     ucrt:api-ms-win-crt-runtime-l1-1-0.dll
 0000:ffec7000       .debug$S                   00400000     ucrt:api-ms-win-crt-runtime-l1-1-0.dll
 0000:ffec7000       .debug$S                   00400000     ucrt:api-ms-win-crt-runtime-l1-1-0.dll
 0000:ffec7000       .debug$S                   00400000     ucrt:api-ms-win-crt-runtime-l1-1-0.dll
 0000:ffec7000       .debug$S                   00400000     Qt5Core:Qt5Core.dll
 0000:ffec7000       .debug$S                   00400000     ucrt:api-ms-win-crt-stdio-l1-1-0.dll
 0000:ffec7000       .debug$S                   00400000     ucrt:api-ms-win-crt-stdio-l1-1-0.dll
 0000:ffec7000       .debug$S                   00400000     ucrt:api-ms-win-crt-stdio-l1-1-0.dll
 0000:ffec7000       .debug$S                   00400000     Qt5Core:Qt5Core.dll
 0000:ffec7000       .debug$S                   00400000     vcruntime:VCRUNTIME140.dll
 0000:ffec7000       .debug$S                   00400000     vcruntime:VCRUNTIME140.dll
 0000:ffec7000       .debug$S                   00400000     vcruntime:VCRUNTIME140.dll
 0000:ffec7000       .debug$S                   00400000     vcruntime:VCRUNTIME140.dll
 0000:ffec7000       .debug$S                   00400000     kernel32:KERNEL32.dll
 0000:ffec7000       .debug$S                   00400000     Qt5Gui:Qt5Gui.dll
 0000:ffec7000       .debug$S                   00400000     Qt5Gui:Qt5Gui.dll
 0000:ffec7000       .debug$S                   00400000     kernel32:KERNEL32.dll
 0000:ffec7000       .debug$S                   00400000     Qt5Gui:Qt5Gui.dll
 0000:ffec7000       .debug$S                   00400000     Qt5Gui:Qt5Gui.dll
 0000:ffec7000       .debug$S                   00400000     Qt5Core:Qt5Core.dll
 0000:ffec7000       .debug$S                   00400000     Qt5Core:Qt5Core.dll
 0000:ffec7000       .debug$S                   00400000     Qt5Core:Qt5Core.dll
 0000:ffec7000       .debug$S                   00400000     Qt5Core:Qt5Core.dll
 0000:ffec7000       .debug$S                   00400000     Qt5Core:Qt5Core.dll
 0000:ffec7000       .debug$S                   00400000     Qt5Core:Qt5Core.dll
 0000:ffec7000       .debug$S                   00400000     Qt5Core:Qt5Core.dll
 0000:ffec7000       .debug$S                   00400000     Qt5Core:Qt5Core.dll
 0000:ffec7000       .debug$S                   00400000     Qt5Core:Qt5Core.dll
 0000:ffec7000       .debug$S                   00400000     Qt5Core:Qt5Core.dll
 0000:ffec7000       .debug$S                   00400000     Qt5Core:Qt5Core.dll
 0000:ffec7000       .debug$S                   00400000     Qt5Core:Qt5Core.dll
 0000:ffec7000       .debug$S                   00400000     Qt5Core:Qt5Core.dll
 0000:ffec7000       .debug$S                   00400000     Qt5Core:Qt5Core.dll
 0000:ffec7000       .debug$S                   00400000     Qt5Core:Qt5Core.dll
 0000:ffec7000       .debug$S                   00400000     Qt5Core:Qt5Core.dll
 0000:ffec7000       .debug$S                   00400000     Qt5Core:Qt5Core.dll
 0000:ffec7000       .debug$S                   00400000     Qt5Core:Qt5Core.dll
 0000:ffec7000       .debug$S                   00400000     Qt5Core:Qt5Core.dll
 0000:ffec7000       .debug$S                   00400000     Qt5Core:Qt5Core.dll
 0000:ffec7000       .debug$S                   00400000     Qt5Core:Qt5Core.dll
 0000:ffec7000       .debug$S                   00400000     Qt5Core:Qt5Core.dll
 0000:ffec7000       .debug$S                   00400000     Qt5Core:Qt5Core.dll
 0000:ffec7000       .debug$S                   00400000     Qt5Core:Qt5Core.dll
 0000:ffec7000       .debug$S                   00400000     Qt5Core:Qt5Core.dll
 0000:ffec7000       .debug$S                   00400000     Qt5Core:Qt5Core.dll
 0000:ffec7000       .debug$S                   00400000     Qt5Core:Qt5Core.dll
 0000:ffec7000       .debug$S                   00400000     Qt5Core:Qt5Core.dll
 0000:ffec7000       .debug$S                   00400000     Qt5Core:Qt5Core.dll
 0000:ffec7000       .debug$S                   00400000     Qt5Core:Qt5Core.dll
 0000:ffec7000       .debug$S                   00400000     Qt5Core:Qt5Core.dll
 0000:ffec7000       .debug$S                   00400000     Qt5Core:Qt5Core.dll
 0000:ffec7000       .debug$S                   00400000     Qt5Core:Qt5Core.dll
 0000:ffec7000       .debug$S                   00400000     Qt5Core:Qt5Core.dll
 0000:ffec7000       .debug$S                   00400000     Qt5Core:Qt5Core.dll
 0000:ffec7000       .debug$S                   00400000     Qt5Core:Qt5Core.dll
 0000:ffec7000       .debug$S                   00400000     Qt5Core:Qt5Core.dll
 0000:ffec7000       .debug$S                   00400000     Qt5Core:Qt5Core.dll
 0000:ffec7000       .debug$S                   00400000     Qt5Core:Qt5Core.dll
 0000:ffec7000       .debug$S                   00400000     Qt5Core:Qt5Core.dll
 0000:ffec7000       .debug$S                   00400000     Qt5Core:Qt5Core.dll
 0000:ffec7000       .debug$S                   00400000     Qt5Core:Qt5Core.dll
 0000:ffec7000       .debug$S                   00400000     Qt5Core:Qt5Core.dll
 0000:ffec7000       .debug$S                   00400000     Qt5Core:Qt5Core.dll
 0000:ffec7000       .debug$S                   00400000     Qt5Core:Qt5Core.dll
 0000:ffec7000       .debug$S                   00400000     Qt5Core:Qt5Core.dll
 0000:ffec7000       .debug$S                   00400000     Qt5Core:Qt5Core.dll
 0000:ffec7000       .debug$S                   00400000     Qt5Core:Qt5Core.dll
 0000:ffec7000       .debug$S                   00400000     Qt5Core:Qt5Core.dll
 0000:ffec7000       .debug$S                   00400000     Qt5Core:Qt5Core.dll
 0000:ffec7000       .debug$S                   00400000     Qt5Core:Qt5Core.dll
 0000:ffec7000       .debug$S                   00400000     Qt5Core:Qt5Core.dll
 0000:ffec7000       .debug$S                   00400000     Qt5Core:Qt5Core.dll
 0000:ffec7000       .debug$S                   00400000     Qt5Core:Qt5Core.dll
 0000:ffec7000       .debug$S                   00400000     Qt5Core:Qt5Core.dll
 0000:ffec7000       .debug$S                   00400000     Qt5Core:Qt5Core.dll
 0000:ffec7000       .debug$S                   00400000     Qt5Core:Qt5Core.dll
 0000:ffec7000       .debug$S                   00400000     Qt5Core:Qt5Core.dll
 0000:ffec7000       .debug$S                   00400000     Qt5Core:Qt5Core.dll
 0000:ffec7000       .debug$S                   00400000     Qt5Core:Qt5Core.dll
 0000:ffec7000       .debug$S                   00400000     Qt5Core:Qt5Core.dll
 0000:ffec7000       .debug$S                   00400000     Qt5Core:Qt5Core.dll
 0000:ffec7000       .debug$S                   00400000     Qt5Core:Qt5Core.dll
 0000:ffec7000       .debug$S                   00400000     Qt5Core:Qt5Core.dll
 0000:ffec7000       .debug$S                   00400000     Qt5Core:Qt5Core.dll
 0000:ffec7000       .debug$S                   00400000     Qt5Core:Qt5Core.dll
 0000:ffec7000       .debug$S                   00400000     Qt5Core:Qt5Core.dll
 0000:ffec7000       .debug$S                   00400000     Qt5Core:Qt5Core.dll
 0000:ffec7000       .debug$S                   00400000     Qt5Core:Qt5Core.dll
 0000:ffec7000       .debug$S                   00400000     Qt5Core:Qt5Core.dll
 0000:ffec7000       .debug$S                   00400000     Qt5Core:Qt5Core.dll
 0000:ffec7000       .debug$S                   00400000     Qt5Core:Qt5Core.dll
 0000:ffec7000       .debug$S                   00400000     Qt5Core:Qt5Core.dll
 0000:ffec7000       .debug$S                   00400000     Qt5Core:Qt5Core.dll
 0000:ffec7000       .debug$S                   00400000     Qt5Core:Qt5Core.dll
 0000:ffec7000       .debug$S                   00400000     Qt5Core:Qt5Core.dll
 0000:ffec7000       .debug$S                   00400000     Qt5Core:Qt5Core.dll
 0000:ffec7000       .debug$S                   00400000     Qt5Core:Qt5Core.dll
 0000:ffec7000       .debug$S                   00400000     Qt5Core:Qt5Core.dll
 0000:ffec7000       .debug$S                   00400000     Qt5Core:Qt5Core.dll
 0000:ffec7000       .debug$S                   00400000     Qt5Core:Qt5Core.dll
 0000:ffec7000       .debug$S                   00400000     Qt5Core:Qt5Core.dll
 0000:ffec7000       .debug$S                   00400000     Qt5Core:Qt5Core.dll
 0000:ffec7000       .debug$S                   00400000     Qt5Core:Qt5Core.dll
 0000:ffec7000       .debug$S                   00400000     Qt5Core:Qt5Core.dll
 0000:ffec7000       .debug$S                   00400000     Qt5Core:Qt5Core.dll
 0000:ffec7000       .debug$S                   00400000     Qt5Core:Qt5Core.dll
 0000:ffec7000       .debug$S                   00400000     Qt5Core:Qt5Core.dll
 0000:ffec7000       .debug$S                   00400000     Qt5Core:Qt5Core.dll
 0000:ffec7000       .debug$S                   00400000     Qt5Core:Qt5Core.dll
 0000:ffec7000       .debug$S                   00400000     Qt5Core:Qt5Core.dll
 0000:ffec7000       .debug$S                   00400000     Qt5Core:Qt5Core.dll
 0000:ffec7000       .debug$S                   00400000     Qt5Core:Qt5Core.dll
 0000:ffec7000       .debug$S                   00400000     Qt5Core:Qt5Core.dll
 0000:ffec7000       .debug$S                   00400000     Qt5Core:Qt5Core.dll
 0000:ffec7000       .debug$S                   00400000     Qt5Core:Qt5Core.dll
 0000:ffec7000       .debug$S                   00400000     Qt5Core:Qt5Core.dll
 0000:ffec7000       .debug$S                   00400000     Qt5Core:Qt5Core.dll
 0000:ffec7000       .debug$S                   00400000     Qt5Core:Qt5Core.dll
 0000:ffec7000       .debug$S                   00400000     Qt5Core:Qt5Core.dll
 0000:ffec7000       .debug$S                   00400000     Qt5Core:Qt5Core.dll
 0000:ffec7000       .debug$S                   00400000     Qt5Core:Qt5Core.dll
 0000:ffec7000       .debug$S                   00400000     Qt5Core:Qt5Core.dll
 0000:ffec7000       .debug$S                   00400000     Qt5Core:Qt5Core.dll
 0000:ffec7000       .debug$S                   00400000     Qt5Core:Qt5Core.dll
 0000:ffec7000       .debug$S                   00400000     Qt5Core:Qt5Core.dll
 0000:ffec7000       .debug$S                   00400000     Qt5Core:Qt5Core.dll
 0000:ffec7000       .debug$S                   00400000     Qt5Core:Qt5Core.dll
 0000:ffec7000       .debug$S                   00400000     Qt5Core:Qt5Core.dll
 0000:ffec7000       .debug$S                   00400000     Qt5Core:Qt5Core.dll
 0000:ffec7000       .debug$S                   00400000     Qt5Core:Qt5Core.dll
 0000:ffec7000       .debug$S                   00400000     Qt5Core:Qt5Core.dll
 0000:ffec7000       .debug$S                   00400000     Qt5Core:Qt5Core.dll
 0000:ffec7000       .debug$S                   00400000     Qt5Core:Qt5Core.dll
 0000:ffec7000       .debug$S                   00400000     Qt5Core:Qt5Core.dll
 0000:ffec7000       .debug$S                   00400000     Qt5Core:Qt5Core.dll
 0000:ffec7000       .debug$S                   00400000     Qt5Core:Qt5Core.dll
 0000:ffec7000       .debug$S                   00400000     Qt5Core:Qt5Core.dll
 0000:ffec7000       .debug$S                   00400000     Qt5Core:Qt5Core.dll
 0000:ffec7000       .debug$S                   00400000     Qt5Core:Qt5Core.dll
 0000:ffec7000       .debug$S                   00400000     Qt5Core:Qt5Core.dll
 0000:ffec7000       .debug$S                   00400000     Qt5Core:Qt5Core.dll
 0000:ffec7000       .debug$S                   00400000     Qt5Core:Qt5Core.dll
 0000:ffec7000       .debug$S                   00400000     Qt5Core:Qt5Core.dll
 0000:ffec7000       .debug$S                   00400000     Qt5Core:Qt5Core.dll
 0000:ffec7000       .debug$S                   00400000     Qt5Core:Qt5Core.dll
 0000:ffec7000       .debug$S                   00400000     Qt5Core:Qt5Core.dll
 0000:ffec7000       .debug$S                   00400000     Qt5Core:Qt5Core.dll
 0000:ffec7000       .debug$S                   00400000     Qt5Core:Qt5Core.dll
 0000:ffec7000       .debug$S                   00400000     Qt5Core:Qt5Core.dll
 0000:ffec7000       .debug$S                   00400000     Qt5Core:Qt5Core.dll
 0000:ffec7000       .debug$S                   00400000     Qt5Core:Qt5Core.dll
 0000:ffec7000       .debug$S                   00400000     Qt5Core:Qt5Core.dll
 0000:ffec7000       .debug$S                   00400000     Qt5Core:Qt5Core.dll
 0000:ffec7000       .debug$S                   00400000     Qt5Core:Qt5Core.dll
 0000:ffec7000       .debug$S                   00400000     Qt5Core:Qt5Core.dll
 0000:ffec7000       .debug$S                   00400000     Qt5Core:Qt5Core.dll
 0000:ffec7000       .debug$S                   00400000     Qt5Core:Qt5Core.dll
 0000:ffec7000       .debug$S                   00400000     Qt5Core:Qt5Core.dll
 0000:ffec7000       .debug$S                   00400000     Qt5Core:Qt5Core.dll
 0000:ffec7000       .debug$S                   00400000     Qt5Core:Qt5Core.dll
 0000:ffec7000       .debug$S                   00400000     Qt5Core:Qt5Core.dll
 0000:ffec7000       .debug$S                   00400000     Qt5Core:Qt5Core.dll
 0000:ffec7000       .debug$S                   00400000     Qt5Core:Qt5Core.dll
 0000:ffec7000       .debug$S                   00400000     Qt5Core:Qt5Core.dll
 0000:ffec7000       .debug$S                   00400000     Qt5Core:Qt5Core.dll
 0000:ffec7000       .debug$S                   00400000     Qt5Core:Qt5Core.dll
 0000:ffec7000       .debug$S                   00400000     Qt5Core:Qt5Core.dll
 0000:ffec7000       .debug$S                   00400000     Qt5Core:Qt5Core.dll
 0000:ffec7000       .debug$S                   00400000     Qt5Core:Qt5Core.dll
 0000:ffec7000       .debug$S                   00400000     Qt5Core:Qt5Core.dll
 0000:ffec7000       .debug$S                   00400000     Qt5Core:Qt5Core.dll
 0000:ffec7000       .debug$S                   00400000     Qt5Core:Qt5Core.dll
 0000:ffec7000       .debug$S                   00400000     Qt5Core:Qt5Core.dll
 0000:ffec7000       .debug$S                   00400000     Qt5Core:Qt5Core.dll
 0000:ffec7000       .debug$S                   00400000     Qt5Core:Qt5Core.dll
 0000:ffec7000       .debug$S                   00400000     Qt5Core:Qt5Core.dll
 0000:ffec7000       .debug$S                   00400000     Qt5Core:Qt5Core.dll
 0000:ffec7000       .debug$S                   00400000     Qt5Core:Qt5Core.dll
 0000:ffec7000       .debug$S                   00400000     Qt5Core:Qt5Core.dll
 0000:ffec7000       .debug$S                   00400000     Qt5Core:Qt5Core.dll
 0000:ffec7000       .debug$S                   00400000     Qt5Core:Qt5Core.dll
 0000:ffec7000       .debug$S                   00400000     Qt5Core:Qt5Core.dll
 0001:00000000       ??__E?msStaticInitialisation@InitialisationHelper@Log4Qt@@0_NA@@YAXXZ 00401000 f   initialisationhelper.obj
 0001:000000a0       ??__EPROPERTY_ASSOCIATE@PropertyConstants@@YAXXZ 004010a0 f   main.obj
 0001:000000c0       ??__EPROPERTY_CLIENT_TOPIC@PropertyConstants@@YAXXZ 004010c0 f   main.obj
 0001:000000e0       ??__EPROPERTY_DECIMALS@PropertyConstants@@YAXXZ 004010e0 f   main.obj
 0001:00000100       ??__EPROPERTY_EDITABLE@PropertyConstants@@YAXXZ 00401100 f   main.obj
 0001:00000120       ??__EPROPERTY_FILE_DIRECTORY@PropertyConstants@@YAXXZ 00401120 f   main.obj
 0001:00000140       ??__EPROPERTY_FILE_FILTER@PropertyConstants@@YAXXZ 00401140 f   main.obj
 0001:00000160       ??__EPROPERTY_FILE_METHOD@PropertyConstants@@YAXXZ 00401160 f   main.obj
 0001:00000180       ??__EPROPERTY_FILE_METHOD_OPENFILE@PropertyConstants@@YAXXZ 00401180 f   main.obj
 0001:000001a0       ??__EPROPERTY_FILE_METHOD_OPENFILES@PropertyConstants@@YAXXZ 004011a0 f   main.obj
 0001:000001c0       ??__EPROPERTY_FILE_METHOD_OPENFILE_URL@PropertyConstants@@YAXXZ 004011c0 f   main.obj
 0001:000001e0       ??__EPROPERTY_FILE_METHOD_OPENFILE_URLS@PropertyConstants@@YAXXZ 004011e0 f   main.obj
 0001:00000200       ??__EPROPERTY_FILE_METHOD_OPENFOLDER@PropertyConstants@@YAXXZ 00401200 f   main.obj
 0001:00000220       ??__EPROPERTY_FILE_METHOD_OPENFOLDER_URL@PropertyConstants@@YAXXZ 00401220 f   main.obj
 0001:00000240       ??__EPROPERTY_FILE_METHOD_SAVEFILE@PropertyConstants@@YAXXZ 00401240 f   main.obj
 0001:00000260       ??__EPROPERTY_FILE_METHOD_SAVEFILE_URL@PropertyConstants@@YAXXZ 00401260 f   main.obj
 0001:00000280       ??__EPROPERTY_FILE_TITLE@PropertyConstants@@YAXXZ 00401280 f   main.obj
 0001:000002a0       ??__EPROPERTY_HIDE@PropertyConstants@@YAXXZ 004012a0 f   main.obj
 0001:000002c0       ??__EPROPERTY_LIST@PropertyConstants@@YAXXZ 004012c0 f   main.obj
 0001:000002e0       ??__EPROPERTY_MESSAGE_TYPE@PropertyConstants@@YAXXZ 004012e0 f   main.obj
 0001:00000300       ??__EPROPERTY_NAME@PropertyConstants@@YAXXZ 00401300 f   main.obj
 0001:00000320       ??__EPROPERTY_OPTIONS@PropertyConstants@@YAXXZ 00401320 f   main.obj
 0001:00000340       ??__EPROPERTY_PREFIX@PropertyConstants@@YAXXZ 00401340 f   main.obj
 0001:00000360       ??__EPROPERTY_SERVICE_TOPIC@PropertyConstants@@YAXXZ 00401360 f   main.obj
 0001:00000380       ??__EPROPERTY_SHOW@PropertyConstants@@YAXXZ 00401380 f   main.obj
 0001:000003a0       ??__EPROPERTY_SHOW_TEXT@PropertyConstants@@YAXXZ 004013a0 f   main.obj
 0001:000003c0       ??__EPROPERTY_SINGLESTEP@PropertyConstants@@YAXXZ 004013c0 f   main.obj
 0001:000003e0       ??__EPROPERTY_STRING_REGEXP@PropertyConstants@@YAXXZ 004013e0 f   main.obj
 0001:00000400       ??__EPROPERTY_SUB_ITEMS@PropertyConstants@@YAXXZ 00401400 f   main.obj
 0001:00000420       ??__EPROPERTY_SUFFIX@PropertyConstants@@YAXXZ 00401420 f   main.obj
 0001:00000440       ??__EPROPERTY_VALUE@PropertyConstants@@YAXXZ 00401440 f   main.obj
 0001:00000460       ??__EPROPERTY_VALUE_MAX@PropertyConstants@@YAXXZ 00401460 f   main.obj
 0001:00000480       ??__EPROPERTY_VALUE_MIN@PropertyConstants@@YAXXZ 00401480 f   main.obj
 0001:000004a0       ??__EPROPERTY_VALUE_TYPE@PropertyConstants@@YAXXZ 004014a0 f   main.obj
 0001:000004c0       ??__EPropertyNameMap@PropertyConstants@@YAXXZ 004014c0 f   main.obj
 0001:000004e0       ??__EPropertyTypeNameMap@PropertyConstants@@YAXXZ 004014e0 f   main.obj
 0001:00000500       ??__Ei@@YAXXZ              00401500 f   main.obj
 0001:00000510       ??__Edummy@?A0xcbdf61e0@@YAXXZ 00401510 f   qrc_resource.obj
 0001:00000540       ??__E?staticMetaObject@ConfiguratorHelper@Log4Qt@@2UQMetaObject@@B@@YAXXZ 00401540 f   moc_configuratorhelper.obj
 0001:00000550       ??__E?staticMetaObject@LogObject@Log4Qt@@2UQMetaObject@@B@@YAXXZ 00401550 f   moc_logobject.obj
 0001:00000560       ??__E?staticMetaObject@Logger@Log4Qt@@2UQMetaObject@@B@@YAXXZ 00401560 f   moc_logger.obj
 0001:00000570       ??__E?staticMetaObject@SplashScreen@@2UQMetaObject@@B@@YAXXZ 00401570 f   moc_splashscreen.obj
 0001:00000be3       __catch$?append@?$QList@VQVariant@@@@QAEXABVQVariant@@@Z$0 00401be3 f i appenderskeleton.obj
 0001:00000be3       __catch$?append@?$QList@VQVariant@@@@QAEXABVQVariant@@@Z$2 00401be3 f i appenderskeleton.obj
 0001:000010ea       __catch$?detach_helper_grow@?$QList@VQVariant@@@@AAEPAUNode@1@HH@Z$2 004020ea f i appenderskeleton.obj
 0001:00001125       __catch$?detach_helper_grow@?$QList@VQVariant@@@@AAEPAUNode@1@HH@Z$0 00402125 f i appenderskeleton.obj
 0001:000013f0       __catch$?node_copy@?$QList@VQVariant@@@@AAEXPAUNode@1@00@Z$0 004023f0 f i appenderskeleton.obj
 0001:000016a1       __catch$??0?$QList@VLoggingEvent@Log4Qt@@@@QAE@ABV0@@Z$0 004026a1 f i basicconfigurator.obj
 0001:00001a6f       __catch$?node_copy@?$QList@VLoggingEvent@Log4Qt@@@@AAEXPAUNode@1@00@Z$0 00402a6f f i basicconfigurator.obj
 0001:00002d30       $LN60                      00403d30     dailyrollingfileappender.obj
 0001:000036f1       __catch$??0?$QList@VLogError@Log4Qt@@@@QAE@ABV0@@Z$0 004046f1 f i fileappender.obj
 0001:000037a1       __catch$??0?$QList@VQVariant@@@@QAE@ABV0@@Z$0 004047a1 f i fileappender.obj
 0001:00003c13       __catch$?append@?$QList@VLogError@Log4Qt@@@@QAEXABVLogError@Log4Qt@@@Z$2 00404c13 f i fileappender.obj
 0001:00003c13       __catch$?append@?$QList@VLogError@Log4Qt@@@@QAEXABVLogError@Log4Qt@@@Z$0 00404c13 f i fileappender.obj
 0001:0000447d       __catch$?detach_helper_grow@?$QList@VLogError@Log4Qt@@@@AAEPAUNode@1@HH@Z$2 0040547d f i fileappender.obj
 0001:000044b8       __catch$?detach_helper_grow@?$QList@VLogError@Log4Qt@@@@AAEPAUNode@1@HH@Z$0 004054b8 f i fileappender.obj
 0001:0000470f       __catch$?node_copy@?$QList@VLogError@Log4Qt@@@@AAEXPAUNode@1@00@Z$0 0040570f f i fileappender.obj
 0001:0000656b       __catch$?append@?$QList@VQString@@@@QAEXABVQString@@@Z$4 0040756b f i factory.obj
 0001:00006c6d       __catch$?detach_helper@?$QList@VQString@@@@AAEXH@Z$0 00407c6d f i factory.obj
 0001:00006dae       __catch$?detach_helper_grow@?$QList@VQString@@@@AAEPAUNode@1@HH@Z$2 00407dae f i factory.obj
 0001:00006de9       __catch$?detach_helper_grow@?$QList@VQString@@@@AAEPAUNode@1@HH@Z$0 00407de9 f i factory.obj
 0001:00007530       ?logger@Log4Qt@@YAPAVLogger@1@XZ 00408530 f   factory.obj
 0001:00008881       __catch$??0?$QList@VQString@@@@QAE@ABV0@@Z$0 00409881 f i initialisationhelper.obj
 0001:0000a4e5       __catch$?detach_helper@?$QList@VLogError@Log4Qt@@@@AAEXH@Z$0 0040b4e5 f i logerror.obj
 0001:0000a5d2       __catch$?detach_helper@?$QList@VQVariant@@@@AAEXH@Z$0 0040b5d2 f i logerror.obj
 0001:0000ada0       ?logger@Log4Qt@@YAPAVLogger@1@XZ 0040bda0 f   optionconverter.obj
 0001:0000b781       __catch$??0?$QList@PAVPatternConverter@Log4Qt@@@@QAE@ABV0@@Z$0 0040c781 f i patternformatter.obj
 0001:0000bd0c       $LN21                      0040cd0c     patternformatter.obj
 0001:0000c3d4       $LN165                     0040d3d4     patternformatter.obj
 0001:0000c3f8       $LN161                     0040d3f8     patternformatter.obj
 0001:0000c5e8       $LN48                      0040d5e8     patternformatter.obj
 0001:0000cb60       ?logger@Log4Qt@@YAPAVLogger@1@XZ 0040db60 f   patternformatter.obj
 0001:0000d118       $LN159                     0040e118     patternformatter.obj
 0001:0000d930       ?logger@Log4Qt@@YAPAVLogger@1@XZ 0040e930 f   properties.obj
 0001:0000ddfc       $LN171                     0040edfc     properties.obj
 0001:0000e735       __catch$?append@?$QList@PAVPatternConverter@Log4Qt@@@@QAEXABQAVPatternConverter@Log4Qt@@@Z$4 0040f735 f i patternformatter.obj
 0001:0000e735       __catch$?append@?$QList@PAVAppender@Log4Qt@@@@QAEXABQAVAppender@Log4Qt@@@Z$4 0040f735 f i logger.obj
 0001:0000e735       __catch$?append@?$QList@PAVLogger@Log4Qt@@@@QAEXABQAVLogger@Log4Qt@@@Z$4 0040f735 f i hierarchy.obj
 0001:0000ec27       __catch$?detach_helper@?$QList@PAVLogger@Log4Qt@@@@AAEXH@Z$0 0040fc27 f i hierarchy.obj
 0001:0000f84c       $LN25                      0041084c     level.obj
 0001:0000f860       $LN21                      00410860     level.obj
 0001:0000f8c4       $LN26                      004108c4     level.obj
 0001:0000f8d8       $LN22                      004108d8     level.obj
 0001:0000fa21       __catch$??0?$QList@V?$LogObjectPtr@VAppender@Log4Qt@@@Log4Qt@@@@QAE@ABV0@@Z$0 00410a21 f i logger.obj
 0001:000100a7       __catch$?append@?$QList@V?$LogObjectPtr@VAppender@Log4Qt@@@Log4Qt@@@@QAEXABV?$LogObjectPtr@VAppender@Log4Qt@@@Log4Qt@@@Z$4 004110a7 f i logger.obj
 0001:00010652       __catch$?detach_helper@?$QList@V?$LogObjectPtr@VAppender@Log4Qt@@@Log4Qt@@@@AAEXH@Z$0 00411652 f i logger.obj
 0001:0001075f       __catch$?detach_helper_grow@?$QList@PAVAppender@Log4Qt@@@@AAEPAUNode@1@HH@Z$2 0041175f f i logger.obj
 0001:0001075f       __catch$?detach_helper_grow@?$QList@PAVLogger@Log4Qt@@@@AAEPAUNode@1@HH@Z$2 0041175f f i hierarchy.obj
 0001:0001075f       __catch$?detach_helper_grow@?$QList@PAVPatternConverter@Log4Qt@@@@AAEPAUNode@1@HH@Z$2 0041175f f i patternformatter.obj
 0001:0001078b       __catch$?detach_helper_grow@?$QList@PAVPatternConverter@Log4Qt@@@@AAEPAUNode@1@HH@Z$0 0041178b f i patternformatter.obj
 0001:0001078b       __catch$?detach_helper_grow@?$QList@PAVLogger@Log4Qt@@@@AAEPAUNode@1@HH@Z$0 0041178b f i hierarchy.obj
 0001:0001078b       __catch$?detach_helper_grow@?$QList@PAVAppender@Log4Qt@@@@AAEPAUNode@1@HH@Z$0 0041178b f i logger.obj
 0001:000108ba       __catch$?detach_helper_grow@?$QList@V?$LogObjectPtr@VAppender@Log4Qt@@@Log4Qt@@@@AAEPAUNode@1@HH@Z$2 004118ba f i logger.obj
 0001:000108f5       __catch$?detach_helper_grow@?$QList@V?$LogObjectPtr@VAppender@Log4Qt@@@Log4Qt@@@@AAEPAUNode@1@HH@Z$0 004118f5 f i logger.obj
 0001:00012a04       $LN71                      00413a04     logmanager.obj
 0001:00012b20       ?static_logger@Log4Qt@@YAPAVLogger@1@XZ 00413b20 f   logmanager.obj
 0001:00013e8f       __catch$?reallocData@?$QVector@VQString@@@@AAEXHHV?$QFlags@W4AllocationOption@QArrayData@@@@@Z$2 00414e8f f i ndc.obj
 0001:000191d3       __catch$?append@?$QList@VLoggingEvent@Log4Qt@@@@QAEXABVLoggingEvent@Log4Qt@@@Z$0 0041a1d3 f i listappender.obj
 0001:000191d3       __catch$?append@?$QList@VLoggingEvent@Log4Qt@@@@QAEXABVLoggingEvent@Log4Qt@@@Z$2 0041a1d3 f i listappender.obj
 0001:000195b2       __catch$?detach_helper@?$QList@VLoggingEvent@Log4Qt@@@@AAEXH@Z$0 0041a5b2 f i listappender.obj
 0001:000196da       __catch$?detach_helper_grow@?$QList@VLoggingEvent@Log4Qt@@@@AAEPAUNode@1@HH@Z$2 0041a6da f i listappender.obj
 0001:00019715       __catch$?detach_helper_grow@?$QList@VLoggingEvent@Log4Qt@@@@AAEPAUNode@1@HH@Z$0 0041a715 f i listappender.obj
 0001:00019f90       ?__init_property_constance_map@@YAHXZ 0041af90 f   main.obj
 0001:0001c8b4       $LN54                      0041d8b4     moc_logger.obj
 0001:0001d024       $LN41                      0041e024     moc_ttcclayout.obj
 0001:0001d034       $LN42                      0041e034     moc_ttcclayout.obj
 0001:0001ddc0       $$000000                   0041edc0     MSVCRT:lldiv.obj
 0001:0001de70       $$000000                   0041ee70     MSVCRT:llmul.obj
 0001:0001dea4       ?find_pe_section@@YAPAU_IMAGE_SECTION_HEADER@@QAEI@Z 0041eea4 f   MSVCRT:utility.obj
 0001:0001e10c       ?pre_c_initialization@@YAHXZ 0041f10c f   MSVCRT:exe_winmain.obj
 0001:0001e1b0       ?post_pgo_initialization@@YAHXZ 0041f1b0 f   MSVCRT:exe_winmain.obj
 0001:0001e1b8       ?pre_cpp_initialization@@YAXXZ 0041f1b8 f   MSVCRT:exe_winmain.obj
 0001:0001e1ca       ?__scrt_common_main_seh@@YAHXZ 0041f1ca f   MSVCRT:exe_winmain.obj
 0001:0001e910       $$000000                   0041f910     MSVCRT:_sehprolg4_.obj
 0001:0001ed00       __unwindfunclet$??0AppenderSkeleton@Log4Qt@@IAE@_NPAVQObject@@@Z$6 0041fd00 f   appenderskeleton.obj
 0001:0001ed00       __unwindfunclet$??0AppenderSkeleton@Log4Qt@@QAE@PAVQObject@@@Z$6 0041fd00 f   appenderskeleton.obj
 0001:0001ed09       __unwindfunclet$??0AppenderSkeleton@Log4Qt@@QAE@PAVQObject@@@Z$0 0041fd09 f   appenderskeleton.obj
 0001:0001ed09       __unwindfunclet$??0AppenderSkeleton@Log4Qt@@IAE@_NPAVQObject@@@Z$0 0041fd09 f   appenderskeleton.obj
 0001:0001ed11       __ehhandler$??0AppenderSkeleton@Log4Qt@@QAE@PAVQObject@@@Z 0041fd11 f   appenderskeleton.obj
 0001:0001ed11       __ehhandler$??0AppenderSkeleton@Log4Qt@@IAE@_NPAVQObject@@@Z 0041fd11 f   appenderskeleton.obj
 0001:0001ed30       __unwindfunclet$??6LogError@Log4Qt@@QAEAAV01@ABVQString@@@Z$0 0041fd30 f   appenderskeleton.obj
 0001:0001ed39       __ehhandler$??6LogError@Log4Qt@@QAEAAV01@ABVQString@@@Z 0041fd39 f   appenderskeleton.obj
 0001:0001ed60       __unwindfunclet$?activateOptions@WriterAppender@Log4Qt@@UAEXXZ$0 0041fd60 f   writerappender.obj
 0001:0001ed60       __unwindfunclet$?activateOptions@AppenderSkeleton@Log4Qt@@UAEXXZ$0 0041fd60 f   appenderskeleton.obj
 0001:0001ed60       __unwindfunclet$?activateOptions@FileAppender@Log4Qt@@UAEXXZ$0 0041fd60 f   fileappender.obj
 0001:0001ed69       __unwindfunclet$?activateOptions@FileAppender@Log4Qt@@UAEXXZ$1 0041fd69 f   fileappender.obj
 0001:0001ed69       __unwindfunclet$?activateOptions@AppenderSkeleton@Log4Qt@@UAEXXZ$1 0041fd69 f   appenderskeleton.obj
 0001:0001ed69       __unwindfunclet$?activateOptions@WriterAppender@Log4Qt@@UAEXXZ$1 0041fd69 f   writerappender.obj
 0001:0001ed71       __unwindfunclet$?activateOptions@AppenderSkeleton@Log4Qt@@UAEXXZ$2 0041fd71 f   appenderskeleton.obj
 0001:0001ed71       __unwindfunclet$?activateOptions@WriterAppender@Log4Qt@@UAEXXZ$2 0041fd71 f   writerappender.obj
 0001:0001ed71       __unwindfunclet$?activateOptions@FileAppender@Log4Qt@@UAEXXZ$2 0041fd71 f   fileappender.obj
 0001:0001ed7a       __unwindfunclet$?activateOptions@FileAppender@Log4Qt@@UAEXXZ$3 0041fd7a f   fileappender.obj
 0001:0001ed7a       __unwindfunclet$?activateOptions@WriterAppender@Log4Qt@@UAEXXZ$3 0041fd7a f   writerappender.obj
 0001:0001ed7a       __unwindfunclet$?activateOptions@AppenderSkeleton@Log4Qt@@UAEXXZ$3 0041fd7a f   appenderskeleton.obj
 0001:0001ed83       __unwindfunclet$?activateOptions@AppenderSkeleton@Log4Qt@@UAEXXZ$4 0041fd83 f   appenderskeleton.obj
 0001:0001ed83       __unwindfunclet$?activateOptions@WriterAppender@Log4Qt@@UAEXXZ$4 0041fd83 f   writerappender.obj
 0001:0001ed83       __unwindfunclet$?activateOptions@FileAppender@Log4Qt@@UAEXXZ$4 0041fd83 f   fileappender.obj
 0001:0001ed8c       __ehhandler$?activateOptions@WriterAppender@Log4Qt@@UAEXXZ 0041fd8c f   writerappender.obj
 0001:0001ed8c       __ehhandler$?activateOptions@AppenderSkeleton@Log4Qt@@UAEXXZ 0041fd8c f   appenderskeleton.obj
 0001:0001ed8c       __ehhandler$?activateOptions@FileAppender@Log4Qt@@UAEXXZ 0041fd8c f   fileappender.obj
 0001:0001edb0       __unwindfunclet$?addFilter@AppenderSkeleton@Log4Qt@@UAEXPAVFilter@2@@Z$0 0041fdb0 f   appenderskeleton.obj
 0001:0001edb9       __unwindfunclet$?addFilter@AppenderSkeleton@Log4Qt@@UAEXPAVFilter@2@@Z$1 0041fdb9 f   appenderskeleton.obj
 0001:0001edc2       __ehhandler$?addFilter@AppenderSkeleton@Log4Qt@@UAEXPAVFilter@2@@Z 0041fdc2 f   appenderskeleton.obj
 0001:0001ede0       __unwindfunclet$?append@?$QList@VQVariant@@@@QAEXABVQVariant@@@Z$9 0041fde0 f   appenderskeleton.obj
 0001:0001edef       __unwindfunclet$?append@?$QList@VQVariant@@@@QAEXABVQVariant@@@Z$11 0041fdef f   appenderskeleton.obj
 0001:0001edfe       __ehhandler$?append@?$QList@VQVariant@@@@QAEXABVQVariant@@@Z 0041fdfe f   appenderskeleton.obj
 0001:0001ee20       __unwindfunclet$?checkEntryConditions@AppenderSkeleton@Log4Qt@@MBE_NXZ$0 0041fe20 f   appenderskeleton.obj
 0001:0001ee28       __unwindfunclet$?checkEntryConditions@AppenderSkeleton@Log4Qt@@MBE_NXZ$1 0041fe28 f   appenderskeleton.obj
 0001:0001ee31       __unwindfunclet$?checkEntryConditions@AppenderSkeleton@Log4Qt@@MBE_NXZ$6 0041fe31 f   appenderskeleton.obj
 0001:0001ee3a       __unwindfunclet$?checkEntryConditions@AppenderSkeleton@Log4Qt@@MBE_NXZ$7 0041fe3a f   appenderskeleton.obj
 0001:0001ee43       __unwindfunclet$?checkEntryConditions@AppenderSkeleton@Log4Qt@@MBE_NXZ$2 0041fe43 f   appenderskeleton.obj
 0001:0001ee4b       __unwindfunclet$?checkEntryConditions@AppenderSkeleton@Log4Qt@@MBE_NXZ$3 0041fe4b f   appenderskeleton.obj
 0001:0001ee54       __unwindfunclet$?checkEntryConditions@AppenderSkeleton@Log4Qt@@MBE_NXZ$8 0041fe54 f   appenderskeleton.obj
 0001:0001ee5d       __unwindfunclet$?checkEntryConditions@AppenderSkeleton@Log4Qt@@MBE_NXZ$9 0041fe5d f   appenderskeleton.obj
 0001:0001ee66       __unwindfunclet$?checkEntryConditions@AppenderSkeleton@Log4Qt@@MBE_NXZ$4 0041fe66 f   appenderskeleton.obj
 0001:0001ee71       __unwindfunclet$?checkEntryConditions@AppenderSkeleton@Log4Qt@@MBE_NXZ$5 0041fe71 f   appenderskeleton.obj
 0001:0001ee7a       __ehhandler$?checkEntryConditions@AppenderSkeleton@Log4Qt@@MBE_NXZ 0041fe7a f   appenderskeleton.obj
 0001:0001eea0       __ehhandler$?detach_helper_grow@?$QList@VQVariant@@@@AAEPAUNode@1@HH@Z 0041fea0 f   appenderskeleton.obj
 0001:0001eec0       __unwindfunclet$?doAppend@AppenderSkeleton@Log4Qt@@UAEXABVLoggingEvent@2@@Z$0 0041fec0 f   appenderskeleton.obj
 0001:0001eec9       __unwindfunclet$?doAppend@AppenderSkeleton@Log4Qt@@UAEXABVLoggingEvent@2@@Z$1 0041fec9 f   appenderskeleton.obj
 0001:0001eed1       __ehhandler$?doAppend@AppenderSkeleton@Log4Qt@@UAEXABVLoggingEvent@2@@Z 0041fed1 f   appenderskeleton.obj
 0001:0001eef0       __unwindfunclet$?name@AppenderSkeleton@Log4Qt@@UBE?AVQString@@XZ$0 0041fef0 f   appenderskeleton.obj
 0001:0001eef0       __unwindfunclet$?list@ListAppender@Log4Qt@@QBE?AV?$QList@VLoggingEvent@Log4Qt@@@@XZ$0 0041fef0 f   listappender.obj
 0001:0001eef0       __unwindfunclet$?doSetHandleQtMessages@LogManager@Log4Qt@@AAEX_N@Z$0 0041fef0 f   logmanager.obj
 0001:0001eef0       __unwindfunclet$?doCreateAppender@Factory@Log4Qt@@AAEPAVAppender@2@ABVQString@@@Z$0 0041fef0 f   factory.obj
 0001:0001eef0       __unwindfunclet$?doCreateLayout@Factory@Log4Qt@@AAEPAVLayout@2@ABVQString@@@Z$0 0041fef0 f   factory.obj
 0001:0001eef9       __ehhandler$?list@ListAppender@Log4Qt@@QBE?AV?$QList@VLoggingEvent@Log4Qt@@@@XZ 0041fef9 f   listappender.obj
 0001:0001eef9       __ehhandler$?doCreateAppender@Factory@Log4Qt@@AAEPAVAppender@2@ABVQString@@@Z 0041fef9 f   factory.obj
 0001:0001eef9       __ehhandler$?doSetHandleQtMessages@LogManager@Log4Qt@@AAEX_N@Z 0041fef9 f   logmanager.obj
 0001:0001eef9       __ehhandler$?doCreateLayout@Factory@Log4Qt@@AAEPAVLayout@2@ABVQString@@@Z 0041fef9 f   factory.obj
 0001:0001eef9       __ehhandler$?name@AppenderSkeleton@Log4Qt@@UBE?AVQString@@XZ 0041fef9 f   appenderskeleton.obj
 0001:0001ef20       __unwindfunclet$?node_copy@?$QList@VQVariant@@@@AAEXPAUNode@1@00@Z$4 0041ff20 f   appenderskeleton.obj
 0001:0001ef2f       __ehhandler$?node_copy@?$QList@VQVariant@@@@AAEXPAUNode@1@00@Z 0041ff2f f   appenderskeleton.obj
 0001:0001ef50       __ehhandler$??0?$QList@VLoggingEvent@Log4Qt@@@@QAE@ABV0@@Z 0041ff50 f   basicconfigurator.obj
 0001:0001ef70       __unwindfunclet$??0LoggingEvent@Log4Qt@@QAE@ABV01@@Z$0 0041ff70 f   basicconfigurator.obj
 0001:0001ef7c       __unwindfunclet$??0LoggingEvent@Log4Qt@@QAE@ABV01@@Z$1 0041ff7c f   basicconfigurator.obj
 0001:0001ef88       __ehhandler$??0LoggingEvent@Log4Qt@@QAE@ABV01@@Z 0041ff88 f   basicconfigurator.obj
 0001:0001efb0       __ehhandler$??1?$QList@VLoggingEvent@Log4Qt@@@@QAE@XZ 0041ffb0 f   basicconfigurator.obj
 0001:0001efb0       __ehhandler$??1?$QList@VQVariant@@@@QAE@XZ 0041ffb0 f   fileappender.obj
 0001:0001efb0       __ehhandler$??1?$QList@V?$LogObjectPtr@VAppender@Log4Qt@@@Log4Qt@@@@QAE@XZ 0041ffb0 f   logger.obj
 0001:0001efb0       __ehhandler$??1StreamStateSaver@QtPrivate@@QAE@XZ 0041ffb0 f   logerror.obj
 0001:0001efd0       __unwindfunclet$?node_copy@?$QList@VLoggingEvent@Log4Qt@@@@AAEXPAUNode@1@00@Z$4 0041ffd0 f   basicconfigurator.obj
 0001:0001efdf       __ehhandler$?node_copy@?$QList@VLoggingEvent@Log4Qt@@@@AAEXPAUNode@1@00@Z 0041ffdf f   basicconfigurator.obj
 0001:0001f000       __unwindfunclet$?node_destruct@?$QList@VLoggingEvent@Log4Qt@@@@AAEXPAUNode@1@0@Z$2 00420000 f   basicconfigurator.obj
 0001:0001f006       __ehhandler$?node_destruct@?$QList@VLoggingEvent@Log4Qt@@@@AAEXPAUNode@1@0@Z 00420006 f   basicconfigurator.obj
 0001:0001f030       __unwindfunclet$?activateOptions@ConsoleAppender@Log4Qt@@UAEXXZ$0 00420030 f   consoleappender.obj
 0001:0001f039       __unwindfunclet$?activateOptions@ConsoleAppender@Log4Qt@@UAEXXZ$1 00420039 f   consoleappender.obj
 0001:0001f048       __unwindfunclet$?activateOptions@ConsoleAppender@Log4Qt@@UAEXXZ$2 00420048 f   consoleappender.obj
 0001:0001f057       __ehhandler$?activateOptions@ConsoleAppender@Log4Qt@@UAEXXZ 00420057 f   consoleappender.obj
 0001:0001f080       __unwindfunclet$?debug@ConsoleAppender@Log4Qt@@MBE?AVQDebug@@AAV3@@Z$0 00420080 f   consoleappender.obj
 0001:0001f089       __unwindfunclet$?debug@ConsoleAppender@Log4Qt@@MBE?AVQDebug@@AAV3@@Z$2 00420089 f   consoleappender.obj
 0001:0001f092       __unwindfunclet$?debug@ConsoleAppender@Log4Qt@@MBE?AVQDebug@@AAV3@@Z$3 00420092 f   consoleappender.obj
 0001:0001f09b       __unwindfunclet$?debug@ConsoleAppender@Log4Qt@@MBE?AVQDebug@@AAV3@@Z$4 0042009b f   consoleappender.obj
 0001:0001f0a4       __unwindfunclet$?debug@ConsoleAppender@Log4Qt@@MBE?AVQDebug@@AAV3@@Z$11 004200a4 f   consoleappender.obj
 0001:0001f0ad       __ehhandler$?debug@ConsoleAppender@Log4Qt@@MBE?AVQDebug@@AAV3@@Z 004200ad f   consoleappender.obj
 0001:0001f0d0       __unwindfunclet$??0DailyRollingFileAppender@Log4Qt@@QAE@PAVQObject@@@Z$0 004200d0 f   dailyrollingfileappender.obj
 0001:0001f0d8       __unwindfunclet$??0DailyRollingFileAppender@Log4Qt@@QAE@PAVQObject@@@Z$1 004200d8 f   dailyrollingfileappender.obj
 0001:0001f0e4       __unwindfunclet$??0DailyRollingFileAppender@Log4Qt@@QAE@PAVQObject@@@Z$2 004200e4 f   dailyrollingfileappender.obj
 0001:0001f0f0       __unwindfunclet$??0DailyRollingFileAppender@Log4Qt@@QAE@PAVQObject@@@Z$3 004200f0 f   dailyrollingfileappender.obj
 0001:0001f0fc       __unwindfunclet$??0DailyRollingFileAppender@Log4Qt@@QAE@PAVQObject@@@Z$4 004200fc f   dailyrollingfileappender.obj
 0001:0001f108       __unwindfunclet$??0DailyRollingFileAppender@Log4Qt@@QAE@PAVQObject@@@Z$8 00420108 f   dailyrollingfileappender.obj
 0001:0001f111       __ehhandler$??0DailyRollingFileAppender@Log4Qt@@QAE@PAVQObject@@@Z 00420111 f   dailyrollingfileappender.obj
 0001:0001f130       __unwindfunclet$?append@DailyRollingFileAppender@Log4Qt@@MAEXABVLoggingEvent@2@@Z$0 00420130 f   dailyrollingfileappender.obj
 0001:0001f139       __ehhandler$?append@DailyRollingFileAppender@Log4Qt@@MAEXABVLoggingEvent@2@@Z 00420139 f   dailyrollingfileappender.obj
 0001:0001f160       __unwindfunclet$?computeFrequency@DailyRollingFileAppender@Log4Qt@@AAEXXZ$0 00420160 f   dailyrollingfileappender.obj
 0001:0001f168       __unwindfunclet$?computeFrequency@DailyRollingFileAppender@Log4Qt@@AAEXXZ$1 00420168 f   dailyrollingfileappender.obj
 0001:0001f171       __unwindfunclet$?computeFrequency@DailyRollingFileAppender@Log4Qt@@AAEXXZ$2 00420171 f   dailyrollingfileappender.obj
 0001:0001f17a       __unwindfunclet$?computeFrequency@DailyRollingFileAppender@Log4Qt@@AAEXXZ$3 0042017a f   dailyrollingfileappender.obj
 0001:0001f182       __unwindfunclet$?computeFrequency@DailyRollingFileAppender@Log4Qt@@AAEXXZ$5 00420182 f   dailyrollingfileappender.obj
 0001:0001f18b       __unwindfunclet$?computeFrequency@DailyRollingFileAppender@Log4Qt@@AAEXXZ$6 0042018b f   dailyrollingfileappender.obj
 0001:0001f193       __unwindfunclet$?computeFrequency@DailyRollingFileAppender@Log4Qt@@AAEXXZ$8 00420193 f   dailyrollingfileappender.obj
 0001:0001f19c       __unwindfunclet$?computeFrequency@DailyRollingFileAppender@Log4Qt@@AAEXXZ$9 0042019c f   dailyrollingfileappender.obj
 0001:0001f1a4       __unwindfunclet$?computeFrequency@DailyRollingFileAppender@Log4Qt@@AAEXXZ$11 004201a4 f   dailyrollingfileappender.obj
 0001:0001f1ad       __unwindfunclet$?computeFrequency@DailyRollingFileAppender@Log4Qt@@AAEXXZ$12 004201ad f   dailyrollingfileappender.obj
 0001:0001f1b5       __unwindfunclet$?computeFrequency@DailyRollingFileAppender@Log4Qt@@AAEXXZ$14 004201b5 f   dailyrollingfileappender.obj
 0001:0001f1be       __unwindfunclet$?computeFrequency@DailyRollingFileAppender@Log4Qt@@AAEXXZ$15 004201be f   dailyrollingfileappender.obj
 0001:0001f1c6       __unwindfunclet$?computeFrequency@DailyRollingFileAppender@Log4Qt@@AAEXXZ$17 004201c6 f   dailyrollingfileappender.obj
 0001:0001f1cf       __unwindfunclet$?computeFrequency@DailyRollingFileAppender@Log4Qt@@AAEXXZ$18 004201cf f   dailyrollingfileappender.obj
 0001:0001f1d7       __unwindfunclet$?computeFrequency@DailyRollingFileAppender@Log4Qt@@AAEXXZ$22 004201d7 f   dailyrollingfileappender.obj
 0001:0001f1e0       __unwindfunclet$?computeFrequency@DailyRollingFileAppender@Log4Qt@@AAEXXZ$20 004201e0 f   dailyrollingfileappender.obj
 0001:0001f1e8       __unwindfunclet$?computeFrequency@DailyRollingFileAppender@Log4Qt@@AAEXXZ$21 004201e8 f   dailyrollingfileappender.obj
 0001:0001f1f1       __ehhandler$?computeFrequency@DailyRollingFileAppender@Log4Qt@@AAEXXZ 004201f1 f   dailyrollingfileappender.obj
 0001:0001f210       __unwindfunclet$?computeRollOverTime@DailyRollingFileAppender@Log4Qt@@AAEXXZ$0 00420210 f   dailyrollingfileappender.obj
 0001:0001f219       __unwindfunclet$?computeRollOverTime@DailyRollingFileAppender@Log4Qt@@AAEXXZ$1 00420219 f   dailyrollingfileappender.obj
 0001:0001f222       __unwindfunclet$?computeRollOverTime@DailyRollingFileAppender@Log4Qt@@AAEXXZ$10 00420222 f   dailyrollingfileappender.obj
 0001:0001f22b       __unwindfunclet$?computeRollOverTime@DailyRollingFileAppender@Log4Qt@@AAEXXZ$16 0042022b f   dailyrollingfileappender.obj
 0001:0001f233       __unwindfunclet$?computeRollOverTime@DailyRollingFileAppender@Log4Qt@@AAEXXZ$18 00420233 f   dailyrollingfileappender.obj
 0001:0001f23c       __unwindfunclet$?computeRollOverTime@DailyRollingFileAppender@Log4Qt@@AAEXXZ$19 0042023c f   dailyrollingfileappender.obj
 0001:0001f245       __unwindfunclet$?computeRollOverTime@DailyRollingFileAppender@Log4Qt@@AAEXXZ$20 00420245 f   dailyrollingfileappender.obj
 0001:0001f24e       __ehhandler$?computeRollOverTime@DailyRollingFileAppender@Log4Qt@@AAEXXZ 0042024e f   dailyrollingfileappender.obj
 0001:0001f270       __unwindfunclet$?debug@DailyRollingFileAppender@Log4Qt@@MBE?AVQDebug@@AAV3@@Z$0 00420270 f   dailyrollingfileappender.obj
 0001:0001f279       __unwindfunclet$?debug@DailyRollingFileAppender@Log4Qt@@MBE?AVQDebug@@AAV3@@Z$2 00420279 f   dailyrollingfileappender.obj
 0001:0001f282       __unwindfunclet$?debug@DailyRollingFileAppender@Log4Qt@@MBE?AVQDebug@@AAV3@@Z$3 00420282 f   dailyrollingfileappender.obj
 0001:0001f28b       __unwindfunclet$?debug@DailyRollingFileAppender@Log4Qt@@MBE?AVQDebug@@AAV3@@Z$14 0042028b f   dailyrollingfileappender.obj
 0001:0001f291       __unwindfunclet$?debug@DailyRollingFileAppender@Log4Qt@@MBE?AVQDebug@@AAV3@@Z$4 00420291 f   dailyrollingfileappender.obj
 0001:0001f29a       __unwindfunclet$?debug@DailyRollingFileAppender@Log4Qt@@MBE?AVQDebug@@AAV3@@Z$5 0042029a f   dailyrollingfileappender.obj
 0001:0001f2a3       __unwindfunclet$?debug@DailyRollingFileAppender@Log4Qt@@MBE?AVQDebug@@AAV3@@Z$6 004202a3 f   dailyrollingfileappender.obj
 0001:0001f2ac       __unwindfunclet$?debug@DailyRollingFileAppender@Log4Qt@@MBE?AVQDebug@@AAV3@@Z$7 004202ac f   dailyrollingfileappender.obj
 0001:0001f2b5       __unwindfunclet$?debug@DailyRollingFileAppender@Log4Qt@@MBE?AVQDebug@@AAV3@@Z$8 004202b5 f   dailyrollingfileappender.obj
 0001:0001f2be       __unwindfunclet$?debug@DailyRollingFileAppender@Log4Qt@@MBE?AVQDebug@@AAV3@@Z$18 004202be f   dailyrollingfileappender.obj
 0001:0001f2c7       __unwindfunclet$?debug@DailyRollingFileAppender@Log4Qt@@MBE?AVQDebug@@AAV3@@Z$10 004202c7 f   dailyrollingfileappender.obj
 0001:0001f2d0       __ehhandler$?debug@DailyRollingFileAppender@Log4Qt@@MBE?AVQDebug@@AAV3@@Z 004202d0 f   dailyrollingfileappender.obj
 0001:0001f2f0       __unwindfunclet$?rollOver@DailyRollingFileAppender@Log4Qt@@AAEXXZ$0 004202f0 f   dailyrollingfileappender.obj
 0001:0001f2f9       __unwindfunclet$?rollOver@DailyRollingFileAppender@Log4Qt@@AAEXXZ$1 004202f9 f   dailyrollingfileappender.obj
 0001:0001f302       __unwindfunclet$?rollOver@DailyRollingFileAppender@Log4Qt@@AAEXXZ$2 00420302 f   dailyrollingfileappender.obj
 0001:0001f30b       __unwindfunclet$?rollOver@DailyRollingFileAppender@Log4Qt@@AAEXXZ$3 0042030b f   dailyrollingfileappender.obj
 0001:0001f314       __unwindfunclet$?rollOver@DailyRollingFileAppender@Log4Qt@@AAEXXZ$4 00420314 f   dailyrollingfileappender.obj
 0001:0001f31d       __ehhandler$?rollOver@DailyRollingFileAppender@Log4Qt@@AAEXXZ 0042031d f   dailyrollingfileappender.obj
 0001:0001f340       __unwindfunclet$?trace@Logger@Log4Qt@@QBEXPBDABVQVariant@@11@Z$0 00420340 f   dailyrollingfileappender.obj
 0001:0001f349       __unwindfunclet$?trace@Logger@Log4Qt@@QBEXPBDABVQVariant@@11@Z$1 00420349 f   dailyrollingfileappender.obj
 0001:0001f352       __unwindfunclet$?trace@Logger@Log4Qt@@QBEXPBDABVQVariant@@11@Z$2 00420352 f   dailyrollingfileappender.obj
 0001:0001f35b       __unwindfunclet$?trace@Logger@Log4Qt@@QBEXPBDABVQVariant@@11@Z$3 0042035b f   dailyrollingfileappender.obj
 0001:0001f364       __unwindfunclet$?trace@Logger@Log4Qt@@QBEXPBDABVQVariant@@11@Z$4 00420364 f   dailyrollingfileappender.obj
 0001:0001f36d       __ehhandler$?trace@Logger@Log4Qt@@QBEXPBDABVQVariant@@11@Z 0042036d f   dailyrollingfileappender.obj
 0001:0001f390       __ehhandler$??0?$QList@VLogError@Log4Qt@@@@QAE@ABV0@@Z 00420390 f   fileappender.obj
 0001:0001f3b0       __ehhandler$??0?$QList@VQVariant@@@@QAE@ABV0@@Z 004203b0 f   fileappender.obj
 0001:0001f3d0       __unwindfunclet$??0LogError@Log4Qt@@QAE@ABV01@@Z$0 004203d0 f   fileappender.obj
 0001:0001f3dc       __unwindfunclet$??0LogError@Log4Qt@@QAE@ABV01@@Z$1 004203dc f   fileappender.obj
 0001:0001f3e8       __unwindfunclet$??0LogError@Log4Qt@@QAE@ABV01@@Z$2 004203e8 f   fileappender.obj
 0001:0001f3f4       __unwindfunclet$??0LogError@Log4Qt@@QAE@ABV01@@Z$3 004203f4 f   fileappender.obj
 0001:0001f3ff       __ehhandler$??0LogError@Log4Qt@@QAE@ABV01@@Z 004203ff f   fileappender.obj
 0001:0001f420       __ehhandler$??1?$QMap@HVQString@@@@QAE@XZ 00420420 f   main.obj
 0001:0001f420       __ehhandler$??1WriterAppender@Log4Qt@@UAE@XZ 00420420 f   writerappender.obj
 0001:0001f420       __ehhandler$??1?$QMap@VQString@@H@@QAE@XZ 00420420 f   main.obj
 0001:0001f420       __ehhandler$??1FileAppender@Log4Qt@@UAE@XZ 00420420 f   fileappender.obj
 0001:0001f440       __unwindfunclet$?append@?$QList@VLogError@Log4Qt@@@@QAEXABVLogError@Log4Qt@@@Z$9 00420440 f   fileappender.obj
 0001:0001f44f       __unwindfunclet$?append@?$QList@VLogError@Log4Qt@@@@QAEXABVLogError@Log4Qt@@@Z$11 0042044f f   fileappender.obj
 0001:0001f45e       __ehhandler$?append@?$QList@VLogError@Log4Qt@@@@QAEXABVLogError@Log4Qt@@@Z 0042045e f   fileappender.obj
 0001:0001f480       __unwindfunclet$?closeFile@FileAppender@Log4Qt@@IAEXXZ$0 00420480 f   fileappender.obj
 0001:0001f489       __unwindfunclet$?closeFile@FileAppender@Log4Qt@@IAEXXZ$1 00420489 f   fileappender.obj
 0001:0001f492       __ehhandler$?closeFile@FileAppender@Log4Qt@@IAEXXZ 00420492 f   fileappender.obj
 0001:0001f4b0       __unwindfunclet$?debug@FileAppender@Log4Qt@@MBE?AVQDebug@@AAV3@@Z$0 004204b0 f   fileappender.obj
 0001:0001f4b9       __unwindfunclet$?debug@FileAppender@Log4Qt@@MBE?AVQDebug@@AAV3@@Z$2 004204b9 f   fileappender.obj
 0001:0001f4c2       __unwindfunclet$?debug@FileAppender@Log4Qt@@MBE?AVQDebug@@AAV3@@Z$3 004204c2 f   fileappender.obj
 0001:0001f4cb       __unwindfunclet$?debug@FileAppender@Log4Qt@@MBE?AVQDebug@@AAV3@@Z$10 004204cb f   fileappender.obj
 0001:0001f4d1       __unwindfunclet$?debug@FileAppender@Log4Qt@@MBE?AVQDebug@@AAV3@@Z$4 004204d1 f   fileappender.obj
 0001:0001f4da       __unwindfunclet$?debug@FileAppender@Log4Qt@@MBE?AVQDebug@@AAV3@@Z$5 004204da f   fileappender.obj
 0001:0001f4e3       __unwindfunclet$?debug@FileAppender@Log4Qt@@MBE?AVQDebug@@AAV3@@Z$6 004204e3 f   fileappender.obj
 0001:0001f4ec       __unwindfunclet$?debug@FileAppender@Log4Qt@@MBE?AVQDebug@@AAV3@@Z$14 004204ec f   fileappender.obj
 0001:0001f4f5       __ehhandler$?debug@FileAppender@Log4Qt@@MBE?AVQDebug@@AAV3@@Z 004204f5 f   fileappender.obj
 0001:0001f510       __unwindfunclet$?trace@Logger@Log4Qt@@QBEXPBDABVQString@@1@Z$0 00420510 f   dailyrollingfileappender.obj
 0001:0001f510       __unwindfunclet$?debug@Logger@Log4Qt@@QBEXPBDABVQString@@1@Z$0 00420510 f   fileappender.obj
 0001:0001f510       __unwindfunclet$?debug@Logger@Log4Qt@@QBEXPBDABVQString@@11@Z$0 00420510 f   factory.obj
 0001:0001f519       __unwindfunclet$?debug@Logger@Log4Qt@@QBEXPBDABVQString@@1@Z$1 00420519 f   fileappender.obj
 0001:0001f519       __unwindfunclet$?debug@Logger@Log4Qt@@QBEXPBDABVQString@@11@Z$1 00420519 f   factory.obj
 0001:0001f519       __unwindfunclet$?trace@Logger@Log4Qt@@QBEXPBDABVQString@@1@Z$1 00420519 f   dailyrollingfileappender.obj
 0001:0001f522       __ehhandler$?debug@Logger@Log4Qt@@QBEXPBDABVQString@@11@Z 00420522 f   factory.obj
 0001:0001f522       __ehhandler$?trace@Logger@Log4Qt@@QBEXPBDABVQString@@1@Z 00420522 f   dailyrollingfileappender.obj
 0001:0001f522       __ehhandler$?debug@Logger@Log4Qt@@QBEXPBDABVQString@@1@Z 00420522 f   fileappender.obj
 0001:0001f540       __ehhandler$?detach_helper_grow@?$QList@VLogError@Log4Qt@@@@AAEPAUNode@1@HH@Z 00420540 f   fileappender.obj
 0001:0001f560       __unwindfunclet$?handleIoErrors@FileAppender@Log4Qt@@MBE_NXZ$0 00420560 f   fileappender.obj
 0001:0001f568       __unwindfunclet$?handleIoErrors@FileAppender@Log4Qt@@MBE_NXZ$1 00420568 f   fileappender.obj
 0001:0001f571       __unwindfunclet$?handleIoErrors@FileAppender@Log4Qt@@MBE_NXZ$6 00420571 f   fileappender.obj
 0001:0001f57a       __unwindfunclet$?handleIoErrors@FileAppender@Log4Qt@@MBE_NXZ$7 0042057a f   fileappender.obj
 0001:0001f583       __unwindfunclet$?handleIoErrors@FileAppender@Log4Qt@@MBE_NXZ$2 00420583 f   fileappender.obj
 0001:0001f58c       __unwindfunclet$?handleIoErrors@FileAppender@Log4Qt@@MBE_NXZ$3 0042058c f   fileappender.obj
 0001:0001f595       __unwindfunclet$?handleIoErrors@FileAppender@Log4Qt@@MBE_NXZ$4 00420595 f   fileappender.obj
 0001:0001f59e       __unwindfunclet$?handleIoErrors@FileAppender@Log4Qt@@MBE_NXZ$5 0042059e f   fileappender.obj
 0001:0001f5a6       __unwindfunclet$?handleIoErrors@FileAppender@Log4Qt@@MBE_NXZ$8 004205a6 f   fileappender.obj
 0001:0001f5af       __ehhandler$?handleIoErrors@FileAppender@Log4Qt@@MBE_NXZ 004205af f   fileappender.obj
 0001:0001f5d0       __unwindfunclet$?node_copy@?$QList@VLogError@Log4Qt@@@@AAEXPAUNode@1@00@Z$4 004205d0 f   fileappender.obj
 0001:0001f5df       __ehhandler$?node_copy@?$QList@VLogError@Log4Qt@@@@AAEXPAUNode@1@00@Z 004205df f   fileappender.obj
 0001:0001f600       __unwindfunclet$?openFile@FileAppender@Log4Qt@@IAEXXZ$0 00420600 f   fileappender.obj
 0001:0001f609       __unwindfunclet$?openFile@FileAppender@Log4Qt@@IAEXXZ$1 00420609 f   fileappender.obj
 0001:0001f612       __unwindfunclet$?openFile@FileAppender@Log4Qt@@IAEXXZ$2 00420612 f   fileappender.obj
 0001:0001f61b       __unwindfunclet$?openFile@FileAppender@Log4Qt@@IAEXXZ$3 0042061b f   fileappender.obj
 0001:0001f62a       __unwindfunclet$?openFile@FileAppender@Log4Qt@@IAEXXZ$4 0042062a f   fileappender.obj
 0001:0001f632       __unwindfunclet$?openFile@FileAppender@Log4Qt@@IAEXXZ$5 00420632 f   fileappender.obj
 0001:0001f63b       __unwindfunclet$?openFile@FileAppender@Log4Qt@@IAEXXZ$22 0042063b f   fileappender.obj
 0001:0001f644       __unwindfunclet$?openFile@FileAppender@Log4Qt@@IAEXXZ$23 00420644 f   fileappender.obj
 0001:0001f64d       __unwindfunclet$?openFile@FileAppender@Log4Qt@@IAEXXZ$6 0042064d f   fileappender.obj
 0001:0001f656       __unwindfunclet$?openFile@FileAppender@Log4Qt@@IAEXXZ$7 00420656 f   fileappender.obj
 0001:0001f65f       __unwindfunclet$?openFile@FileAppender@Log4Qt@@IAEXXZ$8 0042065f f   fileappender.obj
 0001:0001f668       __unwindfunclet$?openFile@FileAppender@Log4Qt@@IAEXXZ$9 00420668 f   fileappender.obj
 0001:0001f673       __unwindfunclet$?openFile@FileAppender@Log4Qt@@IAEXXZ$24 00420673 f   fileappender.obj
 0001:0001f67c       __unwindfunclet$?openFile@FileAppender@Log4Qt@@IAEXXZ$10 0042067c f   fileappender.obj
 0001:0001f68b       __unwindfunclet$?openFile@FileAppender@Log4Qt@@IAEXXZ$11 0042068b f   fileappender.obj
 0001:0001f694       __unwindfunclet$?openFile@FileAppender@Log4Qt@@IAEXXZ$12 00420694 f   fileappender.obj
 0001:0001f69d       __ehhandler$?openFile@FileAppender@Log4Qt@@IAEXXZ 0042069d f   fileappender.obj
 0001:0001f6c0       __unwindfunclet$?removeFile@FileAppender@Log4Qt@@IBE_NAAVQFile@@@Z$0 004206c0 f   fileappender.obj
 0001:0001f6c8       __unwindfunclet$?removeFile@FileAppender@Log4Qt@@IBE_NAAVQFile@@@Z$1 004206c8 f   fileappender.obj
 0001:0001f6d1       __unwindfunclet$?removeFile@FileAppender@Log4Qt@@IBE_NAAVQFile@@@Z$2 004206d1 f   fileappender.obj
 0001:0001f6da       __unwindfunclet$?removeFile@FileAppender@Log4Qt@@IBE_NAAVQFile@@@Z$7 004206da f   fileappender.obj
 0001:0001f6e3       __unwindfunclet$?removeFile@FileAppender@Log4Qt@@IBE_NAAVQFile@@@Z$8 004206e3 f   fileappender.obj
 0001:0001f6ec       __unwindfunclet$?removeFile@FileAppender@Log4Qt@@IBE_NAAVQFile@@@Z$3 004206ec f   fileappender.obj
 0001:0001f6f5       __unwindfunclet$?removeFile@FileAppender@Log4Qt@@IBE_NAAVQFile@@@Z$4 004206f5 f   fileappender.obj
 0001:0001f6fe       __unwindfunclet$?removeFile@FileAppender@Log4Qt@@IBE_NAAVQFile@@@Z$5 004206fe f   fileappender.obj
 0001:0001f707       __unwindfunclet$?removeFile@FileAppender@Log4Qt@@IBE_NAAVQFile@@@Z$6 00420707 f   fileappender.obj
 0001:0001f70f       __unwindfunclet$?removeFile@FileAppender@Log4Qt@@IBE_NAAVQFile@@@Z$9 0042070f f   fileappender.obj
 0001:0001f718       __ehhandler$?removeFile@FileAppender@Log4Qt@@IBE_NAAVQFile@@@Z 00420718 f   fileappender.obj
 0001:0001f740       __unwindfunclet$?renameFile@FileAppender@Log4Qt@@IBE_NAAVQFile@@ABVQString@@@Z$0 00420740 f   fileappender.obj
 0001:0001f749       __unwindfunclet$?renameFile@FileAppender@Log4Qt@@IBE_NAAVQFile@@ABVQString@@@Z$1 00420749 f   fileappender.obj
 0001:0001f751       __unwindfunclet$?renameFile@FileAppender@Log4Qt@@IBE_NAAVQFile@@ABVQString@@@Z$2 00420751 f   fileappender.obj
 0001:0001f75a       __unwindfunclet$?renameFile@FileAppender@Log4Qt@@IBE_NAAVQFile@@ABVQString@@@Z$3 0042075a f   fileappender.obj
 0001:0001f763       __unwindfunclet$?renameFile@FileAppender@Log4Qt@@IBE_NAAVQFile@@ABVQString@@@Z$8 00420763 f   fileappender.obj
 0001:0001f76c       __unwindfunclet$?renameFile@FileAppender@Log4Qt@@IBE_NAAVQFile@@ABVQString@@@Z$9 0042076c f   fileappender.obj
 0001:0001f775       __unwindfunclet$?renameFile@FileAppender@Log4Qt@@IBE_NAAVQFile@@ABVQString@@@Z$10 00420775 f   fileappender.obj
 0001:0001f77e       __unwindfunclet$?renameFile@FileAppender@Log4Qt@@IBE_NAAVQFile@@ABVQString@@@Z$4 0042077e f   fileappender.obj
 0001:0001f787       __unwindfunclet$?renameFile@FileAppender@Log4Qt@@IBE_NAAVQFile@@ABVQString@@@Z$5 00420787 f   fileappender.obj
 0001:0001f790       __unwindfunclet$?renameFile@FileAppender@Log4Qt@@IBE_NAAVQFile@@ABVQString@@@Z$6 00420790 f   fileappender.obj
 0001:0001f799       __unwindfunclet$?renameFile@FileAppender@Log4Qt@@IBE_NAAVQFile@@ABVQString@@@Z$7 00420799 f   fileappender.obj
 0001:0001f7a4       __unwindfunclet$?renameFile@FileAppender@Log4Qt@@IBE_NAAVQFile@@ABVQString@@@Z$11 004207a4 f   fileappender.obj
 0001:0001f7ad       __ehhandler$?renameFile@FileAppender@Log4Qt@@IBE_NAAVQFile@@ABVQString@@@Z 004207ad f   fileappender.obj
 0001:0001f7d0       __unwindfunclet$?debug@SimpleLayout@Log4Qt@@MBE?AVQDebug@@AAV3@@Z$0 004207d0 f   simplelayout.obj
 0001:0001f7d0       __unwindfunclet$?logger@ClassLogger@Log4Qt@@QAEPAVLogger@2@PBVQObject@@@Z$0 004207d0 f   classlogger.obj
 0001:0001f7d0       __unwindfunclet$?messageWithArgs@LogError@Log4Qt@@QBE?AVQString@@XZ$0 004207d0 f   logerror.obj
 0001:0001f7d9       __ehhandler$?debug@SimpleLayout@Log4Qt@@MBE?AVQDebug@@AAV3@@Z 004207d9 f   simplelayout.obj
 0001:0001f7d9       __ehhandler$?messageWithArgs@LogError@Log4Qt@@QBE?AVQString@@XZ 004207d9 f   logerror.obj
 0001:0001f7d9       __ehhandler$?logger@ClassLogger@Log4Qt@@QAEPAVLogger@2@PBVQObject@@@Z 004207d9 f   classlogger.obj
 0001:0001f800       __unwindfunclet$??1LogError@Log4Qt@@QAE@XZ$9 00420800 f   appenderskeleton.obj
 0001:0001f800       __unwindfunclet$??1Logger@Log4Qt@@MAE@XZ$0 00420800 f   logger.obj
 0001:0001f800       __unwindfunclet$??_GFileAppender@Log4Qt@@UAEPAXI@Z$0 00420800 f   fileappender.obj
 0001:0001f800       __unwindfunclet$??1PropertyConfigurator@Log4Qt@@QAE@XZ$0 00420800 f   propertyconfigurator.obj
 0001:0001f800       __unwindfunclet$??_GConsoleAppender@Log4Qt@@UAEPAXI@Z$0 00420800 f   consoleappender.obj
 0001:0001f800       __unwindfunclet$??1ListAppender@Log4Qt@@UAE@XZ$0 00420800 f   listappender.obj
 0001:0001f800       __unwindfunclet$??4?$QList@V?$LogObjectPtr@VAppender@Log4Qt@@@Log4Qt@@@@QAEAAV0@$$QAV0@@Z$8 00420800 f   logger.obj
 0001:0001f800       __unwindfunclet$??1ConfiguratorHelper@Log4Qt@@EAE@XZ$0 00420800 f   configuratorhelper.obj
 0001:0001f800       __unwindfunclet$??_GWriterAppender@Log4Qt@@UAEPAXI@Z$0 00420800 f   writerappender.obj
 0001:0001f806       __ehhandler$??1ListAppender@Log4Qt@@UAE@XZ 00420806 f   listappender.obj
 0001:0001f806       __ehhandler$??4?$QList@V?$LogObjectPtr@VAppender@Log4Qt@@@Log4Qt@@@@QAEAAV0@$$QAV0@@Z 00420806 f   logger.obj
 0001:0001f806       __ehhandler$??1ConfiguratorHelper@Log4Qt@@EAE@XZ 00420806 f   configuratorhelper.obj
 0001:0001f806       __ehhandler$??1PropertyConfigurator@Log4Qt@@QAE@XZ 00420806 f   propertyconfigurator.obj
 0001:0001f806       __ehhandler$??1LogError@Log4Qt@@QAE@XZ 00420806 f   appenderskeleton.obj
 0001:0001f806       __ehhandler$??1Logger@Log4Qt@@MAE@XZ 00420806 f   logger.obj
 0001:0001f806       __ehhandler$??_GWriterAppender@Log4Qt@@UAEPAXI@Z 00420806 f   writerappender.obj
 0001:0001f806       __ehhandler$??_GFileAppender@Log4Qt@@UAEPAXI@Z 00420806 f   fileappender.obj
 0001:0001f806       __ehhandler$??_GConsoleAppender@Log4Qt@@UAEPAXI@Z 00420806 f   consoleappender.obj
 0001:0001f830       __unwindfunclet$?instance@ConfiguratorHelper@Log4Qt@@SAPAV12@XZ$0 00420830 f   configuratorhelper.obj
 0001:0001f83f       __unwindfunclet$?instance@ConfiguratorHelper@Log4Qt@@SAPAV12@XZ$3 0042083f f   configuratorhelper.obj
 0001:0001f848       __ehhandler$?instance@ConfiguratorHelper@Log4Qt@@SAPAV12@XZ 00420848 f   configuratorhelper.obj
 0001:0001f870       __unwindfunclet$?formatDateTime@DateTime@Log4Qt@@ABE?AVQString@@ABV3@@Z$1 00420870 f   datetime.obj
 0001:0001f879       __unwindfunclet$?formatDateTime@DateTime@Log4Qt@@ABE?AVQString@@ABV3@@Z$2 00420879 f   datetime.obj
 0001:0001f882       __unwindfunclet$?formatDateTime@DateTime@Log4Qt@@ABE?AVQString@@ABV3@@Z$3 00420882 f   datetime.obj
 0001:0001f88b       __unwindfunclet$?formatDateTime@DateTime@Log4Qt@@ABE?AVQString@@ABV3@@Z$4 0042088b f   datetime.obj
 0001:0001f894       __unwindfunclet$?formatDateTime@DateTime@Log4Qt@@ABE?AVQString@@ABV3@@Z$5 00420894 f   datetime.obj
 0001:0001f89d       __ehhandler$?formatDateTime@DateTime@Log4Qt@@ABE?AVQString@@ABV3@@Z 0042089d f   datetime.obj
 0001:0001f8c0       __unwindfunclet$?formatToken@DateTime@Log4Qt@@ABE?AVQString@@ABV3@_N@Z$1 004208c0 f   datetime.obj
 0001:0001f8c9       __unwindfunclet$?formatToken@DateTime@Log4Qt@@ABE?AVQString@@ABV3@_N@Z$4 004208c9 f   datetime.obj
 0001:0001f8d2       __unwindfunclet$?formatToken@DateTime@Log4Qt@@ABE?AVQString@@ABV3@_N@Z$9 004208d2 f   datetime.obj
 0001:0001f8db       __unwindfunclet$?formatToken@DateTime@Log4Qt@@ABE?AVQString@@ABV3@_N@Z$13 004208db f   datetime.obj
 0001:0001f8e4       __unwindfunclet$?formatToken@DateTime@Log4Qt@@ABE?AVQString@@ABV3@_N@Z$18 004208e4 f   datetime.obj
 0001:0001f8ed       __unwindfunclet$?formatToken@DateTime@Log4Qt@@ABE?AVQString@@ABV3@_N@Z$21 004208ed f   datetime.obj
 0001:0001f8f6       __unwindfunclet$?formatToken@DateTime@Log4Qt@@ABE?AVQString@@ABV3@_N@Z$24 004208f6 f   datetime.obj
 0001:0001f8ff       __unwindfunclet$?formatToken@DateTime@Log4Qt@@ABE?AVQString@@ABV3@_N@Z$28 004208ff f   datetime.obj
 0001:0001f908       __unwindfunclet$?formatToken@DateTime@Log4Qt@@ABE?AVQString@@ABV3@_N@Z$15 00420908 f   datetime.obj
 0001:0001f911       __unwindfunclet$?formatToken@DateTime@Log4Qt@@ABE?AVQString@@ABV3@_N@Z$31 00420911 f   datetime.obj
 0001:0001f91a       __unwindfunclet$?formatToken@DateTime@Log4Qt@@ABE?AVQString@@ABV3@_N@Z$32 0042091a f   datetime.obj
 0001:0001f923       __ehhandler$?formatToken@DateTime@Log4Qt@@ABE?AVQString@@ABV3@_N@Z 00420923 f   datetime.obj
 0001:0001f940       __unwindfunclet$?toString@DateTime@Log4Qt@@QBE?AVQString@@ABV3@@Z$0 00420940 f   datetime.obj
 0001:0001f949       __ehhandler$?toString@DateTime@Log4Qt@@QBE?AVQString@@ABV3@@Z 00420949 f   datetime.obj
 0001:0001f970       __ehhandler$??1?$QList@VQString@@@@QAE@XZ 00420970 f   factory.obj
 0001:0001f990       __unwindfunclet$??1Factory@Log4Qt@@QAE@XZ$0 00420990 f   factory.obj
 0001:0001f996       __unwindfunclet$??1Factory@Log4Qt@@QAE@XZ$6 00420996 f   factory.obj
 0001:0001f99c       __unwindfunclet$??1Factory@Log4Qt@@QAE@XZ$12 0042099c f   factory.obj
 0001:0001f9a2       __ehhandler$??1Factory@Log4Qt@@QAE@XZ 004209a2 f   factory.obj
 0001:0001f9c0       __ehhandler$?append@?$QList@VQString@@@@QAEXABVQString@@@Z 004209c0 f   factory.obj
 0001:0001f9e0       __unwindfunclet$?console_file_appender@Log4Qt@@YAPAVAppender@1@XZ$0 004209e0 f   factory.obj
 0001:0001f9ef       __ehhandler$?console_file_appender@Log4Qt@@YAPAVAppender@1@XZ 004209ef f   factory.obj
 0001:0001fa10       __unwindfunclet$?create_daily_rolling_file_appender@Log4Qt@@YAPAVAppender@1@XZ$0 00420a10 f   factory.obj
 0001:0001fa1f       __ehhandler$?create_daily_rolling_file_appender@Log4Qt@@YAPAVAppender@1@XZ 00420a1f f   factory.obj
 0001:0001fa40       __unwindfunclet$?create_debug_appender@Log4Qt@@YAPAVAppender@1@XZ$0 00420a40 f   factory.obj
 0001:0001fa4f       __ehhandler$?create_debug_appender@Log4Qt@@YAPAVAppender@1@XZ 00420a4f f   factory.obj
 0001:0001fa70       __unwindfunclet$?create_deny_all_filter@Log4Qt@@YAPAVFilter@1@XZ$0 00420a70 f   factory.obj
 0001:0001fa7f       __unwindfunclet$?create_deny_all_filter@Log4Qt@@YAPAVFilter@1@XZ$4 00420a7f f   factory.obj
 0001:0001fa88       __ehhandler$?create_deny_all_filter@Log4Qt@@YAPAVFilter@1@XZ 00420a88 f   factory.obj
 0001:0001fab0       __unwindfunclet$?create_file_appender@Log4Qt@@YAPAVAppender@1@XZ$0 00420ab0 f   factory.obj
 0001:0001fabf       __ehhandler$?create_file_appender@Log4Qt@@YAPAVAppender@1@XZ 00420abf f   factory.obj
 0001:0001fae0       __unwindfunclet$?create_list_appender@Log4Qt@@YAPAVAppender@1@XZ$0 00420ae0 f   factory.obj
 0001:0001faef       __ehhandler$?create_list_appender@Log4Qt@@YAPAVAppender@1@XZ 00420aef f   factory.obj
 0001:0001fb10       __unwindfunclet$?create_level_range_filter@Log4Qt@@YAPAVFilter@1@XZ$0 00420b10 f   factory.obj
 0001:0001fb10       __unwindfunclet$?create_pattern_layout@Log4Qt@@YAPAVLayout@1@XZ$0 00420b10 f   factory.obj
 0001:0001fb1f       __ehhandler$?create_pattern_layout@Log4Qt@@YAPAVLayout@1@XZ 00420b1f f   factory.obj
 0001:0001fb1f       __ehhandler$?create_level_range_filter@Log4Qt@@YAPAVFilter@1@XZ 00420b1f f   factory.obj
 0001:0001fb40       __unwindfunclet$?create_rolling_file_appender@Log4Qt@@YAPAVAppender@1@XZ$0 00420b40 f   factory.obj
 0001:0001fb4f       __ehhandler$?create_rolling_file_appender@Log4Qt@@YAPAVAppender@1@XZ 00420b4f f   factory.obj
 0001:0001fb70       __unwindfunclet$?create_simple_layout@Log4Qt@@YAPAVLayout@1@XZ$0 00420b70 f   factory.obj
 0001:0001fb7f       __unwindfunclet$?create_simple_layout@Log4Qt@@YAPAVLayout@1@XZ$5 00420b7f f   factory.obj
 0001:0001fb88       __ehhandler$?create_simple_layout@Log4Qt@@YAPAVLayout@1@XZ 00420b88 f   factory.obj
 0001:0001fbb0       __unwindfunclet$?create_string_match_filter@Log4Qt@@YAPAVFilter@1@XZ$0 00420bb0 f   factory.obj
 0001:0001fbb0       __unwindfunclet$?create_level_match_filter@Log4Qt@@YAPAVFilter@1@XZ$0 00420bb0 f   factory.obj
 0001:0001fbbf       __ehhandler$?create_level_match_filter@Log4Qt@@YAPAVFilter@1@XZ 00420bbf f   factory.obj
 0001:0001fbbf       __ehhandler$?create_string_match_filter@Log4Qt@@YAPAVFilter@1@XZ 00420bbf f   factory.obj
 0001:0001fbe0       __unwindfunclet$?create_ttcc_layout@Log4Qt@@YAPAVLayout@1@XZ$0 00420be0 f   factory.obj
 0001:0001fbe0       __unwindfunclet$?create_null_appender@Log4Qt@@YAPAVAppender@1@XZ$0 00420be0 f   factory.obj
 0001:0001fbef       __ehhandler$?create_ttcc_layout@Log4Qt@@YAPAVLayout@1@XZ 00420bef f   factory.obj
 0001:0001fbef       __ehhandler$?create_null_appender@Log4Qt@@YAPAVAppender@1@XZ 00420bef f   factory.obj
 0001:0001fc10       __ehhandler$?detach_helper@?$QList@VQString@@@@AAEXH@Z 00420c10 f   factory.obj
 0001:0001fc30       __ehhandler$?detach_helper_grow@?$QList@VQString@@@@AAEPAUNode@1@HH@Z 00420c30 f   factory.obj
 0001:0001fc50       __unwindfunclet$?doSetObjectProperty@Factory@Log4Qt@@AAEXPAVQObject@@ABVQString@@1@Z$0 00420c50 f   factory.obj
 0001:0001fc59       __unwindfunclet$?doSetObjectProperty@Factory@Log4Qt@@AAEXPAVQObject@@ABVQString@@1@Z$1 00420c59 f   factory.obj
 0001:0001fc62       __unwindfunclet$?doSetObjectProperty@Factory@Log4Qt@@AAEXPAVQObject@@ABVQString@@1@Z$2 00420c62 f   factory.obj
 0001:0001fc6b       __unwindfunclet$?doSetObjectProperty@Factory@Log4Qt@@AAEXPAVQObject@@ABVQString@@1@Z$3 00420c6b f   factory.obj
 0001:0001fc74       __unwindfunclet$?doSetObjectProperty@Factory@Log4Qt@@AAEXPAVQObject@@ABVQString@@1@Z$9 00420c74 f   factory.obj
 0001:0001fc7c       __unwindfunclet$?doSetObjectProperty@Factory@Log4Qt@@AAEXPAVQObject@@ABVQString@@1@Z$10 00420c7c f   factory.obj
 0001:0001fc85       __ehhandler$?doSetObjectProperty@Factory@Log4Qt@@AAEXPAVQObject@@ABVQString@@1@Z 00420c85 f   factory.obj
 0001:0001fca0       __unwindfunclet$?instance@Factory@Log4Qt@@SAPAV12@XZ$0 00420ca0 f   factory.obj
 0001:0001fcaf       __unwindfunclet$?instance@Factory@Log4Qt@@SAPAV12@XZ$3 00420caf f   factory.obj
 0001:0001fcb8       __unwindfunclet$?instance@Factory@Log4Qt@@SAPAV12@XZ$4 00420cb8 f   factory.obj
 0001:0001fcc3       __unwindfunclet$?instance@Factory@Log4Qt@@SAPAV12@XZ$5 00420cc3 f   factory.obj
 0001:0001fcce       __unwindfunclet$?instance@Factory@Log4Qt@@SAPAV12@XZ$6 00420cce f   factory.obj
 0001:0001fcd9       __ehhandler$?instance@Factory@Log4Qt@@SAPAV12@XZ 00420cd9 f   factory.obj
 0001:0001fd00       __unwindfunclet$?registerDefaultAppenders@Factory@Log4Qt@@AAEXXZ$0 00420d00 f   factory.obj
 0001:0001fd09       __unwindfunclet$?registerDefaultAppenders@Factory@Log4Qt@@AAEXXZ$1 00420d09 f   factory.obj
 0001:0001fd12       __unwindfunclet$?registerDefaultAppenders@Factory@Log4Qt@@AAEXXZ$2 00420d12 f   factory.obj
 0001:0001fd1b       __unwindfunclet$?registerDefaultAppenders@Factory@Log4Qt@@AAEXXZ$3 00420d1b f   factory.obj
 0001:0001fd24       __unwindfunclet$?registerDefaultAppenders@Factory@Log4Qt@@AAEXXZ$4 00420d24 f   factory.obj
 0001:0001fd2d       __unwindfunclet$?registerDefaultAppenders@Factory@Log4Qt@@AAEXXZ$5 00420d2d f   factory.obj
 0001:0001fd36       __unwindfunclet$?registerDefaultAppenders@Factory@Log4Qt@@AAEXXZ$6 00420d36 f   factory.obj
 0001:0001fd3f       __unwindfunclet$?registerDefaultAppenders@Factory@Log4Qt@@AAEXXZ$7 00420d3f f   factory.obj
 0001:0001fd48       __unwindfunclet$?registerDefaultAppenders@Factory@Log4Qt@@AAEXXZ$8 00420d48 f   factory.obj
 0001:0001fd51       __unwindfunclet$?registerDefaultAppenders@Factory@Log4Qt@@AAEXXZ$9 00420d51 f   factory.obj
 0001:0001fd5a       __unwindfunclet$?registerDefaultAppenders@Factory@Log4Qt@@AAEXXZ$10 00420d5a f   factory.obj
 0001:0001fd63       __unwindfunclet$?registerDefaultAppenders@Factory@Log4Qt@@AAEXXZ$11 00420d63 f   factory.obj
 0001:0001fd6c       __unwindfunclet$?registerDefaultAppenders@Factory@Log4Qt@@AAEXXZ$12 00420d6c f   factory.obj
 0001:0001fd75       __unwindfunclet$?registerDefaultAppenders@Factory@Log4Qt@@AAEXXZ$13 00420d75 f   factory.obj
 0001:0001fd7e       __ehhandler$?registerDefaultAppenders@Factory@Log4Qt@@AAEXXZ 00420d7e f   factory.obj
 0001:0001fda0       __unwindfunclet$?registerDefaultFilters@Factory@Log4Qt@@AAEXXZ$0 00420da0 f   factory.obj
 0001:0001fda9       __unwindfunclet$?registerDefaultFilters@Factory@Log4Qt@@AAEXXZ$1 00420da9 f   factory.obj
 0001:0001fdb2       __unwindfunclet$?registerDefaultFilters@Factory@Log4Qt@@AAEXXZ$2 00420db2 f   factory.obj
 0001:0001fdbb       __unwindfunclet$?registerDefaultFilters@Factory@Log4Qt@@AAEXXZ$3 00420dbb f   factory.obj
 0001:0001fdc4       __unwindfunclet$?registerDefaultFilters@Factory@Log4Qt@@AAEXXZ$4 00420dc4 f   factory.obj
 0001:0001fdcd       __unwindfunclet$?registerDefaultFilters@Factory@Log4Qt@@AAEXXZ$5 00420dcd f   factory.obj
 0001:0001fdd6       __unwindfunclet$?registerDefaultFilters@Factory@Log4Qt@@AAEXXZ$6 00420dd6 f   factory.obj
 0001:0001fddf       __unwindfunclet$?registerDefaultFilters@Factory@Log4Qt@@AAEXXZ$7 00420ddf f   factory.obj
 0001:0001fde8       __ehhandler$?registerDefaultFilters@Factory@Log4Qt@@AAEXXZ 00420de8 f   factory.obj
 0001:0001fe10       __unwindfunclet$?registerDefaultLayouts@Factory@Log4Qt@@AAEXXZ$0 00420e10 f   factory.obj
 0001:0001fe19       __unwindfunclet$?registerDefaultLayouts@Factory@Log4Qt@@AAEXXZ$1 00420e19 f   factory.obj
 0001:0001fe22       __unwindfunclet$?registerDefaultLayouts@Factory@Log4Qt@@AAEXXZ$2 00420e22 f   factory.obj
 0001:0001fe2b       __unwindfunclet$?registerDefaultLayouts@Factory@Log4Qt@@AAEXXZ$3 00420e2b f   factory.obj
 0001:0001fe34       __unwindfunclet$?registerDefaultLayouts@Factory@Log4Qt@@AAEXXZ$4 00420e34 f   factory.obj
 0001:0001fe3d       __unwindfunclet$?registerDefaultLayouts@Factory@Log4Qt@@AAEXXZ$5 00420e3d f   factory.obj
 0001:0001fe46       __ehhandler$?registerDefaultLayouts@Factory@Log4Qt@@AAEXXZ 00420e46 f   factory.obj
 0001:0001fe70       __unwindfunclet$?validateObjectProperty@Factory@Log4Qt@@AAE_NAAVQMetaProperty@@ABVQString@@PAVQObject@@@Z$0 00420e70 f   factory.obj
 0001:0001fe78       __unwindfunclet$?validateObjectProperty@Factory@Log4Qt@@AAE_NAAVQMetaProperty@@ABVQString@@PAVQObject@@@Z$1 00420e78 f   factory.obj
 0001:0001fe80       __unwindfunclet$?validateObjectProperty@Factory@Log4Qt@@AAE_NAAVQMetaProperty@@ABVQString@@PAVQObject@@@Z$18 00420e80 f   factory.obj
 0001:0001fe89       __unwindfunclet$?validateObjectProperty@Factory@Log4Qt@@AAE_NAAVQMetaProperty@@ABVQString@@PAVQObject@@@Z$2 00420e89 f   factory.obj
 0001:0001fe91       __unwindfunclet$?validateObjectProperty@Factory@Log4Qt@@AAE_NAAVQMetaProperty@@ABVQString@@PAVQObject@@@Z$27 00420e91 f   factory.obj
 0001:0001fe9a       __unwindfunclet$?validateObjectProperty@Factory@Log4Qt@@AAE_NAAVQMetaProperty@@ABVQString@@PAVQObject@@@Z$3 00420e9a f   factory.obj
 0001:0001fea3       __unwindfunclet$?validateObjectProperty@Factory@Log4Qt@@AAE_NAAVQMetaProperty@@ABVQString@@PAVQObject@@@Z$4 00420ea3 f   factory.obj
 0001:0001feac       __unwindfunclet$?validateObjectProperty@Factory@Log4Qt@@AAE_NAAVQMetaProperty@@ABVQString@@PAVQObject@@@Z$5 00420eac f   factory.obj
 0001:0001feb5       __unwindfunclet$?validateObjectProperty@Factory@Log4Qt@@AAE_NAAVQMetaProperty@@ABVQString@@PAVQObject@@@Z$6 00420eb5 f   factory.obj
 0001:0001febd       __unwindfunclet$?validateObjectProperty@Factory@Log4Qt@@AAE_NAAVQMetaProperty@@ABVQString@@PAVQObject@@@Z$7 00420ebd f   factory.obj
 0001:0001fec6       __unwindfunclet$?validateObjectProperty@Factory@Log4Qt@@AAE_NAAVQMetaProperty@@ABVQString@@PAVQObject@@@Z$8 00420ec6 f   factory.obj
 0001:0001fece       __unwindfunclet$?validateObjectProperty@Factory@Log4Qt@@AAE_NAAVQMetaProperty@@ABVQString@@PAVQObject@@@Z$9 00420ece f   factory.obj
 0001:0001fed7       __unwindfunclet$?validateObjectProperty@Factory@Log4Qt@@AAE_NAAVQMetaProperty@@ABVQString@@PAVQObject@@@Z$28 00420ed7 f   factory.obj
 0001:0001fee0       __unwindfunclet$?validateObjectProperty@Factory@Log4Qt@@AAE_NAAVQMetaProperty@@ABVQString@@PAVQObject@@@Z$29 00420ee0 f   factory.obj
 0001:0001fee9       __ehhandler$?validateObjectProperty@Factory@Log4Qt@@AAE_NAAVQMetaProperty@@ABVQString@@PAVQObject@@@Z 00420ee9 f   factory.obj
 0001:0001ff10       __unwindfunclet$??$qRegisterMetaType@VLoggingEvent@Log4Qt@@@@YAHPBDPAVLoggingEvent@Log4Qt@@W4DefinedType@?$MetaTypeDefinedHelper@VLoggingEvent@Log4Qt@@$00@QtPrivate@@@Z$0 00420f10 f   initialisationhelper.obj
 0001:0001ff10       __unwindfunclet$??$qRegisterMetaType@VLevel@Log4Qt@@@@YAHPBDPAVLevel@Log4Qt@@W4DefinedType@?$MetaTypeDefinedHelper@VLevel@Log4Qt@@$00@QtPrivate@@@Z$0 00420f10 f   factory.obj
 0001:0001ff10       __unwindfunclet$??$qRegisterMetaType@VLogError@Log4Qt@@@@YAHPBDPAVLogError@Log4Qt@@W4DefinedType@?$MetaTypeDefinedHelper@VLogError@Log4Qt@@$00@QtPrivate@@@Z$0 00420f10 f   initialisationhelper.obj
 0001:0001ff19       __ehhandler$??$qRegisterMetaType@VLoggingEvent@Log4Qt@@@@YAHPBDPAVLoggingEvent@Log4Qt@@W4DefinedType@?$MetaTypeDefinedHelper@VLoggingEvent@Log4Qt@@$00@QtPrivate@@@Z 00420f19 f   initialisationhelper.obj
 0001:0001ff19       __ehhandler$??$qRegisterMetaType@VLevel@Log4Qt@@@@YAHPBDPAVLevel@Log4Qt@@W4DefinedType@?$MetaTypeDefinedHelper@VLevel@Log4Qt@@$00@QtPrivate@@@Z 00420f19 f   factory.obj
 0001:0001ff19       __ehhandler$??$qRegisterMetaType@VLogError@Log4Qt@@@@YAHPBDPAVLogError@Log4Qt@@W4DefinedType@?$MetaTypeDefinedHelper@VLogError@Log4Qt@@$00@QtPrivate@@@Z 00420f19 f   initialisationhelper.obj
 0001:0001ff40       __unwindfunclet$??$qRegisterMetaTypeStreamOperators@VLevel@Log4Qt@@@@YAXPBDPAVLevel@Log4Qt@@@Z$0 00420f40 f   initialisationhelper.obj
 0001:0001ff40       __unwindfunclet$??$qRegisterMetaTypeStreamOperators@VLogError@Log4Qt@@@@YAXPBDPAVLogError@Log4Qt@@@Z$0 00420f40 f   initialisationhelper.obj
 0001:0001ff40       __unwindfunclet$??$qRegisterMetaTypeStreamOperators@VLoggingEvent@Log4Qt@@@@YAXPBDPAVLoggingEvent@Log4Qt@@@Z$0 00420f40 f   initialisationhelper.obj
 0001:0001ff49       __ehhandler$??$qRegisterMetaTypeStreamOperators@VLoggingEvent@Log4Qt@@@@YAXPBDPAVLoggingEvent@Log4Qt@@@Z 00420f49 f   initialisationhelper.obj
 0001:0001ff49       __ehhandler$??$qRegisterMetaTypeStreamOperators@VLogError@Log4Qt@@@@YAXPBDPAVLogError@Log4Qt@@@Z 00420f49 f   initialisationhelper.obj
 0001:0001ff49       __ehhandler$??$qRegisterMetaTypeStreamOperators@VLevel@Log4Qt@@@@YAXPBDPAVLevel@Log4Qt@@@Z 00420f49 f   initialisationhelper.obj
 0001:0001ff70       __unwindfunclet$??$qRegisterNormalizedMetaType@VLogError@Log4Qt@@@@YAHABVQByteArray@@PAVLogError@Log4Qt@@W4DefinedType@?$MetaTypeDefinedHelper@VLogError@Log4Qt@@$00@QtPrivate@@@Z$2 00420f70 f   initialisationhelper.obj
 0001:0001ff70       __unwindfunclet$??$qRegisterNormalizedMetaType@VLoggingEvent@Log4Qt@@@@YAHABVQByteArray@@PAVLoggingEvent@Log4Qt@@W4DefinedType@?$MetaTypeDefinedHelper@VLoggingEvent@Log4Qt@@$00@QtPrivate@@@Z$2 00420f70 f   initialisationhelper.obj
 0001:0001ff79       __ehhandler$??$qRegisterNormalizedMetaType@VLogError@Log4Qt@@@@YAHABVQByteArray@@PAVLogError@Log4Qt@@W4DefinedType@?$MetaTypeDefinedHelper@VLogError@Log4Qt@@$00@QtPrivate@@@Z 00420f79 f   initialisationhelper.obj
 0001:0001ff79       __ehhandler$??$qRegisterNormalizedMetaType@VLoggingEvent@Log4Qt@@@@YAHABVQByteArray@@PAVLoggingEvent@Log4Qt@@W4DefinedType@?$MetaTypeDefinedHelper@VLoggingEvent@Log4Qt@@$00@QtPrivate@@@Z 00420f79 f   initialisationhelper.obj
 0001:0001ffa0       __ehhandler$??0?$QList@VQString@@@@QAE@ABV0@@Z 00420fa0 f   initialisationhelper.obj
 0001:0001ffc0       __unwindfunclet$??0InitialisationHelper@Log4Qt@@AAE@XZ$0 00420fc0 f   initialisationhelper.obj
 0001:0001ffc8       __unwindfunclet$??0InitialisationHelper@Log4Qt@@AAE@XZ$1 00420fc8 f   initialisationhelper.obj
 0001:0001ffd3       __ehhandler$??0InitialisationHelper@Log4Qt@@AAE@XZ 00420fd3 f   initialisationhelper.obj
 0001:0001fff0       __unwindfunclet$?Construct@?$QMetaTypeFunctionHelper@VLoggingEvent@Log4Qt@@$00@QtMetaTypePrivate@@SAPAXPAXPBX@Z$0 00420ff0 f   initialisationhelper.obj
 0001:0001fff0       __unwindfunclet$?Construct@?$QMetaTypeFunctionHelper@VLogError@Log4Qt@@$00@QtMetaTypePrivate@@SAPAXPAXPBX@Z$0 00420ff0 f   initialisationhelper.obj
 0001:00020001       __unwindfunclet$?Construct@?$QMetaTypeFunctionHelper@VLogError@Log4Qt@@$00@QtMetaTypePrivate@@SAPAXPAXPBX@Z$1 00421001 f   initialisationhelper.obj
 0001:00020001       __unwindfunclet$?Construct@?$QMetaTypeFunctionHelper@VLoggingEvent@Log4Qt@@$00@QtMetaTypePrivate@@SAPAXPAXPBX@Z$1 00421001 f   initialisationhelper.obj
 0001:00020012       __ehhandler$?Construct@?$QMetaTypeFunctionHelper@VLogError@Log4Qt@@$00@QtMetaTypePrivate@@SAPAXPAXPBX@Z 00421012 f   initialisationhelper.obj
 0001:00020012       __ehhandler$?Construct@?$QMetaTypeFunctionHelper@VLoggingEvent@Log4Qt@@$00@QtMetaTypePrivate@@SAPAXPAXPBX@Z 00421012 f   initialisationhelper.obj
 0001:00020030       __unwindfunclet$?doInitialiseEnvironmentSettings@InitialisationHelper@Log4Qt@@AAEXXZ$0 00421030 f   initialisationhelper.obj
 0001:00020038       __unwindfunclet$?doInitialiseEnvironmentSettings@InitialisationHelper@Log4Qt@@AAEXXZ$1 00421038 f   initialisationhelper.obj
 0001:00020041       __unwindfunclet$?doInitialiseEnvironmentSettings@InitialisationHelper@Log4Qt@@AAEXXZ$2 00421041 f   initialisationhelper.obj
 0001:0002004a       __unwindfunclet$?doInitialiseEnvironmentSettings@InitialisationHelper@Log4Qt@@AAEXXZ$3 0042104a f   initialisationhelper.obj
 0001:00020053       __unwindfunclet$?doInitialiseEnvironmentSettings@InitialisationHelper@Log4Qt@@AAEXXZ$4 00421053 f   initialisationhelper.obj
 0001:0002005c       __unwindfunclet$?doInitialiseEnvironmentSettings@InitialisationHelper@Log4Qt@@AAEXXZ$5 0042105c f   initialisationhelper.obj
 0001:00020064       __unwindfunclet$?doInitialiseEnvironmentSettings@InitialisationHelper@Log4Qt@@AAEXXZ$6 00421064 f   initialisationhelper.obj
 0001:0002006d       __unwindfunclet$?doInitialiseEnvironmentSettings@InitialisationHelper@Log4Qt@@AAEXXZ$7 0042106d f   initialisationhelper.obj
 0001:00020075       __unwindfunclet$?doInitialiseEnvironmentSettings@InitialisationHelper@Log4Qt@@AAEXXZ$8 00421075 f   initialisationhelper.obj
 0001:0002007e       __unwindfunclet$?doInitialiseEnvironmentSettings@InitialisationHelper@Log4Qt@@AAEXXZ$9 0042107e f   initialisationhelper.obj
 0001:00020087       __unwindfunclet$?doInitialiseEnvironmentSettings@InitialisationHelper@Log4Qt@@AAEXXZ$26 00421087 f   initialisationhelper.obj
 0001:0002008d       __unwindfunclet$?doInitialiseEnvironmentSettings@InitialisationHelper@Log4Qt@@AAEXXZ$10 0042108d f   initialisationhelper.obj
 0001:00020095       __unwindfunclet$?doInitialiseEnvironmentSettings@InitialisationHelper@Log4Qt@@AAEXXZ$11 00421095 f   initialisationhelper.obj
 0001:0002009d       __unwindfunclet$?doInitialiseEnvironmentSettings@InitialisationHelper@Log4Qt@@AAEXXZ$12 0042109d f   initialisationhelper.obj
 0001:000200a6       __unwindfunclet$?doInitialiseEnvironmentSettings@InitialisationHelper@Log4Qt@@AAEXXZ$13 004210a6 f   initialisationhelper.obj
 0001:000200af       __unwindfunclet$?doInitialiseEnvironmentSettings@InitialisationHelper@Log4Qt@@AAEXXZ$14 004210af f   initialisationhelper.obj
 0001:000200b8       __unwindfunclet$?doInitialiseEnvironmentSettings@InitialisationHelper@Log4Qt@@AAEXXZ$15 004210b8 f   initialisationhelper.obj
 0001:000200c1       __unwindfunclet$?doInitialiseEnvironmentSettings@InitialisationHelper@Log4Qt@@AAEXXZ$39 004210c1 f   initialisationhelper.obj
 0001:000200c7       __unwindfunclet$?doInitialiseEnvironmentSettings@InitialisationHelper@Log4Qt@@AAEXXZ$49 004210c7 f   initialisationhelper.obj
 0001:000200cd       __unwindfunclet$?doInitialiseEnvironmentSettings@InitialisationHelper@Log4Qt@@AAEXXZ$58 004210cd f   initialisationhelper.obj
 0001:000200d3       __unwindfunclet$?doInitialiseEnvironmentSettings@InitialisationHelper@Log4Qt@@AAEXXZ$65 004210d3 f   initialisationhelper.obj
 0001:000200d9       __ehhandler$?doInitialiseEnvironmentSettings@InitialisationHelper@Log4Qt@@AAEXXZ 004210d9 f   initialisationhelper.obj
 0001:00020100       __unwindfunclet$?doRegisterTypes@InitialisationHelper@Log4Qt@@AAEXXZ$0 00421100 f   initialisationhelper.obj
 0001:00020109       __unwindfunclet$?doRegisterTypes@InitialisationHelper@Log4Qt@@AAEXXZ$9 00421109 f   initialisationhelper.obj
 0001:00020112       __unwindfunclet$?doRegisterTypes@InitialisationHelper@Log4Qt@@AAEXXZ$18 00421112 f   initialisationhelper.obj
 0001:0002011b       __ehhandler$?doRegisterTypes@InitialisationHelper@Log4Qt@@AAEXXZ 0042111b f   initialisationhelper.obj
 0001:00020140       __unwindfunclet$?doSetting@InitialisationHelper@Log4Qt@@ABE?AVQString@@ABV3@0@Z$1 00421140 f   initialisationhelper.obj
 0001:00020149       __unwindfunclet$?doSetting@InitialisationHelper@Log4Qt@@ABE?AVQString@@ABV3@0@Z$2 00421149 f   initialisationhelper.obj
 0001:00020152       __unwindfunclet$?doSetting@InitialisationHelper@Log4Qt@@ABE?AVQString@@ABV3@0@Z$3 00421152 f   initialisationhelper.obj
 0001:0002015b       __unwindfunclet$?doSetting@InitialisationHelper@Log4Qt@@ABE?AVQString@@ABV3@0@Z$4 0042115b f   initialisationhelper.obj
 0001:00020164       __unwindfunclet$?doSetting@InitialisationHelper@Log4Qt@@ABE?AVQString@@ABV3@0@Z$5 00421164 f   initialisationhelper.obj
 0001:0002016d       __ehhandler$?doSetting@InitialisationHelper@Log4Qt@@ABE?AVQString@@ABV3@0@Z 0042116d f   initialisationhelper.obj
 0001:00020190       __unwindfunclet$?environmentSettings@InitialisationHelper@Log4Qt@@SA?AV?$QHash@VQString@@V1@@@XZ$1 00421190 f   initialisationhelper.obj
 0001:0002019f       __ehhandler$?environmentSettings@InitialisationHelper@Log4Qt@@SA?AV?$QHash@VQString@@V1@@@XZ 0042119f f   initialisationhelper.obj
 0001:000201c0       __unwindfunclet$?fromMilliSeconds@DateTime@Log4Qt@@SA?AV12@_J@Z$0 004211c0 f   initialisationhelper.obj
 0001:000201c9       __ehhandler$?fromMilliSeconds@DateTime@Log4Qt@@SA?AV12@_J@Z 004211c9 f   initialisationhelper.obj
 0001:000201f0       __unwindfunclet$??$readArrayBasedContainer@V?$QList@VLogError@Log4Qt@@@@@QtPrivate@@YAAAVQDataStream@@AAV1@AAV?$QList@VLogError@Log4Qt@@@@@Z$0 004211f0 f   logerror.obj
 0001:000201f8       __unwindfunclet$??$readArrayBasedContainer@V?$QList@VLogError@Log4Qt@@@@@QtPrivate@@YAAAVQDataStream@@AAV1@AAV?$QList@VLogError@Log4Qt@@@@@Z$1 004211f8 f   logerror.obj
 0001:00020200       __unwindfunclet$??$readArrayBasedContainer@V?$QList@VLogError@Log4Qt@@@@@QtPrivate@@YAAAVQDataStream@@AAV1@AAV?$QList@VLogError@Log4Qt@@@@@Z$24 00421200 f   logerror.obj
 0001:00020206       __unwindfunclet$??$readArrayBasedContainer@V?$QList@VLogError@Log4Qt@@@@@QtPrivate@@YAAAVQDataStream@@AAV1@AAV?$QList@VLogError@Log4Qt@@@@@Z$31 00421206 f   logerror.obj
 0001:0002020c       __unwindfunclet$??$readArrayBasedContainer@V?$QList@VLogError@Log4Qt@@@@@QtPrivate@@YAAAVQDataStream@@AAV1@AAV?$QList@VLogError@Log4Qt@@@@@Z$38 0042120c f   logerror.obj
 0001:00020212       __ehhandler$??$readArrayBasedContainer@V?$QList@VLogError@Log4Qt@@@@@QtPrivate@@YAAAVQDataStream@@AAV1@AAV?$QList@VLogError@Log4Qt@@@@@Z 00421212 f   logerror.obj
 0001:00020230       __unwindfunclet$??$readArrayBasedContainer@V?$QList@VQVariant@@@@@QtPrivate@@YAAAVQDataStream@@AAV1@AAV?$QList@VQVariant@@@@@Z$0 00421230 f   logerror.obj
 0001:00020238       __unwindfunclet$??$readArrayBasedContainer@V?$QList@VQVariant@@@@@QtPrivate@@YAAAVQDataStream@@AAV1@AAV?$QList@VQVariant@@@@@Z$1 00421238 f   logerror.obj
 0001:00020241       __unwindfunclet$??$readArrayBasedContainer@V?$QList@VQVariant@@@@@QtPrivate@@YAAAVQDataStream@@AAV1@AAV?$QList@VQVariant@@@@@Z$5 00421241 f   logerror.obj
 0001:00020247       __ehhandler$??$readArrayBasedContainer@V?$QList@VQVariant@@@@@QtPrivate@@YAAAVQDataStream@@AAV1@AAV?$QList@VQVariant@@@@@Z 00421247 f   logerror.obj
 0001:00020270       __unwindfunclet$??0LogError@Log4Qt@@QAE@ABVQString@@H00@Z$0 00421270 f   logerror.obj
 0001:0002027c       __ehhandler$??0LogError@Log4Qt@@QAE@ABVQString@@H00@Z 0042127c f   logerror.obj
 0001:000202a0       __unwindfunclet$??0LogError@Log4Qt@@QAE@PBDH00W4Encoding@01@@Z$0 004212a0 f   logerror.obj
 0001:000202ac       __unwindfunclet$??0LogError@Log4Qt@@QAE@PBDH00W4Encoding@01@@Z$1 004212ac f   logerror.obj
 0001:000202b8       __unwindfunclet$??0LogError@Log4Qt@@QAE@PBDH00W4Encoding@01@@Z$2 004212b8 f   logerror.obj
 0001:000202c4       __unwindfunclet$??0LogError@Log4Qt@@QAE@PBDH00W4Encoding@01@@Z$3 004212c4 f   logerror.obj
 0001:000202cf       __unwindfunclet$??0LogError@Log4Qt@@QAE@PBDH00W4Encoding@01@@Z$4 004212cf f   logerror.obj
 0001:000202da       __ehhandler$??0LogError@Log4Qt@@QAE@PBDH00W4Encoding@01@@Z 004212da f   logerror.obj
 0001:00020300       __unwindfunclet$??1Hierarchy@Log4Qt@@UAE@XZ$8 00421300 f   hierarchy.obj
 0001:00020300       __unwindfunclet$??4?$QList@VQVariant@@@@QAEAAV0@$$QAV0@@Z$8 00421300 f   logerror.obj
 0001:00020306       __ehhandler$??1Hierarchy@Log4Qt@@UAE@XZ 00421306 f   hierarchy.obj
 0001:00020306       __ehhandler$??4?$QList@VQVariant@@@@QAEAAV0@$$QAV0@@Z 00421306 f   logerror.obj
 0001:00020330       __unwindfunclet$??5Log4Qt@@YAAAVQDataStream@@AAV1@AAVLogError@0@@Z$0 00421330 f   logerror.obj
 0001:00020339       __unwindfunclet$??5Log4Qt@@YAAAVQDataStream@@AAV1@AAVLogError@0@@Z$1 00421339 f   logerror.obj
 0001:00020342       __unwindfunclet$??5Log4Qt@@YAAAVQDataStream@@AAV1@AAVLogError@0@@Z$2 00421342 f   logerror.obj
 0001:0002034b       __unwindfunclet$??5Log4Qt@@YAAAVQDataStream@@AAV1@AAVLogError@0@@Z$3 0042134b f   logerror.obj
 0001:00020354       __unwindfunclet$??5Log4Qt@@YAAAVQDataStream@@AAV1@AAVLogError@0@@Z$4 00421354 f   logerror.obj
 0001:0002035d       __ehhandler$??5Log4Qt@@YAAAVQDataStream@@AAV1@AAVLogError@0@@Z 0042135d f   logerror.obj
 0001:00020380       __unwindfunclet$??6Log4Qt@@YAAAVQDataStream@@AAV1@ABVLogError@0@@Z$0 00421380 f   logerror.obj
 0001:00020389       __unwindfunclet$??6Log4Qt@@YAAAVQDataStream@@AAV1@ABVLogError@0@@Z$1 00421389 f   logerror.obj
 0001:00020392       __ehhandler$??6Log4Qt@@YAAAVQDataStream@@AAV1@ABVLogError@0@@Z 00421392 f   logerror.obj
 0001:000203b0       __unwindfunclet$?cleanMessage@LogError@Log4Qt@@AAE?AVQString@@ABV3@@Z$1 004213b0 f   logerror.obj
 0001:000203b9       __ehhandler$?cleanMessage@LogError@Log4Qt@@AAE?AVQString@@ABV3@@Z 004213b9 f   logerror.obj
 0001:000203e0       __unwindfunclet$?clear@?$QList@VLogError@Log4Qt@@@@QAEXXZ$11 004213e0 f   logerror.obj
 0001:000203e6       __unwindfunclet$?clear@?$QList@VLogError@Log4Qt@@@@QAEXXZ$18 004213e6 f   logerror.obj
 0001:000203ec       __ehhandler$?clear@?$QList@VLogError@Log4Qt@@@@QAEXXZ 004213ec f   logerror.obj
 0001:00020410       __unwindfunclet$?clear@?$QList@VQVariant@@@@QAEXXZ$2 00421410 f   logerror.obj
 0001:00020416       __ehhandler$?clear@?$QList@VQVariant@@@@QAEXXZ 00421416 f   logerror.obj
 0001:00020440       __ehhandler$?detach_helper@?$QList@VLogError@Log4Qt@@@@AAEXH@Z 00421440 f   logerror.obj
 0001:00020460       __ehhandler$?detach_helper@?$QList@VQVariant@@@@AAEXH@Z 00421460 f   logerror.obj
 0001:00020480       __unwindfunclet$?insertArgs@LogError@Log4Qt@@ABE?AVQString@@ABV3@@Z$0 00421480 f   logerror.obj
 0001:0002049a       __unwindfunclet$?insertArgs@LogError@Log4Qt@@ABE?AVQString@@ABV3@@Z$1 0042149a f   logerror.obj
 0001:000204a3       __unwindfunclet$?insertArgs@LogError@Log4Qt@@ABE?AVQString@@ABV3@@Z$2 004214a3 f   logerror.obj
 0001:000204ab       __unwindfunclet$?insertArgs@LogError@Log4Qt@@ABE?AVQString@@ABV3@@Z$3 004214ab f   logerror.obj
 0001:000204b4       __unwindfunclet$?insertArgs@LogError@Log4Qt@@ABE?AVQString@@ABV3@@Z$8 004214b4 f   logerror.obj
 0001:000204ba       __ehhandler$?insertArgs@LogError@Log4Qt@@ABE?AVQString@@ABV3@@Z 004214ba f   logerror.obj
 0001:000204e0       __unwindfunclet$?toString@LogError@Log4Qt@@QBE?AVQString@@XZ$0 004214e0 f   logerror.obj
 0001:000204fa       __unwindfunclet$?toString@LogError@Log4Qt@@QBE?AVQString@@XZ$1 004214fa f   logerror.obj
 0001:00020503       __unwindfunclet$?toString@LogError@Log4Qt@@QBE?AVQString@@XZ$2 00421503 f   logerror.obj
 0001:0002050c       __unwindfunclet$?toString@LogError@Log4Qt@@QBE?AVQString@@XZ$3 0042150c f   logerror.obj
 0001:00020515       __unwindfunclet$?toString@LogError@Log4Qt@@QBE?AVQString@@XZ$4 00421515 f   logerror.obj
 0001:0002051e       __unwindfunclet$?toString@LogError@Log4Qt@@QBE?AVQString@@XZ$5 0042151e f   logerror.obj
 0001:00020527       __unwindfunclet$?toString@LogError@Log4Qt@@QBE?AVQString@@XZ$6 00421527 f   logerror.obj
 0001:00020530       __ehhandler$?toString@LogError@Log4Qt@@QBE?AVQString@@XZ 00421530 f   logerror.obj
 0001:00020550       __unwindfunclet$?findAndSubst@OptionConverter@Log4Qt@@SA?AVQString@@ABVProperties@2@ABV3@@Z$0 00421550 f   optionconverter.obj
 0001:00020559       __unwindfunclet$?findAndSubst@OptionConverter@Log4Qt@@SA?AVQString@@ABVProperties@2@ABV3@@Z$2 00421559 f   optionconverter.obj
 0001:00020562       __unwindfunclet$?findAndSubst@OptionConverter@Log4Qt@@SA?AVQString@@ABVProperties@2@ABV3@@Z$3 00421562 f   optionconverter.obj
 0001:0002056b       __unwindfunclet$?findAndSubst@OptionConverter@Log4Qt@@SA?AVQString@@ABVProperties@2@ABV3@@Z$4 0042156b f   optionconverter.obj
 0001:00020574       __unwindfunclet$?findAndSubst@OptionConverter@Log4Qt@@SA?AVQString@@ABVProperties@2@ABV3@@Z$5 00421574 f   optionconverter.obj
 0001:0002057d       __unwindfunclet$?findAndSubst@OptionConverter@Log4Qt@@SA?AVQString@@ABVProperties@2@ABV3@@Z$6 0042157d f   optionconverter.obj
 0001:00020586       __unwindfunclet$?findAndSubst@OptionConverter@Log4Qt@@SA?AVQString@@ABVProperties@2@ABV3@@Z$8 00421586 f   optionconverter.obj
 0001:0002058f       __unwindfunclet$?findAndSubst@OptionConverter@Log4Qt@@SA?AVQString@@ABVProperties@2@ABV3@@Z$9 0042158f f   optionconverter.obj
 0001:00020598       __unwindfunclet$?findAndSubst@OptionConverter@Log4Qt@@SA?AVQString@@ABVProperties@2@ABV3@@Z$7 00421598 f   optionconverter.obj
 0001:000205a0       __unwindfunclet$?findAndSubst@OptionConverter@Log4Qt@@SA?AVQString@@ABVProperties@2@ABV3@@Z$13 004215a0 f   optionconverter.obj
 0001:000205a9       __unwindfunclet$?findAndSubst@OptionConverter@Log4Qt@@SA?AVQString@@ABVProperties@2@ABV3@@Z$14 004215a9 f   optionconverter.obj
 0001:000205b2       __unwindfunclet$?findAndSubst@OptionConverter@Log4Qt@@SA?AVQString@@ABVProperties@2@ABV3@@Z$23 004215b2 f   optionconverter.obj
 0001:000205bb       __ehhandler$?findAndSubst@OptionConverter@Log4Qt@@SA?AVQString@@ABVProperties@2@ABV3@@Z 004215bb f   optionconverter.obj
 0001:000205e0       __unwindfunclet$?toBoolean@OptionConverter@Log4Qt@@SA_NABVQString@@PA_N@Z$0 004215e0 f   optionconverter.obj
 0001:000205e9       __unwindfunclet$?toBoolean@OptionConverter@Log4Qt@@SA_NABVQString@@PA_N@Z$1 004215e9 f   optionconverter.obj
 0001:000205f2       __unwindfunclet$?toBoolean@OptionConverter@Log4Qt@@SA_NABVQString@@PA_N@Z$2 004215f2 f   optionconverter.obj
 0001:000205fa       __ehhandler$?toBoolean@OptionConverter@Log4Qt@@SA_NABVQString@@PA_N@Z 004215fa f   optionconverter.obj
 0001:00020620       __unwindfunclet$?toFileSize@OptionConverter@Log4Qt@@SA_JABVQString@@PA_N@Z$0 00421620 f   optionconverter.obj
 0001:00020629       __unwindfunclet$?toFileSize@OptionConverter@Log4Qt@@SA_JABVQString@@PA_N@Z$1 00421629 f   optionconverter.obj
 0001:00020632       __unwindfunclet$?toFileSize@OptionConverter@Log4Qt@@SA_JABVQString@@PA_N@Z$2 00421632 f   optionconverter.obj
 0001:0002063b       __unwindfunclet$?toFileSize@OptionConverter@Log4Qt@@SA_JABVQString@@PA_N@Z$3 0042163b f   optionconverter.obj
 0001:00020643       __unwindfunclet$?toFileSize@OptionConverter@Log4Qt@@SA_JABVQString@@PA_N@Z$7 00421643 f   optionconverter.obj
 0001:0002064c       __unwindfunclet$?toFileSize@OptionConverter@Log4Qt@@SA_JABVQString@@PA_N@Z$16 0042164c f   optionconverter.obj
 0001:00020655       __ehhandler$?toFileSize@OptionConverter@Log4Qt@@SA_JABVQString@@PA_N@Z 00421655 f   optionconverter.obj
 0001:00020670       __unwindfunclet$?toLevel@OptionConverter@Log4Qt@@SA?AVLevel@2@ABVQString@@PA_N@Z$0 00421670 f   optionconverter.obj
 0001:00020679       __unwindfunclet$?toLevel@OptionConverter@Log4Qt@@SA?AVLevel@2@ABVQString@@PA_N@Z$1 00421679 f   optionconverter.obj
 0001:00020682       __unwindfunclet$?toLevel@OptionConverter@Log4Qt@@SA?AVLevel@2@ABVQString@@PA_N@Z$2 00421682 f   optionconverter.obj
 0001:0002068a       __unwindfunclet$?toLevel@OptionConverter@Log4Qt@@SA?AVLevel@2@ABVQString@@PA_N@Z$4 0042168a f   optionconverter.obj
 0001:00020693       __unwindfunclet$?toLevel@OptionConverter@Log4Qt@@SA?AVLevel@2@ABVQString@@PA_N@Z$13 00421693 f   optionconverter.obj
 0001:0002069c       __ehhandler$?toLevel@OptionConverter@Log4Qt@@SA?AVLevel@2@ABVQString@@PA_N@Z 0042169c f   optionconverter.obj
 0001:000206c0       __unwindfunclet$?toQInt64@OptionConverter@Log4Qt@@SA_JABVQString@@PA_N@Z$0 004216c0 f   optionconverter.obj
 0001:000206c0       __unwindfunclet$?toInt@OptionConverter@Log4Qt@@SAHABVQString@@PA_N@Z$0 004216c0 f   optionconverter.obj
 0001:000206c9       __unwindfunclet$?toQInt64@OptionConverter@Log4Qt@@SA_JABVQString@@PA_N@Z$1 004216c9 f   optionconverter.obj
 0001:000206c9       __unwindfunclet$?toInt@OptionConverter@Log4Qt@@SAHABVQString@@PA_N@Z$1 004216c9 f   optionconverter.obj
 0001:000206d1       __unwindfunclet$?toInt@OptionConverter@Log4Qt@@SAHABVQString@@PA_N@Z$2 004216d1 f   optionconverter.obj
 0001:000206d1       __unwindfunclet$?toQInt64@OptionConverter@Log4Qt@@SA_JABVQString@@PA_N@Z$2 004216d1 f   optionconverter.obj
 0001:000206da       __unwindfunclet$?toInt@OptionConverter@Log4Qt@@SAHABVQString@@PA_N@Z$11 004216da f   optionconverter.obj
 0001:000206da       __unwindfunclet$?toQInt64@OptionConverter@Log4Qt@@SA_JABVQString@@PA_N@Z$11 004216da f   optionconverter.obj
 0001:000206e3       __ehhandler$?toQInt64@OptionConverter@Log4Qt@@SA_JABVQString@@PA_N@Z 004216e3 f   optionconverter.obj
 0001:000206e3       __ehhandler$?toInt@OptionConverter@Log4Qt@@SAHABVQString@@PA_N@Z 004216e3 f   optionconverter.obj
 0001:00020700       __unwindfunclet$?toTarget@OptionConverter@Log4Qt@@SAHABVQString@@PA_N@Z$0 00421700 f   optionconverter.obj
 0001:00020709       __unwindfunclet$?toTarget@OptionConverter@Log4Qt@@SAHABVQString@@PA_N@Z$1 00421709 f   optionconverter.obj
 0001:00020712       __unwindfunclet$?toTarget@OptionConverter@Log4Qt@@SAHABVQString@@PA_N@Z$2 00421712 f   optionconverter.obj
 0001:0002071a       __ehhandler$?toTarget@OptionConverter@Log4Qt@@SAHABVQString@@PA_N@Z 0042171a f   optionconverter.obj
 0001:00020740       __ehhandler$??0?$QList@PAVPatternConverter@Log4Qt@@@@QAE@ABV0@@Z 00421740 f   patternformatter.obj
 0001:00020760       __unwindfunclet$??0PatternFormatter@Log4Qt@@QAE@ABVQString@@@Z$0 00421760 f   patternformatter.obj
 0001:0002076c       __unwindfunclet$??0PatternFormatter@Log4Qt@@QAE@ABVQString@@@Z$1 0042176c f   patternformatter.obj
 0001:00020778       __unwindfunclet$??0PatternFormatter@Log4Qt@@QAE@ABVQString@@@Z$2 00421778 f   patternformatter.obj
 0001:00020784       __unwindfunclet$??0PatternFormatter@Log4Qt@@QAE@ABVQString@@@Z$3 00421784 f   patternformatter.obj
 0001:00020790       __unwindfunclet$??0PatternFormatter@Log4Qt@@QAE@ABVQString@@@Z$4 00421790 f   patternformatter.obj
 0001:0002079b       __ehhandler$??0PatternFormatter@Log4Qt@@QAE@ABVQString@@@Z 0042179b f   patternformatter.obj
 0001:000207c0       __unwindfunclet$??1PatternFormatter@Log4Qt@@UAE@XZ$2 004217c0 f   patternformatter.obj
 0001:000207c6       __unwindfunclet$??1PatternFormatter@Log4Qt@@UAE@XZ$9 004217c6 f   patternformatter.obj
 0001:000207cc       __ehhandler$??1PatternFormatter@Log4Qt@@UAE@XZ 004217cc f   patternformatter.obj
 0001:000207f0       __unwindfunclet$??6Log4Qt@@YA?AVQDebug@@V1@ABVFormattingInfo@0@@Z$0 004217f0 f   patternformatter.obj
 0001:000207f9       __unwindfunclet$??6Log4Qt@@YA?AVQDebug@@V1@ABVFormattingInfo@0@@Z$1 004217f9 f   patternformatter.obj
 0001:00020802       __unwindfunclet$??6Log4Qt@@YA?AVQDebug@@V1@ABVFormattingInfo@0@@Z$2 00421802 f   patternformatter.obj
 0001:0002080b       __ehhandler$??6Log4Qt@@YA?AVQDebug@@V1@ABVFormattingInfo@0@@Z 0042180b f   patternformatter.obj
 0001:00020830       __unwindfunclet$?convert@DatePatternConverter@Log4Qt@@MBE?AVQString@@ABVLoggingEvent@2@@Z$0 00421830 f   patternformatter.obj
 0001:00020838       __ehhandler$?convert@DatePatternConverter@Log4Qt@@MBE?AVQString@@ABVLoggingEvent@2@@Z 00421838 f   patternformatter.obj
 0001:00020860       __unwindfunclet$?convert@LoggerPatternConverter@Log4Qt@@MBE?AVQString@@ABVLoggingEvent@2@@Z$1 00421860 f   patternformatter.obj
 0001:00020869       __unwindfunclet$?convert@LoggerPatternConverter@Log4Qt@@MBE?AVQString@@ABVLoggingEvent@2@@Z$2 00421869 f   patternformatter.obj
 0001:00020872       __ehhandler$?convert@LoggerPatternConverter@Log4Qt@@MBE?AVQString@@ABVLoggingEvent@2@@Z 00421872 f   patternformatter.obj
 0001:00020890       __unwindfunclet$?convert@MDCPatternConverter@Log4Qt@@MBE?AVQString@@ABVLoggingEvent@2@@Z$2 00421890 f   patternformatter.obj
 0001:00020896       __ehhandler$?convert@MDCPatternConverter@Log4Qt@@MBE?AVQString@@ABVLoggingEvent@2@@Z 00421896 f   patternformatter.obj
 0001:000208c0       __unwindfunclet$?createConverter@PatternFormatter@Log4Qt@@AAEXABVQChar@@ABVFormattingInfo@2@ABVQString@@@Z$0 004218c0 f   patternformatter.obj
 0001:000208c8       __unwindfunclet$?createConverter@PatternFormatter@Log4Qt@@AAEXABVQChar@@ABVFormattingInfo@2@ABVQString@@@Z$1 004218c8 f   patternformatter.obj
 0001:000208d1       __unwindfunclet$?createConverter@PatternFormatter@Log4Qt@@AAEXABVQChar@@ABVFormattingInfo@2@ABVQString@@@Z$2 004218d1 f   patternformatter.obj
 0001:000208da       __unwindfunclet$?createConverter@PatternFormatter@Log4Qt@@AAEXABVQChar@@ABVFormattingInfo@2@ABVQString@@@Z$3 004218da f   patternformatter.obj
 0001:000208e3       __unwindfunclet$?createConverter@PatternFormatter@Log4Qt@@AAEXABVQChar@@ABVFormattingInfo@2@ABVQString@@@Z$14 004218e3 f   patternformatter.obj
 0001:000208ec       __unwindfunclet$?createConverter@PatternFormatter@Log4Qt@@AAEXABVQChar@@ABVFormattingInfo@2@ABVQString@@@Z$15 004218ec f   patternformatter.obj
 0001:000208f5       __unwindfunclet$?createConverter@PatternFormatter@Log4Qt@@AAEXABVQChar@@ABVFormattingInfo@2@ABVQString@@@Z$16 004218f5 f   patternformatter.obj
 0001:000208fe       __unwindfunclet$?createConverter@PatternFormatter@Log4Qt@@AAEXABVQChar@@ABVFormattingInfo@2@ABVQString@@@Z$17 004218fe f   patternformatter.obj
 0001:00020907       __unwindfunclet$?createConverter@PatternFormatter@Log4Qt@@AAEXABVQChar@@ABVFormattingInfo@2@ABVQString@@@Z$18 00421907 f   patternformatter.obj
 0001:00020910       __unwindfunclet$?createConverter@PatternFormatter@Log4Qt@@AAEXABVQChar@@ABVFormattingInfo@2@ABVQString@@@Z$27 00421910 f   patternformatter.obj
 0001:00020919       __unwindfunclet$?createConverter@PatternFormatter@Log4Qt@@AAEXABVQChar@@ABVFormattingInfo@2@ABVQString@@@Z$4 00421919 f   patternformatter.obj
 0001:00020928       __unwindfunclet$?createConverter@PatternFormatter@Log4Qt@@AAEXABVQChar@@ABVFormattingInfo@2@ABVQString@@@Z$5 00421928 f   patternformatter.obj
 0001:00020931       __unwindfunclet$?createConverter@PatternFormatter@Log4Qt@@AAEXABVQChar@@ABVFormattingInfo@2@ABVQString@@@Z$9 00421931 f   patternformatter.obj
 0001:00020940       __unwindfunclet$?createConverter@PatternFormatter@Log4Qt@@AAEXABVQChar@@ABVFormattingInfo@2@ABVQString@@@Z$10 00421940 f   patternformatter.obj
 0001:0002095a       __ehhandler$?createConverter@PatternFormatter@Log4Qt@@AAEXABVQChar@@ABVFormattingInfo@2@ABVQString@@@Z 0042195a f   patternformatter.obj
 0001:00020980       __unwindfunclet$?debug@BasicPatternConverter@Log4Qt@@MBE?AVQDebug@@AAV3@@Z$0 00421980 f   patternformatter.obj
 0001:00020989       __unwindfunclet$?debug@BasicPatternConverter@Log4Qt@@MBE?AVQDebug@@AAV3@@Z$2 00421989 f   patternformatter.obj
 0001:00020992       __ehhandler$?debug@BasicPatternConverter@Log4Qt@@MBE?AVQDebug@@AAV3@@Z 00421992 f   patternformatter.obj
 0001:000209b0       __unwindfunclet$?debug@MDCPatternConverter@Log4Qt@@MBE?AVQDebug@@AAV3@@Z$1 004219b0 f   patternformatter.obj
 0001:000209b0       __unwindfunclet$?debug@DatePatternConverter@Log4Qt@@MBE?AVQDebug@@AAV3@@Z$1 004219b0 f   patternformatter.obj
 0001:000209b0       __unwindfunclet$?debug@LiteralPatternConverter@Log4Qt@@MBE?AVQDebug@@AAV3@@Z$1 004219b0 f   patternformatter.obj
 0001:000209b0       __unwindfunclet$?debug@LoggerPatternConverter@Log4Qt@@MBE?AVQDebug@@AAV3@@Z$1 004219b0 f   patternformatter.obj
 0001:000209b9       __ehhandler$?debug@LiteralPatternConverter@Log4Qt@@MBE?AVQDebug@@AAV3@@Z 004219b9 f   patternformatter.obj
 0001:000209b9       __ehhandler$?debug@MDCPatternConverter@Log4Qt@@MBE?AVQDebug@@AAV3@@Z 004219b9 f   patternformatter.obj
 0001:000209b9       __ehhandler$?debug@DatePatternConverter@Log4Qt@@MBE?AVQDebug@@AAV3@@Z 004219b9 f   patternformatter.obj
 0001:000209b9       __ehhandler$?debug@LoggerPatternConverter@Log4Qt@@MBE?AVQDebug@@AAV3@@Z 004219b9 f   patternformatter.obj
 0001:000209e0       __unwindfunclet$?format@PatternConverter@Log4Qt@@QBEXAAVQString@@ABVLoggingEvent@2@@Z$0 004219e0 f   patternformatter.obj
 0001:000209e9       __unwindfunclet$?format@PatternConverter@Log4Qt@@QBEXAAVQString@@ABVLoggingEvent@2@@Z$1 004219e9 f   patternformatter.obj
 0001:000209f2       __unwindfunclet$?format@PatternConverter@Log4Qt@@QBEXAAVQString@@ABVLoggingEvent@2@@Z$2 004219f2 f   patternformatter.obj
 0001:000209fb       __unwindfunclet$?format@PatternConverter@Log4Qt@@QBEXAAVQString@@ABVLoggingEvent@2@@Z$3 004219fb f   patternformatter.obj
 0001:00020a04       __ehhandler$?format@PatternConverter@Log4Qt@@QBEXAAVQString@@ABVLoggingEvent@2@@Z 00421a04 f   patternformatter.obj
 0001:00020a20       __unwindfunclet$?format@PatternFormatter@Log4Qt@@QBE?AVQString@@ABVLoggingEvent@2@@Z$0 00421a20 f   patternformatter.obj
 0001:00020a3a       __unwindfunclet$?format@PatternFormatter@Log4Qt@@QBE?AVQString@@ABVLoggingEvent@2@@Z$1 00421a3a f   patternformatter.obj
 0001:00020a42       __unwindfunclet$?format@PatternFormatter@Log4Qt@@QBE?AVQString@@ABVLoggingEvent@2@@Z$4 00421a42 f   patternformatter.obj
 0001:00020a48       __ehhandler$?format@PatternFormatter@Log4Qt@@QBE?AVQString@@ABVLoggingEvent@2@@Z 00421a48 f   patternformatter.obj
 0001:00020a70       __unwindfunclet$?parse@PatternFormatter@Log4Qt@@AAEXXZ$0 00421a70 f   patternformatter.obj
 0001:00020a79       __unwindfunclet$?parse@PatternFormatter@Log4Qt@@AAEXXZ$1 00421a79 f   patternformatter.obj
 0001:00020a82       __unwindfunclet$?parse@PatternFormatter@Log4Qt@@AAEXXZ$2 00421a82 f   patternformatter.obj
 0001:00020a8d       __unwindfunclet$?parse@PatternFormatter@Log4Qt@@AAEXXZ$3 00421a8d f   patternformatter.obj
 0001:00020a96       __unwindfunclet$?parse@PatternFormatter@Log4Qt@@AAEXXZ$10 00421a96 f   patternformatter.obj
 0001:00020a9f       __unwindfunclet$?parse@PatternFormatter@Log4Qt@@AAEXXZ$19 00421a9f f   patternformatter.obj
 0001:00020aa8       __unwindfunclet$?parse@PatternFormatter@Log4Qt@@AAEXXZ$4 00421aa8 f   patternformatter.obj
 0001:00020ab1       __unwindfunclet$?parse@PatternFormatter@Log4Qt@@AAEXXZ$5 00421ab1 f   patternformatter.obj
 0001:00020aba       __unwindfunclet$?parse@PatternFormatter@Log4Qt@@AAEXXZ$6 00421aba f   patternformatter.obj
 0001:00020ac3       __unwindfunclet$?parse@PatternFormatter@Log4Qt@@AAEXXZ$7 00421ac3 f   patternformatter.obj
 0001:00020acc       __unwindfunclet$?parse@PatternFormatter@Log4Qt@@AAEXXZ$8 00421acc f   patternformatter.obj
 0001:00020ad5       __unwindfunclet$?parse@PatternFormatter@Log4Qt@@AAEXXZ$9 00421ad5 f   patternformatter.obj
 0001:00020ade       __ehhandler$?parse@PatternFormatter@Log4Qt@@AAEXXZ 00421ade f   patternformatter.obj
 0001:00020b00       __unwindfunclet$?parseIntegerOption@PatternFormatter@Log4Qt@@AAEHABVQString@@@Z$0 00421b00 f   patternformatter.obj
 0001:00020b08       __unwindfunclet$?parseIntegerOption@PatternFormatter@Log4Qt@@AAEHABVQString@@@Z$2 00421b08 f   patternformatter.obj
 0001:00020b11       __unwindfunclet$?parseIntegerOption@PatternFormatter@Log4Qt@@AAEHABVQString@@@Z$11 00421b11 f   patternformatter.obj
 0001:00020b1a       __unwindfunclet$?parseIntegerOption@PatternFormatter@Log4Qt@@AAEHABVQString@@@Z$1 00421b1a f   patternformatter.obj
 0001:00020b22       __unwindfunclet$?parseIntegerOption@PatternFormatter@Log4Qt@@AAEHABVQString@@@Z$12 00421b22 f   patternformatter.obj
 0001:00020b2b       __unwindfunclet$?parseIntegerOption@PatternFormatter@Log4Qt@@AAEHABVQString@@@Z$21 00421b2b f   patternformatter.obj
 0001:00020b34       __ehhandler$?parseIntegerOption@PatternFormatter@Log4Qt@@AAEHABVQString@@@Z 00421b34 f   patternformatter.obj
 0001:00020b50       __unwindfunclet$?warn@Logger@Log4Qt@@QBEXPBDABVQString@@H1@Z$0 00421b50 f   patternformatter.obj
 0001:00020b59       __unwindfunclet$?warn@Logger@Log4Qt@@QBEXPBDABVQString@@H1@Z$1 00421b59 f   patternformatter.obj
 0001:00020b62       __unwindfunclet$?warn@Logger@Log4Qt@@QBEXPBDABVQString@@H1@Z$2 00421b62 f   patternformatter.obj
 0001:00020b6b       __unwindfunclet$?warn@Logger@Log4Qt@@QBEXPBDABVQString@@H1@Z$3 00421b6b f   patternformatter.obj
 0001:00020b74       __ehhandler$?warn@Logger@Log4Qt@@QBEXPBDABVQString@@H1@Z 00421b74 f   patternformatter.obj
 0001:00020b90       __unwindfunclet$?keys@?$QHash@VQString@@V1@@@QBE?AV?$QList@VQString@@@@XZ$0 00421b90 f   properties.obj
 0001:00020ba9       __ehhandler$?keys@?$QHash@VQString@@V1@@@QBE?AV?$QList@VQString@@@@XZ 00421ba9 f   properties.obj
 0001:00020bd0       __unwindfunclet$?load@Properties@Log4Qt@@QAEXABVQSettings@@@Z$0 00421bd0 f   properties.obj
 0001:00020bd8       __unwindfunclet$?load@Properties@Log4Qt@@QAEXABVQSettings@@@Z$1 00421bd8 f   properties.obj
 0001:00020be1       __unwindfunclet$?load@Properties@Log4Qt@@QAEXABVQSettings@@@Z$2 00421be1 f   properties.obj
 0001:00020be9       __unwindfunclet$?load@Properties@Log4Qt@@QAEXABVQSettings@@@Z$3 00421be9 f   properties.obj
 0001:00020bf2       __unwindfunclet$?load@Properties@Log4Qt@@QAEXABVQSettings@@@Z$4 00421bf2 f   properties.obj
 0001:00020bfb       __unwindfunclet$?load@Properties@Log4Qt@@QAEXABVQSettings@@@Z$5 00421bfb f   properties.obj
 0001:00020c04       __unwindfunclet$?load@Properties@Log4Qt@@QAEXABVQSettings@@@Z$9 00421c04 f   properties.obj
 0001:00020c0a       __unwindfunclet$?load@Properties@Log4Qt@@QAEXABVQSettings@@@Z$19 00421c0a f   properties.obj
 0001:00020c10       __ehhandler$?load@Properties@Log4Qt@@QAEXABVQSettings@@@Z 00421c10 f   properties.obj
 0001:00020c30       __unwindfunclet$?load@Properties@Log4Qt@@QAEXPAVQIODevice@@@Z$15 00421c30 f   properties.obj
 0001:00020c39       __unwindfunclet$?load@Properties@Log4Qt@@QAEXPAVQIODevice@@@Z$0 00421c39 f   properties.obj
 0001:00020c42       __unwindfunclet$?load@Properties@Log4Qt@@QAEXPAVQIODevice@@@Z$1 00421c42 f   properties.obj
 0001:00020c4b       __unwindfunclet$?load@Properties@Log4Qt@@QAEXPAVQIODevice@@@Z$2 00421c4b f   properties.obj
 0001:00020c54       __unwindfunclet$?load@Properties@Log4Qt@@QAEXPAVQIODevice@@@Z$3 00421c54 f   properties.obj
 0001:00020c5d       __unwindfunclet$?load@Properties@Log4Qt@@QAEXPAVQIODevice@@@Z$5 00421c5d f   properties.obj
 0001:00020c66       __ehhandler$?load@Properties@Log4Qt@@QAEXPAVQIODevice@@@Z 00421c66 f   properties.obj
 0001:00020c90       __unwindfunclet$?parseProperty@Properties@Log4Qt@@AAEXABVQString@@H@Z$0 00421c90 f   properties.obj
 0001:00020c99       __unwindfunclet$?parseProperty@Properties@Log4Qt@@AAEXABVQString@@H@Z$1 00421c99 f   properties.obj
 0001:00020ca2       __unwindfunclet$?parseProperty@Properties@Log4Qt@@AAEXABVQString@@H@Z$2 00421ca2 f   properties.obj
 0001:00020cab       __unwindfunclet$?parseProperty@Properties@Log4Qt@@AAEXABVQString@@H@Z$3 00421cab f   properties.obj
 0001:00020cb4       __unwindfunclet$?parseProperty@Properties@Log4Qt@@AAEXABVQString@@H@Z$4 00421cb4 f   properties.obj
 0001:00020cbd       __unwindfunclet$?parseProperty@Properties@Log4Qt@@AAEXABVQString@@H@Z$5 00421cbd f   properties.obj
 0001:00020cc6       __unwindfunclet$?parseProperty@Properties@Log4Qt@@AAEXABVQString@@H@Z$6 00421cc6 f   properties.obj
 0001:00020ccf       __unwindfunclet$?parseProperty@Properties@Log4Qt@@AAEXABVQString@@H@Z$7 00421ccf f   properties.obj
 0001:00020cd8       __unwindfunclet$?parseProperty@Properties@Log4Qt@@AAEXABVQString@@H@Z$28 00421cd8 f   properties.obj
 0001:00020ce1       __ehhandler$?parseProperty@Properties@Log4Qt@@AAEXABVQString@@H@Z 00421ce1 f   properties.obj
 0001:00020d00       __unwindfunclet$?property@Properties@Log4Qt@@QBE?AVQString@@ABV3@@Z$0 00421d00 f   properties.obj
 0001:00020d09       __ehhandler$?property@Properties@Log4Qt@@QBE?AVQString@@ABV3@@Z 00421d09 f   properties.obj
 0001:00020d30       __unwindfunclet$?propertyNames@Properties@Log4Qt@@QBE?AVQStringList@@XZ$0 00421d30 f   properties.obj
 0001:00020d38       __unwindfunclet$?propertyNames@Properties@Log4Qt@@QBE?AVQStringList@@XZ$3 00421d38 f   properties.obj
 0001:00020d51       __unwindfunclet$?propertyNames@Properties@Log4Qt@@QBE?AVQStringList@@XZ$4 00421d51 f   properties.obj
 0001:00020d5a       __unwindfunclet$?propertyNames@Properties@Log4Qt@@QBE?AVQStringList@@XZ$5 00421d5a f   properties.obj
 0001:00020d62       __unwindfunclet$?propertyNames@Properties@Log4Qt@@QBE?AVQStringList@@XZ$25 00421d62 f   properties.obj
 0001:00020d68       __unwindfunclet$?propertyNames@Properties@Log4Qt@@QBE?AVQStringList@@XZ$35 00421d68 f   properties.obj
 0001:00020d6e       __ehhandler$?propertyNames@Properties@Log4Qt@@QBE?AVQStringList@@XZ 00421d6e f   properties.obj
 0001:00020d90       __unwindfunclet$?warn@Logger@Log4Qt@@QBEXPBDABVQString@@H@Z$0 00421d90 f   properties.obj
 0001:00020d99       __unwindfunclet$?warn@Logger@Log4Qt@@QBEXPBDABVQString@@H@Z$1 00421d99 f   properties.obj
 0001:00020da2       __unwindfunclet$?warn@Logger@Log4Qt@@QBEXPBDABVQString@@H@Z$2 00421da2 f   properties.obj
 0001:00020dab       __ehhandler$?warn@Logger@Log4Qt@@QBEXPBDABVQString@@H@Z 00421dab f   properties.obj
 0001:00020dd0       __unwindfunclet$??0Hierarchy@Log4Qt@@QAE@XZ$0 00421dd0 f   hierarchy.obj
 0001:00020ddc       __unwindfunclet$??0Hierarchy@Log4Qt@@QAE@XZ$1 00421ddc f   hierarchy.obj
 0001:00020de7       __unwindfunclet$??0Hierarchy@Log4Qt@@QAE@XZ$2 00421de7 f   hierarchy.obj
 0001:00020df0       __unwindfunclet$??0Hierarchy@Log4Qt@@QAE@XZ$5 00421df0 f   hierarchy.obj
 0001:00020df9       __ehhandler$??0Hierarchy@Log4Qt@@QAE@XZ 00421df9 f   hierarchy.obj
 0001:00020e20       __ehhandler$??1?$QHash@VQString@@P6APAVAppender@Log4Qt@@XZ@@QAE@XZ 00421e20 f   factory.obj
 0001:00020e20       __ehhandler$??1?$QList@PAVPatternConverter@Log4Qt@@@@QAE@XZ 00421e20 f   patternformatter.obj
 0001:00020e20       __ehhandler$??1?$QList@PAVLogger@Log4Qt@@@@QAE@XZ 00421e20 f   hierarchy.obj
 0001:00020e20       __ehhandler$??1?$QHash@VQString@@V1@@@QAE@XZ 00421e20 f   initialisationhelper.obj
 0001:00020e20       __ehhandler$??1?$QHash@VQString@@P6APAVFilter@Log4Qt@@XZ@@QAE@XZ 00421e20 f   factory.obj
 0001:00020e20       __ehhandler$??1?$QList@PAVAppender@Log4Qt@@@@QAE@XZ 00421e20 f   hierarchy.obj
 0001:00020e20       __ehhandler$??1?$QHash@VQString@@P6APAVLayout@Log4Qt@@XZ@@QAE@XZ 00421e20 f   factory.obj
 0001:00020e20       __ehhandler$??1?$QList@VLogError@Log4Qt@@@@QAE@XZ 00421e20 f   appenderskeleton.obj
 0001:00020e20       __ehhandler$??1?$QHash@VQString@@PAVLogger@Log4Qt@@@@QAE@XZ 00421e20 f   hierarchy.obj
 0001:00020e40       __ehhandler$?append@?$QList@PAVPatternConverter@Log4Qt@@@@QAEXABQAVPatternConverter@Log4Qt@@@Z 00421e40 f   patternformatter.obj
 0001:00020e40       __ehhandler$?append@?$QList@PAVLogger@Log4Qt@@@@QAEXABQAVLogger@Log4Qt@@@Z 00421e40 f   hierarchy.obj
 0001:00020e40       __ehhandler$?append@?$QList@PAVAppender@Log4Qt@@@@QAEXABQAVAppender@Log4Qt@@@Z 00421e40 f   logger.obj
 0001:00020e60       __unwindfunclet$?createLogger@Hierarchy@Log4Qt@@AAEPAVLogger@2@ABVQString@@@Z$0 00421e60 f   hierarchy.obj
 0001:00020e69       __unwindfunclet$?createLogger@Hierarchy@Log4Qt@@AAEPAVLogger@2@ABVQString@@@Z$1 00421e69 f   hierarchy.obj
 0001:00020e78       __unwindfunclet$?createLogger@Hierarchy@Log4Qt@@AAEPAVLogger@2@ABVQString@@@Z$2 00421e78 f   hierarchy.obj
 0001:00020e92       __unwindfunclet$?createLogger@Hierarchy@Log4Qt@@AAEPAVLogger@2@ABVQString@@@Z$3 00421e92 f   hierarchy.obj
 0001:00020e9b       __unwindfunclet$?createLogger@Hierarchy@Log4Qt@@AAEPAVLogger@2@ABVQString@@@Z$4 00421e9b f   hierarchy.obj
 0001:00020ea4       __unwindfunclet$?createLogger@Hierarchy@Log4Qt@@AAEPAVLogger@2@ABVQString@@@Z$6 00421ea4 f   hierarchy.obj
 0001:00020eb3       __ehhandler$?createLogger@Hierarchy@Log4Qt@@AAEPAVLogger@2@ABVQString@@@Z 00421eb3 f   hierarchy.obj
 0001:00020ed0       __unwindfunclet$?debug@Hierarchy@Log4Qt@@MBE?AVQDebug@@AAV3@@Z$0 00421ed0 f   hierarchy.obj
 0001:00020ed8       __unwindfunclet$?debug@Hierarchy@Log4Qt@@MBE?AVQDebug@@AAV3@@Z$1 00421ed8 f   hierarchy.obj
 0001:00020ee1       __unwindfunclet$?debug@Hierarchy@Log4Qt@@MBE?AVQDebug@@AAV3@@Z$2 00421ee1 f   hierarchy.obj
 0001:00020eea       __unwindfunclet$?debug@Hierarchy@Log4Qt@@MBE?AVQDebug@@AAV3@@Z$3 00421eea f   hierarchy.obj
 0001:00020ef2       __unwindfunclet$?debug@Hierarchy@Log4Qt@@MBE?AVQDebug@@AAV3@@Z$6 00421ef2 f   hierarchy.obj
 0001:00020ef8       __unwindfunclet$?debug@Hierarchy@Log4Qt@@MBE?AVQDebug@@AAV3@@Z$13 00421ef8 f   hierarchy.obj
 0001:00020efe       __ehhandler$?debug@Hierarchy@Log4Qt@@MBE?AVQDebug@@AAV3@@Z 00421efe f   hierarchy.obj
 0001:00020f20       __ehhandler$?detach_helper@?$QList@PAVLogger@Log4Qt@@@@AAEXH@Z 00421f20 f   hierarchy.obj
 0001:00020f40       __unwindfunclet$?logger@Hierarchy@Log4Qt@@UAEPAVLogger@2@ABVQString@@@Z$0 00421f40 f   hierarchy.obj
 0001:00020f49       __ehhandler$?logger@Hierarchy@Log4Qt@@UAEPAVLogger@2@ABVQString@@@Z 00421f49 f   hierarchy.obj
 0001:00020f70       __unwindfunclet$?loggers@Hierarchy@Log4Qt@@UBE?AV?$QList@PAVLogger@Log4Qt@@@@XZ$0 00421f70 f   hierarchy.obj
 0001:00020f79       __ehhandler$?loggers@Hierarchy@Log4Qt@@UBE?AV?$QList@PAVLogger@Log4Qt@@@@XZ 00421f79 f   hierarchy.obj
 0001:00020fa0       __unwindfunclet$?resetConfiguration@Hierarchy@Log4Qt@@UAEXXZ$0 00421fa0 f   hierarchy.obj
 0001:00020fa9       __unwindfunclet$?resetConfiguration@Hierarchy@Log4Qt@@UAEXXZ$1 00421fa9 f   hierarchy.obj
 0001:00020fb2       __unwindfunclet$?resetConfiguration@Hierarchy@Log4Qt@@UAEXXZ$2 00421fb2 f   hierarchy.obj
 0001:00020fbb       __unwindfunclet$?resetConfiguration@Hierarchy@Log4Qt@@UAEXXZ$3 00421fbb f   hierarchy.obj
 0001:00020fc3       __unwindfunclet$?resetConfiguration@Hierarchy@Log4Qt@@UAEXXZ$8 00421fc3 f   hierarchy.obj
 0001:00020fc9       __ehhandler$?resetConfiguration@Hierarchy@Log4Qt@@UAEXXZ 00421fc9 f   hierarchy.obj
 0001:00020ff0       __unwindfunclet$?values@?$QHash@VQString@@PAVLogger@Log4Qt@@@@QBE?AV?$QList@PAVLogger@Log4Qt@@@@XZ$0 00421ff0 f   hierarchy.obj
 0001:00021009       __ehhandler$?values@?$QHash@VQString@@PAVLogger@Log4Qt@@@@QBE?AV?$QList@PAVLogger@Log4Qt@@@@XZ 00422009 f   hierarchy.obj
 0001:00021030       __unwindfunclet$??6Log4Qt@@YA?AVQDebug@@V1@ABVLevel@0@@Z$0 00422030 f   level.obj
 0001:00021039       __unwindfunclet$??6Log4Qt@@YA?AVQDebug@@V1@ABVLevel@0@@Z$1 00422039 f   level.obj
 0001:00021042       __ehhandler$??6Log4Qt@@YA?AVQDebug@@V1@ABVLevel@0@@Z 00422042 f   level.obj
 0001:00021060       __ehhandler$??0?$QList@V?$LogObjectPtr@VAppender@Log4Qt@@@Log4Qt@@@@QAE@ABV0@@Z 00422060 f   logger.obj
 0001:00021080       __unwindfunclet$??0Logger@Log4Qt@@IAE@PAVLoggerRepository@1@VLevel@1@ABVQString@@PAV01@@Z$0 00422080 f   logger.obj
 0001:00021089       __unwindfunclet$??0Logger@Log4Qt@@IAE@PAVLoggerRepository@1@VLevel@1@ABVQString@@PAV01@@Z$1 00422089 f   logger.obj
 0001:00021095       __unwindfunclet$??0Logger@Log4Qt@@IAE@PAVLoggerRepository@1@VLevel@1@ABVQString@@PAV01@@Z$2 00422095 f   logger.obj
 0001:000210a1       __unwindfunclet$??0Logger@Log4Qt@@IAE@PAVLoggerRepository@1@VLevel@1@ABVQString@@PAV01@@Z$3 004220a1 f   logger.obj
 0001:000210ac       __ehhandler$??0Logger@Log4Qt@@IAE@PAVLoggerRepository@1@VLevel@1@ABVQString@@PAV01@@Z 004220ac f   logger.obj
 0001:000210d0       __unwindfunclet$??_GLoggingEvent@Log4Qt@@QAEPAXI@Z$1 004220d0 f   basicconfigurator.obj
 0001:000210d0       __unwindfunclet$??_GDailyRollingFileAppender@Log4Qt@@UAEPAXI@Z$0 004220d0 f   dailyrollingfileappender.obj
 0001:000210d0       __unwindfunclet$??_GRollingFileAppender@Log4Qt@@UAEPAXI@Z$0 004220d0 f   rollingfileappender.obj
 0001:000210d0       __unwindfunclet$??1?$QForeachContainer@V?$QList@VQVariant@@@@@QtPrivate@@QAE@XZ$0 004220d0 f   logerror.obj
 0001:000210d0       __unwindfunclet$??_GInitialisationHelper@Log4Qt@@EAEPAXI@Z$1 004220d0 f   initialisationhelper.obj
 0001:000210d0       __unwindfunclet$??1LoggingEvent@Log4Qt@@QAE@XZ$0 004220d0 f   logger.obj
 0001:000210d0       __unwindfunclet$??_GNullAppender@Log4Qt@@UAEPAXI@Z$0 004220d0 f   nullappender.obj
 0001:000210d0       __unwindfunclet$??1?$QForeachContainer@V?$QList@V?$LogObjectPtr@VAppender@Log4Qt@@@Log4Qt@@@@@QtPrivate@@QAE@XZ$0 004220d0 f   logger.obj
 0001:000210d6       __ehhandler$??_GDailyRollingFileAppender@Log4Qt@@UAEPAXI@Z 004220d6 f   dailyrollingfileappender.obj
 0001:000210d6       __ehhandler$??_GInitialisationHelper@Log4Qt@@EAEPAXI@Z 004220d6 f   initialisationhelper.obj
 0001:000210d6       __ehhandler$??_GNullAppender@Log4Qt@@UAEPAXI@Z 004220d6 f   nullappender.obj
 0001:000210d6       __ehhandler$??1?$QForeachContainer@V?$QList@V?$LogObjectPtr@VAppender@Log4Qt@@@Log4Qt@@@@@QtPrivate@@QAE@XZ 004220d6 f   logger.obj
 0001:000210d6       __ehhandler$??_GLoggingEvent@Log4Qt@@QAEPAXI@Z 004220d6 f   basicconfigurator.obj
 0001:000210d6       __ehhandler$??_GRollingFileAppender@Log4Qt@@UAEPAXI@Z 004220d6 f   rollingfileappender.obj
 0001:000210d6       __ehhandler$??1LoggingEvent@Log4Qt@@QAE@XZ 004220d6 f   logger.obj
 0001:000210d6       __ehhandler$??1?$QForeachContainer@V?$QList@VQVariant@@@@@QtPrivate@@QAE@XZ 004220d6 f   logerror.obj
 0001:00021100       __unwindfunclet$?addAppender@Logger@Log4Qt@@QAEXPAVAppender@2@@Z$0 00422100 f   logger.obj
 0001:00021108       __unwindfunclet$?addAppender@Logger@Log4Qt@@QAEXPAVAppender@2@@Z$1 00422108 f   logger.obj
 0001:00021111       __unwindfunclet$?addAppender@Logger@Log4Qt@@QAEXPAVAppender@2@@Z$2 00422111 f   logger.obj
 0001:0002111a       __unwindfunclet$?addAppender@Logger@Log4Qt@@QAEXPAVAppender@2@@Z$5 0042211a f   logger.obj
 0001:00021123       __unwindfunclet$?addAppender@Logger@Log4Qt@@QAEXPAVAppender@2@@Z$3 00422123 f   logger.obj
 0001:0002112c       __unwindfunclet$?addAppender@Logger@Log4Qt@@QAEXPAVAppender@2@@Z$4 0042212c f   logger.obj
 0001:00021135       __ehhandler$?addAppender@Logger@Log4Qt@@QAEXPAVAppender@2@@Z 00422135 f   logger.obj
 0001:00021150       __ehhandler$?append@?$QList@V?$LogObjectPtr@VAppender@Log4Qt@@@Log4Qt@@@@QAEXABV?$LogObjectPtr@VAppender@Log4Qt@@@Log4Qt@@@Z 00422150 f   logger.obj
 0001:00021170       __unwindfunclet$?appenders@Logger@Log4Qt@@QBE?AV?$QList@PAVAppender@Log4Qt@@@@XZ$0 00422170 f   logger.obj
 0001:00021179       __unwindfunclet$?appenders@Logger@Log4Qt@@QBE?AV?$QList@PAVAppender@Log4Qt@@@@XZ$1 00422179 f   logger.obj
 0001:00021192       __unwindfunclet$?appenders@Logger@Log4Qt@@QBE?AV?$QList@PAVAppender@Log4Qt@@@@XZ$2 00422192 f   logger.obj
 0001:0002119a       __unwindfunclet$?appenders@Logger@Log4Qt@@QBE?AV?$QList@PAVAppender@Log4Qt@@@@XZ$6 0042219a f   logger.obj
 0001:000211a0       __ehhandler$?appenders@Logger@Log4Qt@@QBE?AV?$QList@PAVAppender@Log4Qt@@@@XZ 004221a0 f   logger.obj
 0001:000211c0       __unwindfunclet$?callAppenders@Logger@Log4Qt@@QBEXABVLoggingEvent@2@@Z$0 004221c0 f   logger.obj
 0001:000211c9       __unwindfunclet$?callAppenders@Logger@Log4Qt@@QBEXABVLoggingEvent@2@@Z$1 004221c9 f   logger.obj
 0001:000211d1       __unwindfunclet$?callAppenders@Logger@Log4Qt@@QBEXABVLoggingEvent@2@@Z$4 004221d1 f   logger.obj
 0001:000211d7       __ehhandler$?callAppenders@Logger@Log4Qt@@QBEXABVLoggingEvent@2@@Z 004221d7 f   logger.obj
 0001:00021200       __unwindfunclet$?clear@?$QList@V?$LogObjectPtr@VAppender@Log4Qt@@@Log4Qt@@@@QAEXXZ$2 00422200 f   logger.obj
 0001:00021200       __unwindfunclet$??4?$QList@VLoggingEvent@Log4Qt@@@@QAEAAV0@ABV0@@Z$7 00422200 f   basicconfigurator.obj
 0001:00021206       __ehhandler$?clear@?$QList@V?$LogObjectPtr@VAppender@Log4Qt@@@Log4Qt@@@@QAEXXZ 00422206 f   logger.obj
 0001:00021206       __ehhandler$??4?$QList@VLoggingEvent@Log4Qt@@@@QAEAAV0@ABV0@@Z 00422206 f   basicconfigurator.obj
 0001:00021230       __unwindfunclet$?debug@Logger@Log4Qt@@MBE?AVQDebug@@AAV3@@Z$0 00422230 f   logger.obj
 0001:00021239       __unwindfunclet$?debug@Logger@Log4Qt@@MBE?AVQDebug@@AAV3@@Z$1 00422239 f   logger.obj
 0001:00021242       __unwindfunclet$?debug@Logger@Log4Qt@@MBE?AVQDebug@@AAV3@@Z$3 00422242 f   logger.obj
 0001:0002124b       __unwindfunclet$?debug@Logger@Log4Qt@@MBE?AVQDebug@@AAV3@@Z$5 0042224b f   logger.obj
 0001:00021254       __ehhandler$?debug@Logger@Log4Qt@@MBE?AVQDebug@@AAV3@@Z 00422254 f   logger.obj
 0001:00021270       __ehhandler$?detach_helper@?$QList@V?$LogObjectPtr@VAppender@Log4Qt@@@Log4Qt@@@@AAEXH@Z 00422270 f   logger.obj
 0001:00021290       __ehhandler$?detach_helper_grow@?$QList@PAVLogger@Log4Qt@@@@AAEPAUNode@1@HH@Z 00422290 f   hierarchy.obj
 0001:00021290       __ehhandler$?detach_helper_grow@?$QList@PAVAppender@Log4Qt@@@@AAEPAUNode@1@HH@Z 00422290 f   logger.obj
 0001:00021290       __ehhandler$?detach_helper_grow@?$QList@PAVPatternConverter@Log4Qt@@@@AAEPAUNode@1@HH@Z 00422290 f   patternformatter.obj
 0001:000212b0       __ehhandler$?detach_helper_grow@?$QList@V?$LogObjectPtr@VAppender@Log4Qt@@@Log4Qt@@@@AAEPAUNode@1@HH@Z 004222b0 f   logger.obj
 0001:000212d0       __unwindfunclet$?forcedLog@Logger@Log4Qt@@IBEXVLevel@2@ABVQString@@@Z$0 004222d0 f   logger.obj
 0001:000212d9       __unwindfunclet$?forcedLog@Logger@Log4Qt@@IBEXVLevel@2@ABVQString@@@Z$1 004222d9 f   logger.obj
 0001:000212e1       __unwindfunclet$?forcedLog@Logger@Log4Qt@@IBEXVLevel@2@ABVQString@@@Z$4 004222e1 f   logger.obj
 0001:000212e7       __ehhandler$?forcedLog@Logger@Log4Qt@@IBEXVLevel@2@ABVQString@@@Z 004222e7 f   logger.obj
 0001:00021310       __unwindfunclet$?logger@Logger@Log4Qt@@SAPAV12@PBD@Z$0 00422310 f   logger.obj
 0001:00021319       __ehhandler$?logger@Logger@Log4Qt@@SAPAV12@PBD@Z 00422319 f   logger.obj
 0001:00021340       __unwindfunclet$?removeAll@?$QList@V?$LogObjectPtr@VAppender@Log4Qt@@@Log4Qt@@@@QAEHABV?$LogObjectPtr@VAppender@Log4Qt@@@Log4Qt@@@Z$0 00422340 f   logger.obj
 0001:00021348       __ehhandler$?removeAll@?$QList@V?$LogObjectPtr@VAppender@Log4Qt@@@Log4Qt@@@@QAEHABV?$LogObjectPtr@VAppender@Log4Qt@@@Log4Qt@@@Z 00422348 f   logger.obj
 0001:00021370       __unwindfunclet$?removeAllAppenders@Logger@Log4Qt@@QAEXXZ$0 00422370 f   logger.obj
 0001:00021379       __unwindfunclet$?removeAllAppenders@Logger@Log4Qt@@QAEXXZ$1 00422379 f   logger.obj
 0001:00021381       __unwindfunclet$?removeAllAppenders@Logger@Log4Qt@@QAEXXZ$2 00422381 f   logger.obj
 0001:0002138a       __unwindfunclet$?removeAllAppenders@Logger@Log4Qt@@QAEXXZ$3 0042238a f   logger.obj
 0001:00021392       __unwindfunclet$?removeAllAppenders@Logger@Log4Qt@@QAEXXZ$24 00422392 f   logger.obj
 0001:00021398       __ehhandler$?removeAllAppenders@Logger@Log4Qt@@QAEXXZ 00422398 f   logger.obj
 0001:000213c0       __unwindfunclet$?removeAppender@Logger@Log4Qt@@QAEXPAVAppender@2@@Z$0 004223c0 f   logger.obj
 0001:000213c8       __unwindfunclet$?removeAppender@Logger@Log4Qt@@QAEXPAVAppender@2@@Z$1 004223c8 f   logger.obj
 0001:000213d1       __unwindfunclet$?removeAppender@Logger@Log4Qt@@QAEXPAVAppender@2@@Z$2 004223d1 f   logger.obj
 0001:000213da       __unwindfunclet$?removeAppender@Logger@Log4Qt@@QAEXPAVAppender@2@@Z$3 004223da f   logger.obj
 0001:000213e3       __unwindfunclet$?removeAppender@Logger@Log4Qt@@QAEXPAVAppender@2@@Z$4 004223e3 f   logger.obj
 0001:000213ec       __ehhandler$?removeAppender@Logger@Log4Qt@@QAEXPAVAppender@2@@Z 004223ec f   logger.obj
 0001:00021410       __unwindfunclet$?warn@Logger@Log4Qt@@QBEXPBDABVQString@@1@Z$0 00422410 f   logger.obj
 0001:00021419       __unwindfunclet$?warn@Logger@Log4Qt@@QBEXPBDABVQString@@1@Z$1 00422419 f   logger.obj
 0001:00021422       __ehhandler$?warn@Logger@Log4Qt@@QBEXPBDABVQString@@1@Z 00422422 f   logger.obj
 0001:00021440       __unwindfunclet$??$readAssociativeContainer@V?$QHash@VQString@@V1@@@@QtPrivate@@YAAAVQDataStream@@AAV1@AAV?$QHash@VQString@@V1@@@@Z$0 00422440 f   loggingevent.obj
 0001:00021448       __unwindfunclet$??$readAssociativeContainer@V?$QHash@VQString@@V1@@@@QtPrivate@@YAAAVQDataStream@@AAV1@AAV?$QHash@VQString@@V1@@@@Z$1 00422448 f   loggingevent.obj
 0001:00021451       __unwindfunclet$??$readAssociativeContainer@V?$QHash@VQString@@V1@@@@QtPrivate@@YAAAVQDataStream@@AAV1@AAV?$QHash@VQString@@V1@@@@Z$2 00422451 f   loggingevent.obj
 0001:0002145a       __unwindfunclet$??$readAssociativeContainer@V?$QHash@VQString@@V1@@@@QtPrivate@@YAAAVQDataStream@@AAV1@AAV?$QHash@VQString@@V1@@@@Z$3 0042245a f   loggingevent.obj
 0001:00021460       __ehhandler$??$readAssociativeContainer@V?$QHash@VQString@@V1@@@@QtPrivate@@YAAAVQDataStream@@AAV1@AAV?$QHash@VQString@@V1@@@@Z 00422460 f   loggingevent.obj
 0001:00021480       __unwindfunclet$??0LoggingEvent@Log4Qt@@QAE@PBVLogger@1@VLevel@1@ABVQString@@@Z$0 00422480 f   loggingevent.obj
 0001:00021480       __unwindfunclet$??0LoggingEvent@Log4Qt@@QAE@XZ$0 00422480 f   loggingevent.obj
 0001:0002148c       __unwindfunclet$??0LoggingEvent@Log4Qt@@QAE@XZ$1 0042248c f   loggingevent.obj
 0001:0002148c       __unwindfunclet$??0LoggingEvent@Log4Qt@@QAE@PBVLogger@1@VLevel@1@ABVQString@@@Z$1 0042248c f   loggingevent.obj
 0001:00021498       __unwindfunclet$??0LoggingEvent@Log4Qt@@QAE@XZ$2 00422498 f   loggingevent.obj
 0001:00021498       __unwindfunclet$??0LoggingEvent@Log4Qt@@QAE@PBVLogger@1@VLevel@1@ABVQString@@@Z$2 00422498 f   loggingevent.obj
 0001:000214a3       __unwindfunclet$??0LoggingEvent@Log4Qt@@QAE@PBVLogger@1@VLevel@1@ABVQString@@@Z$3 004224a3 f   loggingevent.obj
 0001:000214a3       __unwindfunclet$??0LoggingEvent@Log4Qt@@QAE@XZ$3 004224a3 f   loggingevent.obj
 0001:000214af       __unwindfunclet$??0LoggingEvent@Log4Qt@@QAE@PBVLogger@1@VLevel@1@ABVQString@@@Z$4 004224af f   loggingevent.obj
 0001:000214af       __unwindfunclet$??0LoggingEvent@Log4Qt@@QAE@XZ$4 004224af f   loggingevent.obj
 0001:000214b7       __ehhandler$??0LoggingEvent@Log4Qt@@QAE@XZ 004224b7 f   loggingevent.obj
 0001:000214b7       __ehhandler$??0LoggingEvent@Log4Qt@@QAE@PBVLogger@1@VLevel@1@ABVQString@@@Z 004224b7 f   loggingevent.obj
 0001:000214e0       __unwindfunclet$??5Log4Qt@@YAAAVQDataStream@@AAV1@AAVLoggingEvent@0@@Z$0 004224e0 f   loggingevent.obj
 0001:000214e9       __unwindfunclet$??5Log4Qt@@YAAAVQDataStream@@AAV1@AAVLoggingEvent@0@@Z$1 004224e9 f   loggingevent.obj
 0001:000214f2       __unwindfunclet$??5Log4Qt@@YAAAVQDataStream@@AAV1@AAVLoggingEvent@0@@Z$2 004224f2 f   loggingevent.obj
 0001:000214fb       __unwindfunclet$??5Log4Qt@@YAAAVQDataStream@@AAV1@AAVLoggingEvent@0@@Z$3 004224fb f   loggingevent.obj
 0001:00021504       __ehhandler$??5Log4Qt@@YAAAVQDataStream@@AAV1@AAVLoggingEvent@0@@Z 00422504 f   loggingevent.obj
 0001:00021520       __unwindfunclet$??6Log4Qt@@YAAAVQDataStream@@AAV1@ABVLoggingEvent@0@@Z$0 00422520 f   loggingevent.obj
 0001:00021529       __unwindfunclet$??6Log4Qt@@YAAAVQDataStream@@AAV1@ABVLoggingEvent@0@@Z$1 00422529 f   loggingevent.obj
 0001:00021532       __unwindfunclet$??6Log4Qt@@YAAAVQDataStream@@AAV1@ABVLoggingEvent@0@@Z$2 00422532 f   loggingevent.obj
 0001:0002153b       __ehhandler$??6Log4Qt@@YAAAVQDataStream@@AAV1@ABVLoggingEvent@0@@Z 0042253b f   loggingevent.obj
 0001:00021560       __unwindfunclet$??H@YA?BVQString@@ABV0@VQChar@@@Z$0 00422560 f   loggingevent.obj
 0001:00021560       __unwindfunclet$??H@YA?BVQString@@ABV0@0@Z$0 00422560 f   dailyrollingfileappender.obj
 0001:0002157a       __ehhandler$??H@YA?BVQString@@ABV0@VQChar@@@Z 0042257a f   loggingevent.obj
 0001:0002157a       __ehhandler$??H@YA?BVQString@@ABV0@0@Z 0042257a f   dailyrollingfileappender.obj
 0001:000215a0       __unwindfunclet$?clear@?$QHash@VQString@@V1@@@QAEXXZ$11 004225a0 f   loggingevent.obj
 0001:000215a0       __unwindfunclet$?clear@?$QHash@VQString@@V?$LogObjectPtr@VAppender@Log4Qt@@@Log4Qt@@@@QAEXXZ$11 004225a0 f   propertyconfigurator.obj
 0001:000215a6       __unwindfunclet$?clear@?$QHash@VQString@@V?$LogObjectPtr@VAppender@Log4Qt@@@Log4Qt@@@@QAEXXZ$17 004225a6 f   propertyconfigurator.obj
 0001:000215a6       __unwindfunclet$?clear@?$QHash@VQString@@V1@@@QAEXXZ$17 004225a6 f   loggingevent.obj
 0001:000215ac       __ehhandler$?clear@?$QHash@VQString@@V?$LogObjectPtr@VAppender@Log4Qt@@@Log4Qt@@@@QAEXXZ 004225ac f   propertyconfigurator.obj
 0001:000215ac       __ehhandler$?clear@?$QHash@VQString@@V1@@@QAEXXZ 004225ac f   loggingevent.obj
 0001:000215d0       __unwindfunclet$?singleton_guard@Log4Qt@@YAPAVQMutex@@XZ$0 004225d0 f   logmanager.obj
 0001:000215d0       __unwindfunclet$?sequence_guard@Log4Qt@@YAPAVQMutex@@XZ$0 004225d0 f   loggingevent.obj
 0001:000215df       __ehhandler$?sequence_guard@Log4Qt@@YAPAVQMutex@@XZ 004225df f   loggingevent.obj
 0001:000215df       __ehhandler$?singleton_guard@Log4Qt@@YAPAVQMutex@@XZ 004225df f   logmanager.obj
 0001:00021600       __unwindfunclet$??0LogManager@Log4Qt@@AAE@XZ$0 00422600 f   logmanager.obj
 0001:0002160c       __unwindfunclet$??0LogManager@Log4Qt@@AAE@XZ$1 0042260c f   logmanager.obj
 0001:0002161b       __ehhandler$??0LogManager@Log4Qt@@AAE@XZ 0042261b f   logmanager.obj
 0001:00021640       __ehhandler$??1LogManager@Log4Qt@@EAE@XZ 00422640 f   logmanager.obj
 0001:00021660       __unwindfunclet$?trace@Logger@Log4Qt@@QBEXPBD@Z$0 00422660 f   logmanager.obj
 0001:00021660       __unwindfunclet$?debug@Logger@Log4Qt@@QBEXPBD@Z$0 00422660 f   logmanager.obj
 0001:00021660       __unwindfunclet$?error@Logger@Log4Qt@@QBEXABVLogError@2@@Z$0 00422660 f   appenderskeleton.obj
 0001:00021660       __unwindfunclet$?append@WriterAppender@Log4Qt@@MAEXABVLoggingEvent@2@@Z$0 00422660 f   writerappender.obj
 0001:00021660       __unwindfunclet$?warn@Logger@Log4Qt@@QBEXPBD@Z$0 00422660 f   factory.obj
 0001:00021660       __unwindfunclet$?classNameJavaToCpp@OptionConverter@Log4Qt@@SA?AVQString@@ABV3@@Z$0 00422660 f   optionconverter.obj
 0001:00021669       __ehhandler$?error@Logger@Log4Qt@@QBEXABVLogError@2@@Z 00422669 f   appenderskeleton.obj
 0001:00021669       __ehhandler$?append@WriterAppender@Log4Qt@@MAEXABVLoggingEvent@2@@Z 00422669 f   writerappender.obj
 0001:00021669       __ehhandler$?trace@Logger@Log4Qt@@QBEXPBD@Z 00422669 f   logmanager.obj
 0001:00021669       __ehhandler$?debug@Logger@Log4Qt@@QBEXPBD@Z 00422669 f   logmanager.obj
 0001:00021669       __ehhandler$?classNameJavaToCpp@OptionConverter@Log4Qt@@SA?AVQString@@ABV3@@Z 00422669 f   optionconverter.obj
 0001:00021669       __ehhandler$?warn@Logger@Log4Qt@@QBEXPBD@Z 00422669 f   factory.obj
 0001:00021690       __unwindfunclet$?doConfigureLogLogger@LogManager@Log4Qt@@AAEXXZ$0 00422690 f   logmanager.obj
 0001:00021699       __unwindfunclet$?doConfigureLogLogger@LogManager@Log4Qt@@AAEXXZ$1 00422699 f   logmanager.obj
 0001:000216a2       __unwindfunclet$?doConfigureLogLogger@LogManager@Log4Qt@@AAEXXZ$2 004226a2 f   logmanager.obj
 0001:000216ab       __unwindfunclet$?doConfigureLogLogger@LogManager@Log4Qt@@AAEXXZ$3 004226ab f   logmanager.obj
 0001:000216b4       __unwindfunclet$?doConfigureLogLogger@LogManager@Log4Qt@@AAEXXZ$17 004226b4 f   logmanager.obj
 0001:000216bd       __unwindfunclet$?doConfigureLogLogger@LogManager@Log4Qt@@AAEXXZ$4 004226bd f   logmanager.obj
 0001:000216cc       __unwindfunclet$?doConfigureLogLogger@LogManager@Log4Qt@@AAEXXZ$5 004226cc f   logmanager.obj
 0001:000216d5       __unwindfunclet$?doConfigureLogLogger@LogManager@Log4Qt@@AAEXXZ$6 004226d5 f   logmanager.obj
 0001:000216e4       __unwindfunclet$?doConfigureLogLogger@LogManager@Log4Qt@@AAEXXZ$23 004226e4 f   logmanager.obj
 0001:000216ed       __unwindfunclet$?doConfigureLogLogger@LogManager@Log4Qt@@AAEXXZ$7 004226ed f   logmanager.obj
 0001:000216fc       __unwindfunclet$?doConfigureLogLogger@LogManager@Log4Qt@@AAEXXZ$8 004226fc f   logmanager.obj
 0001:0002170b       __unwindfunclet$?doConfigureLogLogger@LogManager@Log4Qt@@AAEXXZ$9 0042270b f   logmanager.obj
 0001:00021714       __unwindfunclet$?doConfigureLogLogger@LogManager@Log4Qt@@AAEXXZ$31 00422714 f   logmanager.obj
 0001:0002171d       __unwindfunclet$?doConfigureLogLogger@LogManager@Log4Qt@@AAEXXZ$10 0042271d f   logmanager.obj
 0001:0002172c       __unwindfunclet$?doConfigureLogLogger@LogManager@Log4Qt@@AAEXXZ$11 0042272c f   logmanager.obj
 0001:0002173b       __unwindfunclet$?doConfigureLogLogger@LogManager@Log4Qt@@AAEXXZ$12 0042273b f   logmanager.obj
 0001:00021744       __unwindfunclet$?doConfigureLogLogger@LogManager@Log4Qt@@AAEXXZ$36 00422744 f   logmanager.obj
 0001:0002174d       __ehhandler$?doConfigureLogLogger@LogManager@Log4Qt@@AAEXXZ 0042274d f   logmanager.obj
 0001:00021770       __unwindfunclet$?doStartup@LogManager@Log4Qt@@AAEXXZ$0 00422770 f   logmanager.obj
 0001:00021779       __unwindfunclet$?doStartup@LogManager@Log4Qt@@AAEXXZ$1 00422779 f   logmanager.obj
 0001:00021782       __unwindfunclet$?doStartup@LogManager@Log4Qt@@AAEXXZ$2 00422782 f   logmanager.obj
 0001:0002178b       __unwindfunclet$?doStartup@LogManager@Log4Qt@@AAEXXZ$3 0042278b f   logmanager.obj
 0001:00021794       __unwindfunclet$?doStartup@LogManager@Log4Qt@@AAEXXZ$29 00422794 f   logmanager.obj
 0001:0002179d       __unwindfunclet$?doStartup@LogManager@Log4Qt@@AAEXXZ$4 0042279d f   logmanager.obj
 0001:000217a6       __unwindfunclet$?doStartup@LogManager@Log4Qt@@AAEXXZ$5 004227a6 f   logmanager.obj
 0001:000217af       __unwindfunclet$?doStartup@LogManager@Log4Qt@@AAEXXZ$7 004227af f   logmanager.obj
 0001:000217b8       __unwindfunclet$?doStartup@LogManager@Log4Qt@@AAEXXZ$8 004227b8 f   logmanager.obj
 0001:000217c1       __unwindfunclet$?doStartup@LogManager@Log4Qt@@AAEXXZ$9 004227c1 f   logmanager.obj
 0001:000217ca       __unwindfunclet$?doStartup@LogManager@Log4Qt@@AAEXXZ$10 004227ca f   logmanager.obj
 0001:000217d2       __unwindfunclet$?doStartup@LogManager@Log4Qt@@AAEXXZ$11 004227d2 f   logmanager.obj
 0001:000217db       __unwindfunclet$?doStartup@LogManager@Log4Qt@@AAEXXZ$12 004227db f   logmanager.obj
 0001:000217e4       __unwindfunclet$?doStartup@LogManager@Log4Qt@@AAEXXZ$13 004227e4 f   logmanager.obj
 0001:000217ed       __unwindfunclet$?doStartup@LogManager@Log4Qt@@AAEXXZ$14 004227ed f   logmanager.obj
 0001:000217f6       __unwindfunclet$?doStartup@LogManager@Log4Qt@@AAEXXZ$15 004227f6 f   logmanager.obj
 0001:000217ff       __ehhandler$?doStartup@LogManager@Log4Qt@@AAEXXZ 004227ff f   logmanager.obj
 0001:00021820       __unwindfunclet$?debug@Logger@Log4Qt@@QBEXPBDABVQString@@@Z$0 00422820 f   logmanager.obj
 0001:00021820       __unwindfunclet$?warn@Logger@Log4Qt@@QBEXPBDABVQString@@@Z$0 00422820 f   appenderskeleton.obj
 0001:00021820       __unwindfunclet$?debug@Logger@Log4Qt@@QBEXPBDH@Z$0 00422820 f   rollingfileappender.obj
 0001:00021820       __unwindfunclet$?info@Logger@Log4Qt@@QBEXPBDABVQString@@@Z$0 00422820 f   logmanager.obj
 0001:00021820       __unwindfunclet$?warn@Logger@Log4Qt@@QBEXPBDH@Z$0 00422820 f   properties.obj
 0001:00021820       __unwindfunclet$?debug@PatternLayout@Log4Qt@@MBE?AVQDebug@@AAV3@@Z$0 00422820 f   patternlayout.obj
 0001:00021820       __unwindfunclet$?trace@Logger@Log4Qt@@QBEXPBDABVQString@@@Z$0 00422820 f   fileappender.obj
 0001:00021829       __unwindfunclet$?debug@Logger@Log4Qt@@QBEXPBDABVQString@@@Z$1 00422829 f   logmanager.obj
 0001:00021829       __unwindfunclet$?trace@Logger@Log4Qt@@QBEXPBDABVQString@@@Z$1 00422829 f   fileappender.obj
 0001:00021829       __unwindfunclet$?warn@Logger@Log4Qt@@QBEXPBDABVQString@@@Z$1 00422829 f   appenderskeleton.obj
 0001:00021829       __unwindfunclet$?info@Logger@Log4Qt@@QBEXPBDABVQString@@@Z$1 00422829 f   logmanager.obj
 0001:00021829       __unwindfunclet$?warn@Logger@Log4Qt@@QBEXPBDH@Z$1 00422829 f   properties.obj
 0001:00021829       __unwindfunclet$?debug@PatternLayout@Log4Qt@@MBE?AVQDebug@@AAV3@@Z$1 00422829 f   patternlayout.obj
 0001:00021829       __unwindfunclet$?debug@Logger@Log4Qt@@QBEXPBDH@Z$1 00422829 f   rollingfileappender.obj
 0001:00021832       __ehhandler$?warn@Logger@Log4Qt@@QBEXPBDH@Z 00422832 f   properties.obj
 0001:00021832       __ehhandler$?debug@PatternLayout@Log4Qt@@MBE?AVQDebug@@AAV3@@Z 00422832 f   patternlayout.obj
 0001:00021832       __ehhandler$?trace@Logger@Log4Qt@@QBEXPBDABVQString@@@Z 00422832 f   fileappender.obj
 0001:00021832       __ehhandler$?info@Logger@Log4Qt@@QBEXPBDABVQString@@@Z 00422832 f   logmanager.obj
 0001:00021832       __ehhandler$?warn@Logger@Log4Qt@@QBEXPBDABVQString@@@Z 00422832 f   appenderskeleton.obj
 0001:00021832       __ehhandler$?debug@Logger@Log4Qt@@QBEXPBDABVQString@@@Z 00422832 f   logmanager.obj
 0001:00021832       __ehhandler$?debug@Logger@Log4Qt@@QBEXPBDH@Z 00422832 f   rollingfileappender.obj
 0001:00021850       __unwindfunclet$?instance@LogManager@Log4Qt@@SAPAV12@XZ$0 00422850 f   logmanager.obj
 0001:00021859       __unwindfunclet$?instance@LogManager@Log4Qt@@SAPAV12@XZ$1 00422859 f   logmanager.obj
 0001:00021868       __ehhandler$?instance@LogManager@Log4Qt@@SAPAV12@XZ 00422868 f   logmanager.obj
 0001:00021890       __unwindfunclet$?qtMessageHandler@LogManager@Log4Qt@@CAXW4QtMsgType@@ABVQMessageLogContext@@ABVQString@@@Z$7 00422890 f   logmanager.obj
 0001:00021899       __unwindfunclet$?qtMessageHandler@LogManager@Log4Qt@@CAXW4QtMsgType@@ABVQMessageLogContext@@ABVQString@@@Z$0 00422899 f   logmanager.obj
 0001:000218b3       __ehhandler$?qtMessageHandler@LogManager@Log4Qt@@CAXW4QtMsgType@@ABVQMessageLogContext@@ABVQString@@@Z 004228b3 f   logmanager.obj
 0001:000218d0       __unwindfunclet$?welcome@LogManager@Log4Qt@@AAEXXZ$0 004228d0 f   logmanager.obj
 0001:000218d9       __unwindfunclet$?welcome@LogManager@Log4Qt@@AAEXXZ$1 004228d9 f   logmanager.obj
 0001:000218e1       __unwindfunclet$?welcome@LogManager@Log4Qt@@AAEXXZ$2 004228e1 f   logmanager.obj
 0001:000218ea       __unwindfunclet$?welcome@LogManager@Log4Qt@@AAEXXZ$3 004228ea f   logmanager.obj
 0001:000218f3       __unwindfunclet$?welcome@LogManager@Log4Qt@@AAEXXZ$4 004228f3 f   logmanager.obj
 0001:000218fc       __unwindfunclet$?welcome@LogManager@Log4Qt@@AAEXXZ$5 004228fc f   logmanager.obj
 0001:00021905       __unwindfunclet$?welcome@LogManager@Log4Qt@@AAEXXZ$6 00422905 f   logmanager.obj
 0001:0002190e       __unwindfunclet$?welcome@LogManager@Log4Qt@@AAEXXZ$7 0042290e f   logmanager.obj
 0001:00021917       __unwindfunclet$?welcome@LogManager@Log4Qt@@AAEXXZ$8 00422917 f   logmanager.obj
 0001:00021923       __unwindfunclet$?welcome@LogManager@Log4Qt@@AAEXXZ$9 00422923 f   logmanager.obj
 0001:0002192f       __unwindfunclet$?welcome@LogManager@Log4Qt@@AAEXXZ$10 0042292f f   logmanager.obj
 0001:00021938       __unwindfunclet$?welcome@LogManager@Log4Qt@@AAEXXZ$11 00422938 f   logmanager.obj
 0001:00021941       __unwindfunclet$?welcome@LogManager@Log4Qt@@AAEXXZ$66 00422941 f   logmanager.obj
 0001:0002194a       __unwindfunclet$?welcome@LogManager@Log4Qt@@AAEXXZ$12 0042294a f   logmanager.obj
 0001:00021953       __unwindfunclet$?welcome@LogManager@Log4Qt@@AAEXXZ$94 00422953 f   logmanager.obj
 0001:0002195c       __unwindfunclet$?welcome@LogManager@Log4Qt@@AAEXXZ$13 0042295c f   logmanager.obj
 0001:00021965       __unwindfunclet$?welcome@LogManager@Log4Qt@@AAEXXZ$14 00422965 f   logmanager.obj
 0001:0002196d       __unwindfunclet$?welcome@LogManager@Log4Qt@@AAEXXZ$16 0042296d f   logmanager.obj
 0001:00021975       __unwindfunclet$?welcome@LogManager@Log4Qt@@AAEXXZ$95 00422975 f   logmanager.obj
 0001:0002197b       __unwindfunclet$?welcome@LogManager@Log4Qt@@AAEXXZ$17 0042297b f   logmanager.obj
 0001:00021983       __unwindfunclet$?welcome@LogManager@Log4Qt@@AAEXXZ$18 00422983 f   logmanager.obj
 0001:0002198c       __unwindfunclet$?welcome@LogManager@Log4Qt@@AAEXXZ$110 0042298c f   logmanager.obj
 0001:00021995       __unwindfunclet$?welcome@LogManager@Log4Qt@@AAEXXZ$111 00422995 f   logmanager.obj
 0001:0002199e       __unwindfunclet$?welcome@LogManager@Log4Qt@@AAEXXZ$112 0042299e f   logmanager.obj
 0001:000219a4       __unwindfunclet$?welcome@LogManager@Log4Qt@@AAEXXZ$119 004229a4 f   logmanager.obj
 0001:000219aa       __unwindfunclet$?welcome@LogManager@Log4Qt@@AAEXXZ$136 004229aa f   logmanager.obj
 0001:000219b3       __unwindfunclet$?welcome@LogManager@Log4Qt@@AAEXXZ$19 004229b3 f   logmanager.obj
 0001:000219bc       __unwindfunclet$?welcome@LogManager@Log4Qt@@AAEXXZ$20 004229bc f   logmanager.obj
 0001:000219c5       __unwindfunclet$?welcome@LogManager@Log4Qt@@AAEXXZ$21 004229c5 f   logmanager.obj
 0001:000219ce       __unwindfunclet$?welcome@LogManager@Log4Qt@@AAEXXZ$23 004229ce f   logmanager.obj
 0001:000219d6       __unwindfunclet$?welcome@LogManager@Log4Qt@@AAEXXZ$148 004229d6 f   logmanager.obj
 0001:000219dc       __unwindfunclet$?welcome@LogManager@Log4Qt@@AAEXXZ$24 004229dc f   logmanager.obj
 0001:000219e8       __unwindfunclet$?welcome@LogManager@Log4Qt@@AAEXXZ$25 004229e8 f   logmanager.obj
 0001:000219f4       __unwindfunclet$?welcome@LogManager@Log4Qt@@AAEXXZ$26 004229f4 f   logmanager.obj
 0001:000219fd       __unwindfunclet$?welcome@LogManager@Log4Qt@@AAEXXZ$166 004229fd f   logmanager.obj
 0001:00021a06       __unwindfunclet$?welcome@LogManager@Log4Qt@@AAEXXZ$167 00422a06 f   logmanager.obj
 0001:00021a0f       __unwindfunclet$?welcome@LogManager@Log4Qt@@AAEXXZ$170 00422a0f f   logmanager.obj
 0001:00021a15       __unwindfunclet$?welcome@LogManager@Log4Qt@@AAEXXZ$27 00422a15 f   logmanager.obj
 0001:00021a1e       __unwindfunclet$?welcome@LogManager@Log4Qt@@AAEXXZ$28 00422a1e f   logmanager.obj
 0001:00021a27       __unwindfunclet$?welcome@LogManager@Log4Qt@@AAEXXZ$187 00422a27 f   logmanager.obj
 0001:00021a30       __unwindfunclet$?welcome@LogManager@Log4Qt@@AAEXXZ$188 00422a30 f   logmanager.obj
 0001:00021a39       __unwindfunclet$?welcome@LogManager@Log4Qt@@AAEXXZ$29 00422a39 f   logmanager.obj
 0001:00021a42       __unwindfunclet$?welcome@LogManager@Log4Qt@@AAEXXZ$31 00422a42 f   logmanager.obj
 0001:00021a4a       __unwindfunclet$?welcome@LogManager@Log4Qt@@AAEXXZ$190 00422a4a f   logmanager.obj
 0001:00021a50       __unwindfunclet$?welcome@LogManager@Log4Qt@@AAEXXZ$32 00422a50 f   logmanager.obj
 0001:00021a5c       __unwindfunclet$?welcome@LogManager@Log4Qt@@AAEXXZ$33 00422a5c f   logmanager.obj
 0001:00021a68       __unwindfunclet$?welcome@LogManager@Log4Qt@@AAEXXZ$34 00422a68 f   logmanager.obj
 0001:00021a71       __unwindfunclet$?welcome@LogManager@Log4Qt@@AAEXXZ$208 00422a71 f   logmanager.obj
 0001:00021a7a       __unwindfunclet$?welcome@LogManager@Log4Qt@@AAEXXZ$209 00422a7a f   logmanager.obj
 0001:00021a83       __unwindfunclet$?welcome@LogManager@Log4Qt@@AAEXXZ$212 00422a83 f   logmanager.obj
 0001:00021a89       __unwindfunclet$?welcome@LogManager@Log4Qt@@AAEXXZ$229 00422a89 f   logmanager.obj
 0001:00021a92       __ehhandler$?welcome@LogManager@Log4Qt@@AAEXXZ 00422a92 f   logmanager.obj
 0001:00021ab0       __unwindfunclet$?deleteData@?$QThreadStorage@PAV?$QHash@VQString@@V1@@@@@CAXPAX@Z$1 00422ab0 f   mdc.obj
 0001:00021ab0       __unwindfunclet$?Destruct@?$QMetaTypeFunctionHelper@VLoggingEvent@Log4Qt@@$00@QtMetaTypePrivate@@SAXPAX@Z$2 00422ab0 f   initialisationhelper.obj
 0001:00021ab6       __ehhandler$?deleteData@?$QThreadStorage@PAV?$QHash@VQString@@V1@@@@@CAXPAX@Z 00422ab6 f   mdc.obj
 0001:00021ab6       __ehhandler$?Destruct@?$QMetaTypeFunctionHelper@VLoggingEvent@Log4Qt@@$00@QtMetaTypePrivate@@SAXPAX@Z 00422ab6 f   initialisationhelper.obj
 0001:00021ae0       __unwindfunclet$?instance@NDC@Log4Qt@@SAPAV12@XZ$0 00422ae0 f   ndc.obj
 0001:00021ae0       __unwindfunclet$?instance@MDC@Log4Qt@@SAPAV12@XZ$0 00422ae0 f   mdc.obj
 0001:00021aef       __ehhandler$?instance@MDC@Log4Qt@@SAPAV12@XZ 00422aef f   mdc.obj
 0001:00021aef       __ehhandler$?instance@NDC@Log4Qt@@SAPAV12@XZ 00422aef f   ndc.obj
 0001:00021b10       __ehhandler$?reallocData@?$QVector@VQString@@@@AAEXHHV?$QFlags@W4AllocationOption@QArrayData@@@@@Z 00422b10 f   ndc.obj
 0001:00021b30       __unwindfunclet$??0PatternLayout@Log4Qt@@QAE@PAVQObject@@@Z$5 00422b30 f   patternlayout.obj
 0001:00021b39       __unwindfunclet$??0PatternLayout@Log4Qt@@QAE@PAVQObject@@@Z$0 00422b39 f   patternlayout.obj
 0001:00021b41       __unwindfunclet$??0PatternLayout@Log4Qt@@QAE@PAVQObject@@@Z$1 00422b41 f   patternlayout.obj
 0001:00021b4d       __unwindfunclet$??0PatternLayout@Log4Qt@@QAE@PAVQObject@@@Z$8 00422b4d f   patternlayout.obj
 0001:00021b56       __unwindfunclet$??0PatternLayout@Log4Qt@@QAE@PAVQObject@@@Z$12 00422b56 f   patternlayout.obj
 0001:00021b65       __ehhandler$??0PatternLayout@Log4Qt@@QAE@PAVQObject@@@Z 00422b65 f   patternlayout.obj
 0001:00021b80       __unwindfunclet$?updatePatternFormatter@PatternLayout@Log4Qt@@AAEXXZ$0 00422b80 f   patternlayout.obj
 0001:00021b80       __unwindfunclet$??__E?msStaticInitialisation@InitialisationHelper@Log4Qt@@0_NA@@YAXXZ$0 00422b80 f   initialisationhelper.obj
 0001:00021b80       __unwindfunclet$?instance@InitialisationHelper@Log4Qt@@SAPAV12@XZ$0 00422b80 f   initialisationhelper.obj
 0001:00021b8f       __ehhandler$??__E?msStaticInitialisation@InitialisationHelper@Log4Qt@@0_NA@@YAXXZ 00422b8f f   initialisationhelper.obj
 0001:00021b8f       __ehhandler$?updatePatternFormatter@PatternLayout@Log4Qt@@AAEXXZ 00422b8f f   patternlayout.obj
 0001:00021b8f       __ehhandler$?instance@InitialisationHelper@Log4Qt@@SAPAV12@XZ 00422b8f f   initialisationhelper.obj
 0001:00021bb0       __unwindfunclet$??1?$QForeachContainer@V?$QHash@VQString@@PAVLogger@Log4Qt@@@@@QtPrivate@@QAE@XZ$0 00422bb0 f   hierarchy.obj
 0001:00021bb0       __unwindfunclet$??1Properties@Log4Qt@@QAE@XZ$0 00422bb0 f   propertyconfigurator.obj
 0001:00021bb0       __unwindfunclet$??1?$QForeachContainer@V?$QList@PAVPatternConverter@Log4Qt@@@@@QtPrivate@@QAE@XZ$0 00422bb0 f   patternformatter.obj
 0001:00021bb6       __ehhandler$??1?$QForeachContainer@V?$QHash@VQString@@PAVLogger@Log4Qt@@@@@QtPrivate@@QAE@XZ 00422bb6 f   hierarchy.obj
 0001:00021bb6       __ehhandler$??1?$QForeachContainer@V?$QList@PAVPatternConverter@Log4Qt@@@@@QtPrivate@@QAE@XZ 00422bb6 f   patternformatter.obj
 0001:00021bb6       __ehhandler$??1Properties@Log4Qt@@QAE@XZ 00422bb6 f   propertyconfigurator.obj
 0001:00021be0       __unwindfunclet$?configure@PropertyConfigurator@Log4Qt@@SA_NABVQSettings@@@Z$0 00422be0 f   propertyconfigurator.obj
 0001:00021be0       __unwindfunclet$?configure@PropertyConfigurator@Log4Qt@@SA_NABVQString@@@Z$0 00422be0 f   propertyconfigurator.obj
 0001:00021be8       __unwindfunclet$?configure@PropertyConfigurator@Log4Qt@@SA_NABVQSettings@@@Z$3 00422be8 f   propertyconfigurator.obj
 0001:00021be8       __unwindfunclet$?configure@PropertyConfigurator@Log4Qt@@SA_NABVQString@@@Z$3 00422be8 f   propertyconfigurator.obj
 0001:00021bee       __ehhandler$?configure@PropertyConfigurator@Log4Qt@@SA_NABVQSettings@@@Z 00422bee f   propertyconfigurator.obj
 0001:00021bee       __ehhandler$?configure@PropertyConfigurator@Log4Qt@@SA_NABVQString@@@Z 00422bee f   propertyconfigurator.obj
 0001:00021c10       __unwindfunclet$?configureFromFile@PropertyConfigurator@Log4Qt@@AAEXABVQString@@PAVLoggerRepository@2@@Z$0 00422c10 f   propertyconfigurator.obj
 0001:00021c19       __unwindfunclet$?configureFromFile@PropertyConfigurator@Log4Qt@@AAEXABVQString@@PAVLoggerRepository@2@@Z$1 00422c19 f   propertyconfigurator.obj
 0001:00021c21       __unwindfunclet$?configureFromFile@PropertyConfigurator@Log4Qt@@AAEXABVQString@@PAVLoggerRepository@2@@Z$18 00422c21 f   propertyconfigurator.obj
 0001:00021c2a       __unwindfunclet$?configureFromFile@PropertyConfigurator@Log4Qt@@AAEXABVQString@@PAVLoggerRepository@2@@Z$2 00422c2a f   propertyconfigurator.obj
 0001:00021c33       __unwindfunclet$?configureFromFile@PropertyConfigurator@Log4Qt@@AAEXABVQString@@PAVLoggerRepository@2@@Z$3 00422c33 f   propertyconfigurator.obj
 0001:00021c3c       __unwindfunclet$?configureFromFile@PropertyConfigurator@Log4Qt@@AAEXABVQString@@PAVLoggerRepository@2@@Z$4 00422c3c f   propertyconfigurator.obj
 0001:00021c45       __unwindfunclet$?configureFromFile@PropertyConfigurator@Log4Qt@@AAEXABVQString@@PAVLoggerRepository@2@@Z$5 00422c45 f   propertyconfigurator.obj
 0001:00021c4d       __unwindfunclet$?configureFromFile@PropertyConfigurator@Log4Qt@@AAEXABVQString@@PAVLoggerRepository@2@@Z$27 00422c4d f   propertyconfigurator.obj
 0001:00021c56       __unwindfunclet$?configureFromFile@PropertyConfigurator@Log4Qt@@AAEXABVQString@@PAVLoggerRepository@2@@Z$6 00422c56 f   propertyconfigurator.obj
 0001:00021c5e       __unwindfunclet$?configureFromFile@PropertyConfigurator@Log4Qt@@AAEXABVQString@@PAVLoggerRepository@2@@Z$7 00422c5e f   propertyconfigurator.obj
 0001:00021c66       __unwindfunclet$?configureFromFile@PropertyConfigurator@Log4Qt@@AAEXABVQString@@PAVLoggerRepository@2@@Z$29 00422c66 f   propertyconfigurator.obj
 0001:00021c6f       __unwindfunclet$?configureFromFile@PropertyConfigurator@Log4Qt@@AAEXABVQString@@PAVLoggerRepository@2@@Z$8 00422c6f f   propertyconfigurator.obj
 0001:00021c78       __unwindfunclet$?configureFromFile@PropertyConfigurator@Log4Qt@@AAEXABVQString@@PAVLoggerRepository@2@@Z$9 00422c78 f   propertyconfigurator.obj
 0001:00021c81       __unwindfunclet$?configureFromFile@PropertyConfigurator@Log4Qt@@AAEXABVQString@@PAVLoggerRepository@2@@Z$10 00422c81 f   propertyconfigurator.obj
 0001:00021c8a       __unwindfunclet$?configureFromFile@PropertyConfigurator@Log4Qt@@AAEXABVQString@@PAVLoggerRepository@2@@Z$11 00422c8a f   propertyconfigurator.obj
 0001:00021c92       __unwindfunclet$?configureFromFile@PropertyConfigurator@Log4Qt@@AAEXABVQString@@PAVLoggerRepository@2@@Z$38 00422c92 f   propertyconfigurator.obj
 0001:00021c9b       __unwindfunclet$?configureFromFile@PropertyConfigurator@Log4Qt@@AAEXABVQString@@PAVLoggerRepository@2@@Z$40 00422c9b f   propertyconfigurator.obj
 0001:00021ca1       __ehhandler$?configureFromFile@PropertyConfigurator@Log4Qt@@AAEXABVQString@@PAVLoggerRepository@2@@Z 00422ca1 f   propertyconfigurator.obj
 0001:00021cc0       __unwindfunclet$?configureFromSettings@PropertyConfigurator@Log4Qt@@AAEXABVQSettings@@PAVLoggerRepository@2@@Z$0 00422cc0 f   propertyconfigurator.obj
 0001:00021cc8       __unwindfunclet$?configureFromSettings@PropertyConfigurator@Log4Qt@@AAEXABVQSettings@@PAVLoggerRepository@2@@Z$3 00422cc8 f   propertyconfigurator.obj
 0001:00021cce       __ehhandler$?configureFromSettings@PropertyConfigurator@Log4Qt@@AAEXABVQSettings@@PAVLoggerRepository@2@@Z 00422cce f   propertyconfigurator.obj
 0001:00021cf0       __unwindfunclet$?configureGlobalSettings@PropertyConfigurator@Log4Qt@@ABEXABVProperties@2@PAVLoggerRepository@2@@Z$0 00422cf0 f   propertyconfigurator.obj
 0001:00021cf9       __unwindfunclet$?configureGlobalSettings@PropertyConfigurator@Log4Qt@@ABEXABVProperties@2@PAVLoggerRepository@2@@Z$1 00422cf9 f   propertyconfigurator.obj
 0001:00021d02       __unwindfunclet$?configureGlobalSettings@PropertyConfigurator@Log4Qt@@ABEXABVProperties@2@PAVLoggerRepository@2@@Z$2 00422d02 f   propertyconfigurator.obj
 0001:00021d0b       __unwindfunclet$?configureGlobalSettings@PropertyConfigurator@Log4Qt@@ABEXABVProperties@2@PAVLoggerRepository@2@@Z$4 00422d0b f   propertyconfigurator.obj
 0001:00021d14       __unwindfunclet$?configureGlobalSettings@PropertyConfigurator@Log4Qt@@ABEXABVProperties@2@PAVLoggerRepository@2@@Z$6 00422d14 f   propertyconfigurator.obj
 0001:00021d1d       __unwindfunclet$?configureGlobalSettings@PropertyConfigurator@Log4Qt@@ABEXABVProperties@2@PAVLoggerRepository@2@@Z$7 00422d1d f   propertyconfigurator.obj
 0001:00021d26       __unwindfunclet$?configureGlobalSettings@PropertyConfigurator@Log4Qt@@ABEXABVProperties@2@PAVLoggerRepository@2@@Z$38 00422d26 f   propertyconfigurator.obj
 0001:00021d2f       __unwindfunclet$?configureGlobalSettings@PropertyConfigurator@Log4Qt@@ABEXABVProperties@2@PAVLoggerRepository@2@@Z$41 00422d2f f   propertyconfigurator.obj
 0001:00021d38       __unwindfunclet$?configureGlobalSettings@PropertyConfigurator@Log4Qt@@ABEXABVProperties@2@PAVLoggerRepository@2@@Z$8 00422d38 f   propertyconfigurator.obj
 0001:00021d41       __unwindfunclet$?configureGlobalSettings@PropertyConfigurator@Log4Qt@@ABEXABVProperties@2@PAVLoggerRepository@2@@Z$9 00422d41 f   propertyconfigurator.obj
 0001:00021d4a       __unwindfunclet$?configureGlobalSettings@PropertyConfigurator@Log4Qt@@ABEXABVProperties@2@PAVLoggerRepository@2@@Z$11 00422d4a f   propertyconfigurator.obj
 0001:00021d53       __unwindfunclet$?configureGlobalSettings@PropertyConfigurator@Log4Qt@@ABEXABVProperties@2@PAVLoggerRepository@2@@Z$12 00422d53 f   propertyconfigurator.obj
 0001:00021d5c       __unwindfunclet$?configureGlobalSettings@PropertyConfigurator@Log4Qt@@ABEXABVProperties@2@PAVLoggerRepository@2@@Z$14 00422d5c f   propertyconfigurator.obj
 0001:00021d65       __unwindfunclet$?configureGlobalSettings@PropertyConfigurator@Log4Qt@@ABEXABVProperties@2@PAVLoggerRepository@2@@Z$15 00422d65 f   propertyconfigurator.obj
 0001:00021d6e       __ehhandler$?configureGlobalSettings@PropertyConfigurator@Log4Qt@@ABEXABVProperties@2@PAVLoggerRepository@2@@Z 00422d6e f   propertyconfigurator.obj
 0001:00021d90       __unwindfunclet$?configureNonRootElements@PropertyConfigurator@Log4Qt@@AAEXABVProperties@2@PAVLoggerRepository@2@@Z$0 00422d90 f   propertyconfigurator.obj
 0001:00021d99       __unwindfunclet$?configureNonRootElements@PropertyConfigurator@Log4Qt@@AAEXABVProperties@2@PAVLoggerRepository@2@@Z$1 00422d99 f   propertyconfigurator.obj
 0001:00021da2       __unwindfunclet$?configureNonRootElements@PropertyConfigurator@Log4Qt@@AAEXABVProperties@2@PAVLoggerRepository@2@@Z$2 00422da2 f   propertyconfigurator.obj
 0001:00021daa       __unwindfunclet$?configureNonRootElements@PropertyConfigurator@Log4Qt@@AAEXABVProperties@2@PAVLoggerRepository@2@@Z$3 00422daa f   propertyconfigurator.obj
 0001:00021db3       __unwindfunclet$?configureNonRootElements@PropertyConfigurator@Log4Qt@@AAEXABVProperties@2@PAVLoggerRepository@2@@Z$4 00422db3 f   propertyconfigurator.obj
 0001:00021dbb       __unwindfunclet$?configureNonRootElements@PropertyConfigurator@Log4Qt@@AAEXABVProperties@2@PAVLoggerRepository@2@@Z$5 00422dbb f   propertyconfigurator.obj
 0001:00021dc4       __unwindfunclet$?configureNonRootElements@PropertyConfigurator@Log4Qt@@AAEXABVProperties@2@PAVLoggerRepository@2@@Z$8 00422dc4 f   propertyconfigurator.obj
 0001:00021dcd       __unwindfunclet$?configureNonRootElements@PropertyConfigurator@Log4Qt@@AAEXABVProperties@2@PAVLoggerRepository@2@@Z$9 00422dcd f   propertyconfigurator.obj
 0001:00021dd6       __unwindfunclet$?configureNonRootElements@PropertyConfigurator@Log4Qt@@AAEXABVProperties@2@PAVLoggerRepository@2@@Z$15 00422dd6 f   propertyconfigurator.obj
 0001:00021ddc       __unwindfunclet$?configureNonRootElements@PropertyConfigurator@Log4Qt@@AAEXABVProperties@2@PAVLoggerRepository@2@@Z$25 00422ddc f   propertyconfigurator.obj
 0001:00021de2       __ehhandler$?configureNonRootElements@PropertyConfigurator@Log4Qt@@AAEXABVProperties@2@PAVLoggerRepository@2@@Z 00422de2 f   propertyconfigurator.obj
 0001:00021e00       __unwindfunclet$?configureRootLogger@PropertyConfigurator@Log4Qt@@AAEXABVProperties@2@PAVLoggerRepository@2@@Z$0 00422e00 f   propertyconfigurator.obj
 0001:00021e09       __unwindfunclet$?configureRootLogger@PropertyConfigurator@Log4Qt@@AAEXABVProperties@2@PAVLoggerRepository@2@@Z$1 00422e09 f   propertyconfigurator.obj
 0001:00021e12       __unwindfunclet$?configureRootLogger@PropertyConfigurator@Log4Qt@@AAEXABVProperties@2@PAVLoggerRepository@2@@Z$3 00422e12 f   propertyconfigurator.obj
 0001:00021e1b       __unwindfunclet$?configureRootLogger@PropertyConfigurator@Log4Qt@@AAEXABVProperties@2@PAVLoggerRepository@2@@Z$4 00422e1b f   propertyconfigurator.obj
 0001:00021e24       __unwindfunclet$?configureRootLogger@PropertyConfigurator@Log4Qt@@AAEXABVProperties@2@PAVLoggerRepository@2@@Z$23 00422e24 f   propertyconfigurator.obj
 0001:00021e2d       __ehhandler$?configureRootLogger@PropertyConfigurator@Log4Qt@@AAEXABVProperties@2@PAVLoggerRepository@2@@Z 00422e2d f   propertyconfigurator.obj
 0001:00021e50       __unwindfunclet$?parseAdditivityForLogger@PropertyConfigurator@Log4Qt@@ABEXABVProperties@2@PAVLogger@2@ABVQString@@@Z$0 00422e50 f   propertyconfigurator.obj
 0001:00021e59       __unwindfunclet$?parseAdditivityForLogger@PropertyConfigurator@Log4Qt@@ABEXABVProperties@2@PAVLogger@2@ABVQString@@@Z$1 00422e59 f   propertyconfigurator.obj
 0001:00021e62       __unwindfunclet$?parseAdditivityForLogger@PropertyConfigurator@Log4Qt@@ABEXABVProperties@2@PAVLogger@2@ABVQString@@@Z$2 00422e62 f   propertyconfigurator.obj
 0001:00021e6b       __unwindfunclet$?parseAdditivityForLogger@PropertyConfigurator@Log4Qt@@ABEXABVProperties@2@PAVLogger@2@ABVQString@@@Z$3 00422e6b f   propertyconfigurator.obj
 0001:00021e74       __unwindfunclet$?parseAdditivityForLogger@PropertyConfigurator@Log4Qt@@ABEXABVProperties@2@PAVLogger@2@ABVQString@@@Z$4 00422e74 f   propertyconfigurator.obj
 0001:00021e7d       __unwindfunclet$?parseAdditivityForLogger@PropertyConfigurator@Log4Qt@@ABEXABVProperties@2@PAVLogger@2@ABVQString@@@Z$5 00422e7d f   propertyconfigurator.obj
 0001:00021e86       __ehhandler$?parseAdditivityForLogger@PropertyConfigurator@Log4Qt@@ABEXABVProperties@2@PAVLogger@2@ABVQString@@@Z 00422e86 f   propertyconfigurator.obj
 0001:00021eb0       __unwindfunclet$?parseAppender@PropertyConfigurator@Log4Qt@@AAE?AV?$LogObjectPtr@VAppender@Log4Qt@@@2@ABVProperties@2@ABVQString@@@Z$1 00422eb0 f   propertyconfigurator.obj
 0001:00021eb9       __unwindfunclet$?parseAppender@PropertyConfigurator@Log4Qt@@AAE?AV?$LogObjectPtr@VAppender@Log4Qt@@@2@ABVProperties@2@ABVQString@@@Z$2 00422eb9 f   propertyconfigurator.obj
 0001:00021ec2       __unwindfunclet$?parseAppender@PropertyConfigurator@Log4Qt@@AAE?AV?$LogObjectPtr@VAppender@Log4Qt@@@2@ABVProperties@2@ABVQString@@@Z$3 00422ec2 f   propertyconfigurator.obj
 0001:00021ecb       __unwindfunclet$?parseAppender@PropertyConfigurator@Log4Qt@@AAE?AV?$LogObjectPtr@VAppender@Log4Qt@@@2@ABVProperties@2@ABVQString@@@Z$4 00422ecb f   propertyconfigurator.obj
 0001:00021ed3       __unwindfunclet$?parseAppender@PropertyConfigurator@Log4Qt@@AAE?AV?$LogObjectPtr@VAppender@Log4Qt@@@2@ABVProperties@2@ABVQString@@@Z$29 00422ed3 f   propertyconfigurator.obj
 0001:00021edc       __unwindfunclet$?parseAppender@PropertyConfigurator@Log4Qt@@AAE?AV?$LogObjectPtr@VAppender@Log4Qt@@@2@ABVProperties@2@ABVQString@@@Z$38 00422edc f   propertyconfigurator.obj
 0001:00021ee5       __unwindfunclet$?parseAppender@PropertyConfigurator@Log4Qt@@AAE?AV?$LogObjectPtr@VAppender@Log4Qt@@@2@ABVProperties@2@ABVQString@@@Z$5 00422ee5 f   propertyconfigurator.obj
 0001:00021eed       __unwindfunclet$?parseAppender@PropertyConfigurator@Log4Qt@@AAE?AV?$LogObjectPtr@VAppender@Log4Qt@@@2@ABVProperties@2@ABVQString@@@Z$6 00422eed f   propertyconfigurator.obj
 0001:00021ef5       __unwindfunclet$?parseAppender@PropertyConfigurator@Log4Qt@@AAE?AV?$LogObjectPtr@VAppender@Log4Qt@@@2@ABVProperties@2@ABVQString@@@Z$43 00422ef5 f   propertyconfigurator.obj
 0001:00021efe       __unwindfunclet$?parseAppender@PropertyConfigurator@Log4Qt@@AAE?AV?$LogObjectPtr@VAppender@Log4Qt@@@2@ABVProperties@2@ABVQString@@@Z$44 00422efe f   propertyconfigurator.obj
 0001:00021f07       __unwindfunclet$?parseAppender@PropertyConfigurator@Log4Qt@@AAE?AV?$LogObjectPtr@VAppender@Log4Qt@@@2@ABVProperties@2@ABVQString@@@Z$7 00422f07 f   propertyconfigurator.obj
 0001:00021f0f       __unwindfunclet$?parseAppender@PropertyConfigurator@Log4Qt@@AAE?AV?$LogObjectPtr@VAppender@Log4Qt@@@2@ABVProperties@2@ABVQString@@@Z$8 00422f0f f   propertyconfigurator.obj
 0001:00021f17       __unwindfunclet$?parseAppender@PropertyConfigurator@Log4Qt@@AAE?AV?$LogObjectPtr@VAppender@Log4Qt@@@2@ABVProperties@2@ABVQString@@@Z$9 00422f17 f   propertyconfigurator.obj
 0001:00021f20       __unwindfunclet$?parseAppender@PropertyConfigurator@Log4Qt@@AAE?AV?$LogObjectPtr@VAppender@Log4Qt@@@2@ABVProperties@2@ABVQString@@@Z$10 00422f20 f   propertyconfigurator.obj
 0001:00021f29       __unwindfunclet$?parseAppender@PropertyConfigurator@Log4Qt@@AAE?AV?$LogObjectPtr@VAppender@Log4Qt@@@2@ABVProperties@2@ABVQString@@@Z$11 00422f29 f   propertyconfigurator.obj
 0001:00021f32       __ehhandler$?parseAppender@PropertyConfigurator@Log4Qt@@AAE?AV?$LogObjectPtr@VAppender@Log4Qt@@@2@ABVProperties@2@ABVQString@@@Z 00422f32 f   propertyconfigurator.obj
 0001:00021f50       __unwindfunclet$?parseLayout@PropertyConfigurator@Log4Qt@@AAE?AV?$LogObjectPtr@VLayout@Log4Qt@@@2@ABVProperties@2@ABVQString@@@Z$0 00422f50 f   propertyconfigurator.obj
 0001:00021f59       __unwindfunclet$?parseLayout@PropertyConfigurator@Log4Qt@@AAE?AV?$LogObjectPtr@VLayout@Log4Qt@@@2@ABVProperties@2@ABVQString@@@Z$1 00422f59 f   propertyconfigurator.obj
 0001:00021f62       __unwindfunclet$?parseLayout@PropertyConfigurator@Log4Qt@@AAE?AV?$LogObjectPtr@VLayout@Log4Qt@@@2@ABVProperties@2@ABVQString@@@Z$2 00422f62 f   propertyconfigurator.obj
 0001:00021f6b       __unwindfunclet$?parseLayout@PropertyConfigurator@Log4Qt@@AAE?AV?$LogObjectPtr@VLayout@Log4Qt@@@2@ABVProperties@2@ABVQString@@@Z$3 00422f6b f   propertyconfigurator.obj
 0001:00021f73       __unwindfunclet$?parseLayout@PropertyConfigurator@Log4Qt@@AAE?AV?$LogObjectPtr@VLayout@Log4Qt@@@2@ABVProperties@2@ABVQString@@@Z$20 00422f73 f   propertyconfigurator.obj
 0001:00021f7c       __unwindfunclet$?parseLayout@PropertyConfigurator@Log4Qt@@AAE?AV?$LogObjectPtr@VLayout@Log4Qt@@@2@ABVProperties@2@ABVQString@@@Z$29 00422f7c f   propertyconfigurator.obj
 0001:00021f85       __unwindfunclet$?parseLayout@PropertyConfigurator@Log4Qt@@AAE?AV?$LogObjectPtr@VLayout@Log4Qt@@@2@ABVProperties@2@ABVQString@@@Z$5 00422f85 f   propertyconfigurator.obj
 0001:00021f8d       __unwindfunclet$?parseLayout@PropertyConfigurator@Log4Qt@@AAE?AV?$LogObjectPtr@VLayout@Log4Qt@@@2@ABVProperties@2@ABVQString@@@Z$6 00422f8d f   propertyconfigurator.obj
 0001:00021f95       __unwindfunclet$?parseLayout@PropertyConfigurator@Log4Qt@@AAE?AV?$LogObjectPtr@VLayout@Log4Qt@@@2@ABVProperties@2@ABVQString@@@Z$34 00422f95 f   propertyconfigurator.obj
 0001:00021f9e       __unwindfunclet$?parseLayout@PropertyConfigurator@Log4Qt@@AAE?AV?$LogObjectPtr@VLayout@Log4Qt@@@2@ABVProperties@2@ABVQString@@@Z$35 00422f9e f   propertyconfigurator.obj
 0001:00021fa7       __unwindfunclet$?parseLayout@PropertyConfigurator@Log4Qt@@AAE?AV?$LogObjectPtr@VLayout@Log4Qt@@@2@ABVProperties@2@ABVQString@@@Z$44 00422fa7 f   propertyconfigurator.obj
 0001:00021fb0       __unwindfunclet$?parseLayout@PropertyConfigurator@Log4Qt@@AAE?AV?$LogObjectPtr@VLayout@Log4Qt@@@2@ABVProperties@2@ABVQString@@@Z$7 00422fb0 f   propertyconfigurator.obj
 0001:00021fb8       __unwindfunclet$?parseLayout@PropertyConfigurator@Log4Qt@@AAE?AV?$LogObjectPtr@VLayout@Log4Qt@@@2@ABVProperties@2@ABVQString@@@Z$8 00422fb8 f   propertyconfigurator.obj
 0001:00021fc1       __unwindfunclet$?parseLayout@PropertyConfigurator@Log4Qt@@AAE?AV?$LogObjectPtr@VLayout@Log4Qt@@@2@ABVProperties@2@ABVQString@@@Z$9 00422fc1 f   propertyconfigurator.obj
 0001:00021fc9       __unwindfunclet$?parseLayout@PropertyConfigurator@Log4Qt@@AAE?AV?$LogObjectPtr@VLayout@Log4Qt@@@2@ABVProperties@2@ABVQString@@@Z$10 00422fc9 f   propertyconfigurator.obj
 0001:00021fd2       __ehhandler$?parseLayout@PropertyConfigurator@Log4Qt@@AAE?AV?$LogObjectPtr@VLayout@Log4Qt@@@2@ABVProperties@2@ABVQString@@@Z 00422fd2 f   propertyconfigurator.obj
 0001:00021ff0       __unwindfunclet$?parseLogger@PropertyConfigurator@Log4Qt@@AAEXABVProperties@2@PAVLogger@2@ABVQString@@2@Z$0 00422ff0 f   propertyconfigurator.obj
 0001:00021ff8       __unwindfunclet$?parseLogger@PropertyConfigurator@Log4Qt@@AAEXABVProperties@2@PAVLogger@2@ABVQString@@2@Z$1 00422ff8 f   propertyconfigurator.obj
 0001:00022000       __unwindfunclet$?parseLogger@PropertyConfigurator@Log4Qt@@AAEXABVProperties@2@PAVLogger@2@ABVQString@@2@Z$2 00423000 f   propertyconfigurator.obj
 0001:00022009       __unwindfunclet$?parseLogger@PropertyConfigurator@Log4Qt@@AAEXABVProperties@2@PAVLogger@2@ABVQString@@2@Z$5 00423009 f   propertyconfigurator.obj
 0001:00022012       __unwindfunclet$?parseLogger@PropertyConfigurator@Log4Qt@@AAEXABVProperties@2@PAVLogger@2@ABVQString@@2@Z$6 00423012 f   propertyconfigurator.obj
 0001:0002201b       __unwindfunclet$?parseLogger@PropertyConfigurator@Log4Qt@@AAEXABVProperties@2@PAVLogger@2@ABVQString@@2@Z$8 0042301b f   propertyconfigurator.obj
 0001:00022023       __ehhandler$?parseLogger@PropertyConfigurator@Log4Qt@@AAEXABVProperties@2@PAVLogger@2@ABVQString@@2@Z 00423023 f   propertyconfigurator.obj
 0001:00022040       __unwindfunclet$?setProperties@PropertyConfigurator@Log4Qt@@AAEXABVProperties@2@ABVQString@@ABVQStringList@@PAVQObject@@@Z$0 00423040 f   propertyconfigurator.obj
 0001:00022049       __unwindfunclet$?setProperties@PropertyConfigurator@Log4Qt@@AAEXABVProperties@2@ABVQString@@ABVQStringList@@PAVQObject@@@Z$1 00423049 f   propertyconfigurator.obj
 0001:00022051       __unwindfunclet$?setProperties@PropertyConfigurator@Log4Qt@@AAEXABVProperties@2@ABVQString@@ABVQStringList@@PAVQObject@@@Z$2 00423051 f   propertyconfigurator.obj
 0001:0002205a       __unwindfunclet$?setProperties@PropertyConfigurator@Log4Qt@@AAEXABVProperties@2@ABVQString@@ABVQStringList@@PAVQObject@@@Z$3 0042305a f   propertyconfigurator.obj
 0001:00022062       __unwindfunclet$?setProperties@PropertyConfigurator@Log4Qt@@AAEXABVProperties@2@ABVQString@@ABVQStringList@@PAVQObject@@@Z$4 00423062 f   propertyconfigurator.obj
 0001:0002206b       __unwindfunclet$?setProperties@PropertyConfigurator@Log4Qt@@AAEXABVProperties@2@ABVQString@@ABVQStringList@@PAVQObject@@@Z$5 0042306b f   propertyconfigurator.obj
 0001:00022073       __unwindfunclet$?setProperties@PropertyConfigurator@Log4Qt@@AAEXABVProperties@2@ABVQString@@ABVQStringList@@PAVQObject@@@Z$19 00423073 f   propertyconfigurator.obj
 0001:00022079       __unwindfunclet$?setProperties@PropertyConfigurator@Log4Qt@@AAEXABVProperties@2@ABVQString@@ABVQStringList@@PAVQObject@@@Z$6 00423079 f   propertyconfigurator.obj
 0001:00022082       __unwindfunclet$?setProperties@PropertyConfigurator@Log4Qt@@AAEXABVProperties@2@ABVQString@@ABVQStringList@@PAVQObject@@@Z$29 00423082 f   propertyconfigurator.obj
 0001:00022088       __unwindfunclet$?setProperties@PropertyConfigurator@Log4Qt@@AAEXABVProperties@2@ABVQString@@ABVQStringList@@PAVQObject@@@Z$40 00423088 f   propertyconfigurator.obj
 0001:0002208e       __unwindfunclet$?setProperties@PropertyConfigurator@Log4Qt@@AAEXABVProperties@2@ABVQString@@ABVQStringList@@PAVQObject@@@Z$50 0042308e f   propertyconfigurator.obj
 0001:00022094       __ehhandler$?setProperties@PropertyConfigurator@Log4Qt@@AAEXABVProperties@2@ABVQString@@ABVQStringList@@PAVQObject@@@Z 00423094 f   propertyconfigurator.obj
 0001:000220b0       __unwindfunclet$?startCaptureErrors@PropertyConfigurator@Log4Qt@@AAEXXZ$0 004230b0 f   propertyconfigurator.obj
 0001:000220bf       __unwindfunclet$?startCaptureErrors@PropertyConfigurator@Log4Qt@@AAEXXZ$1 004230bf f   propertyconfigurator.obj
 0001:000220c8       __unwindfunclet$?startCaptureErrors@PropertyConfigurator@Log4Qt@@AAEXXZ$8 004230c8 f   propertyconfigurator.obj
 0001:000220d1       __ehhandler$?startCaptureErrors@PropertyConfigurator@Log4Qt@@AAEXXZ 004230d1 f   propertyconfigurator.obj
 0001:000220f0       __unwindfunclet$?stopCaptureErrors@PropertyConfigurator@Log4Qt@@AAE_NXZ$2 004230f0 f   propertyconfigurator.obj
 0001:000220f9       __unwindfunclet$?stopCaptureErrors@PropertyConfigurator@Log4Qt@@AAE_NXZ$0 004230f9 f   propertyconfigurator.obj
 0001:00022101       __unwindfunclet$?stopCaptureErrors@PropertyConfigurator@Log4Qt@@AAE_NXZ$4 00423101 f   propertyconfigurator.obj
 0001:0002210a       __unwindfunclet$?stopCaptureErrors@PropertyConfigurator@Log4Qt@@AAE_NXZ$5 0042310a f   propertyconfigurator.obj
 0001:00022110       __unwindfunclet$?stopCaptureErrors@PropertyConfigurator@Log4Qt@@AAE_NXZ$12 00423110 f   propertyconfigurator.obj
 0001:00022116       __ehhandler$?stopCaptureErrors@PropertyConfigurator@Log4Qt@@AAE_NXZ 00423116 f   propertyconfigurator.obj
 0001:00022140       __unwindfunclet$?debug@RollingFileAppender@Log4Qt@@MBE?AVQDebug@@AAV3@@Z$0 00423140 f   rollingfileappender.obj
 0001:00022149       __unwindfunclet$?debug@RollingFileAppender@Log4Qt@@MBE?AVQDebug@@AAV3@@Z$2 00423149 f   rollingfileappender.obj
 0001:00022152       __unwindfunclet$?debug@RollingFileAppender@Log4Qt@@MBE?AVQDebug@@AAV3@@Z$3 00423152 f   rollingfileappender.obj
 0001:0002215b       __unwindfunclet$?debug@RollingFileAppender@Log4Qt@@MBE?AVQDebug@@AAV3@@Z$10 0042315b f   rollingfileappender.obj
 0001:00022161       __unwindfunclet$?debug@RollingFileAppender@Log4Qt@@MBE?AVQDebug@@AAV3@@Z$4 00423161 f   rollingfileappender.obj
 0001:0002216a       __unwindfunclet$?debug@RollingFileAppender@Log4Qt@@MBE?AVQDebug@@AAV3@@Z$5 0042316a f   rollingfileappender.obj
 0001:00022173       __unwindfunclet$?debug@RollingFileAppender@Log4Qt@@MBE?AVQDebug@@AAV3@@Z$6 00423173 f   rollingfileappender.obj
 0001:0002217c       __unwindfunclet$?debug@RollingFileAppender@Log4Qt@@MBE?AVQDebug@@AAV3@@Z$16 0042317c f   rollingfileappender.obj
 0001:00022185       __ehhandler$?debug@RollingFileAppender@Log4Qt@@MBE?AVQDebug@@AAV3@@Z 00423185 f   rollingfileappender.obj
 0001:000221a0       __unwindfunclet$?rollOver@RollingFileAppender@Log4Qt@@AAEXXZ$0 004231a0 f   rollingfileappender.obj
 0001:000221a9       __unwindfunclet$?rollOver@RollingFileAppender@Log4Qt@@AAEXXZ$1 004231a9 f   rollingfileappender.obj
 0001:000221b2       __unwindfunclet$?rollOver@RollingFileAppender@Log4Qt@@AAEXXZ$2 004231b2 f   rollingfileappender.obj
 0001:000221bb       __unwindfunclet$?rollOver@RollingFileAppender@Log4Qt@@AAEXXZ$3 004231bb f   rollingfileappender.obj
 0001:000221c4       __unwindfunclet$?rollOver@RollingFileAppender@Log4Qt@@AAEXXZ$4 004231c4 f   rollingfileappender.obj
 0001:000221cd       __unwindfunclet$?rollOver@RollingFileAppender@Log4Qt@@AAEXXZ$5 004231cd f   rollingfileappender.obj
 0001:000221d6       __unwindfunclet$?rollOver@RollingFileAppender@Log4Qt@@AAEXXZ$6 004231d6 f   rollingfileappender.obj
 0001:000221df       __unwindfunclet$?rollOver@RollingFileAppender@Log4Qt@@AAEXXZ$7 004231df f   rollingfileappender.obj
 0001:000221e8       __unwindfunclet$?rollOver@RollingFileAppender@Log4Qt@@AAEXXZ$8 004231e8 f   rollingfileappender.obj
 0001:000221f1       __unwindfunclet$?rollOver@RollingFileAppender@Log4Qt@@AAEXXZ$9 004231f1 f   rollingfileappender.obj
 0001:000221fa       __unwindfunclet$?rollOver@RollingFileAppender@Log4Qt@@AAEXXZ$10 004231fa f   rollingfileappender.obj
 0001:00022203       __unwindfunclet$?rollOver@RollingFileAppender@Log4Qt@@AAEXXZ$11 00423203 f   rollingfileappender.obj
 0001:0002220c       __unwindfunclet$?rollOver@RollingFileAppender@Log4Qt@@AAEXXZ$12 0042320c f   rollingfileappender.obj
 0001:00022215       __unwindfunclet$?rollOver@RollingFileAppender@Log4Qt@@AAEXXZ$14 00423215 f   rollingfileappender.obj
 0001:0002221e       __unwindfunclet$?rollOver@RollingFileAppender@Log4Qt@@AAEXXZ$15 0042321e f   rollingfileappender.obj
 0001:00022227       __unwindfunclet$?rollOver@RollingFileAppender@Log4Qt@@AAEXXZ$16 00423227 f   rollingfileappender.obj
 0001:00022230       __ehhandler$?rollOver@RollingFileAppender@Log4Qt@@AAEXXZ 00423230 f   rollingfileappender.obj
 0001:00022250       __unwindfunclet$?format@SimpleLayout@Log4Qt@@UAE?AVQString@@ABVLoggingEvent@2@@Z$0 00423250 f   simplelayout.obj
 0001:00022259       __unwindfunclet$?format@SimpleLayout@Log4Qt@@UAE?AVQString@@ABVLoggingEvent@2@@Z$1 00423259 f   simplelayout.obj
 0001:00022262       __unwindfunclet$?format@SimpleLayout@Log4Qt@@UAE?AVQString@@ABVLoggingEvent@2@@Z$2 00423262 f   simplelayout.obj
 0001:0002226b       __unwindfunclet$?format@SimpleLayout@Log4Qt@@UAE?AVQString@@ABVLoggingEvent@2@@Z$3 0042326b f   simplelayout.obj
 0001:00022274       __unwindfunclet$?format@SimpleLayout@Log4Qt@@UAE?AVQString@@ABVLoggingEvent@2@@Z$4 00423274 f   simplelayout.obj
 0001:0002227d       __unwindfunclet$?format@SimpleLayout@Log4Qt@@UAE?AVQString@@ABVLoggingEvent@2@@Z$5 0042327d f   simplelayout.obj
 0001:00022286       __ehhandler$?format@SimpleLayout@Log4Qt@@UAE?AVQString@@ABVLoggingEvent@2@@Z 00423286 f   simplelayout.obj
 0001:000222b0       __unwindfunclet$??0TTCCLayout@Log4Qt@@QAE@PAVQObject@@@Z$5 004232b0 f   ttcclayout.obj
 0001:000222b9       __unwindfunclet$??0TTCCLayout@Log4Qt@@QAE@PAVQObject@@@Z$0 004232b9 f   ttcclayout.obj
 0001:000222c1       __unwindfunclet$??0TTCCLayout@Log4Qt@@QAE@PAVQObject@@@Z$1 004232c1 f   ttcclayout.obj
 0001:000222cd       __unwindfunclet$??0TTCCLayout@Log4Qt@@QAE@PAVQObject@@@Z$12 004232cd f   ttcclayout.obj
 0001:000222d6       __ehhandler$??0TTCCLayout@Log4Qt@@QAE@PAVQObject@@@Z 004232d6 f   ttcclayout.obj
 0001:00022300       __unwindfunclet$?debug@TTCCLayout@Log4Qt@@MBE?AVQDebug@@AAV3@@Z$0 00423300 f   ttcclayout.obj
 0001:00022309       __unwindfunclet$?debug@TTCCLayout@Log4Qt@@MBE?AVQDebug@@AAV3@@Z$1 00423309 f   ttcclayout.obj
 0001:00022312       __ehhandler$?debug@TTCCLayout@Log4Qt@@MBE?AVQDebug@@AAV3@@Z 00423312 f   ttcclayout.obj
 0001:00022330       __unwindfunclet$?updatePatternFormatter@TTCCLayout@Log4Qt@@AAEXXZ$0 00423330 f   ttcclayout.obj
 0001:00022339       __unwindfunclet$?updatePatternFormatter@TTCCLayout@Log4Qt@@AAEXXZ$1 00423339 f   ttcclayout.obj
 0001:00022342       __unwindfunclet$?updatePatternFormatter@TTCCLayout@Log4Qt@@AAEXXZ$2 00423342 f   ttcclayout.obj
 0001:0002234b       __unwindfunclet$?updatePatternFormatter@TTCCLayout@Log4Qt@@AAEXXZ$3 0042334b f   ttcclayout.obj
 0001:00022354       __unwindfunclet$?updatePatternFormatter@TTCCLayout@Log4Qt@@AAEXXZ$4 00423354 f   ttcclayout.obj
 0001:0002235d       __unwindfunclet$?updatePatternFormatter@TTCCLayout@Log4Qt@@AAEXXZ$5 0042335d f   ttcclayout.obj
 0001:0002236c       __ehhandler$?updatePatternFormatter@TTCCLayout@Log4Qt@@AAEXXZ 0042336c f   ttcclayout.obj
 0001:00022390       __unwindfunclet$??0WriterAppender@Log4Qt@@QAE@PAVLayout@1@PAVQObject@@@Z$0 00423390 f   writerappender.obj
 0001:00022398       __ehhandler$??0WriterAppender@Log4Qt@@QAE@PAVLayout@1@PAVQObject@@@Z 00423398 f   writerappender.obj
 0001:000223c0       __unwindfunclet$??0WriterAppender@Log4Qt@@QAE@PAVQObject@@@Z$0 004233c0 f   writerappender.obj
 0001:000223c8       __ehhandler$??0WriterAppender@Log4Qt@@QAE@PAVQObject@@@Z 004233c8 f   writerappender.obj
 0001:000223f0       __unwindfunclet$?checkEntryConditions@DailyRollingFileAppender@Log4Qt@@MBE_NXZ$0 004233f0 f   dailyrollingfileappender.obj
 0001:000223f0       __unwindfunclet$?checkEntryConditions@FileAppender@Log4Qt@@MBE_NXZ$0 004233f0 f   fileappender.obj
 0001:000223f0       __unwindfunclet$?checkEntryConditions@WriterAppender@Log4Qt@@MBE_NXZ$0 004233f0 f   writerappender.obj
 0001:000223f8       __unwindfunclet$?checkEntryConditions@DailyRollingFileAppender@Log4Qt@@MBE_NXZ$1 004233f8 f   dailyrollingfileappender.obj
 0001:000223f8       __unwindfunclet$?checkEntryConditions@FileAppender@Log4Qt@@MBE_NXZ$1 004233f8 f   fileappender.obj
 0001:000223f8       __unwindfunclet$?checkEntryConditions@WriterAppender@Log4Qt@@MBE_NXZ$1 004233f8 f   writerappender.obj
 0001:00022401       __unwindfunclet$?checkEntryConditions@WriterAppender@Log4Qt@@MBE_NXZ$2 00423401 f   writerappender.obj
 0001:00022401       __unwindfunclet$?checkEntryConditions@DailyRollingFileAppender@Log4Qt@@MBE_NXZ$2 00423401 f   dailyrollingfileappender.obj
 0001:00022401       __unwindfunclet$?checkEntryConditions@FileAppender@Log4Qt@@MBE_NXZ$2 00423401 f   fileappender.obj
 0001:0002240a       __unwindfunclet$?checkEntryConditions@WriterAppender@Log4Qt@@MBE_NXZ$3 0042340a f   writerappender.obj
 0001:0002240a       __unwindfunclet$?checkEntryConditions@DailyRollingFileAppender@Log4Qt@@MBE_NXZ$3 0042340a f   dailyrollingfileappender.obj
 0001:0002240a       __unwindfunclet$?checkEntryConditions@FileAppender@Log4Qt@@MBE_NXZ$3 0042340a f   fileappender.obj
 0001:00022413       __ehhandler$?checkEntryConditions@WriterAppender@Log4Qt@@MBE_NXZ 00423413 f   writerappender.obj
 0001:00022413       __ehhandler$?checkEntryConditions@DailyRollingFileAppender@Log4Qt@@MBE_NXZ 00423413 f   dailyrollingfileappender.obj
 0001:00022413       __ehhandler$?checkEntryConditions@FileAppender@Log4Qt@@MBE_NXZ 00423413 f   fileappender.obj
 0001:00022430       __unwindfunclet$?setWriter@WriterAppender@Log4Qt@@QAEXPAVQTextStream@@@Z$0 00423430 f   writerappender.obj
 0001:00022430       __unwindfunclet$?setEncoding@WriterAppender@Log4Qt@@QAEXPAVQTextCodec@@@Z$0 00423430 f   writerappender.obj
 0001:00022430       __unwindfunclet$?close@WriterAppender@Log4Qt@@UAEXXZ$0 00423430 f   writerappender.obj
 0001:00022430       __unwindfunclet$?activateOptions@DailyRollingFileAppender@Log4Qt@@UAEXXZ$0 00423430 f   dailyrollingfileappender.obj
 0001:00022430       __unwindfunclet$?close@FileAppender@Log4Qt@@UAEXXZ$0 00423430 f   fileappender.obj
 0001:00022430       __unwindfunclet$?close@ConsoleAppender@Log4Qt@@UAEXXZ$0 00423430 f   consoleappender.obj
 0001:00022430       __unwindfunclet$?setName@AppenderSkeleton@Log4Qt@@UAEXABVQString@@@Z$0 00423430 f   appenderskeleton.obj
 0001:00022430       __unwindfunclet$?doConfigurationFileChanged@ConfiguratorHelper@Log4Qt@@AAEXABVQString@@@Z$0 00423430 f   configuratorhelper.obj
 0001:00022439       __ehhandler$?doConfigurationFileChanged@ConfiguratorHelper@Log4Qt@@AAEXABVQString@@@Z 00423439 f   configuratorhelper.obj
 0001:00022439       __ehhandler$?close@ConsoleAppender@Log4Qt@@UAEXXZ 00423439 f   consoleappender.obj
 0001:00022439       __ehhandler$?setName@AppenderSkeleton@Log4Qt@@UAEXABVQString@@@Z 00423439 f   appenderskeleton.obj
 0001:00022439       __ehhandler$?close@FileAppender@Log4Qt@@UAEXXZ 00423439 f   fileappender.obj
 0001:00022439       __ehhandler$?activateOptions@DailyRollingFileAppender@Log4Qt@@UAEXXZ 00423439 f   dailyrollingfileappender.obj
 0001:00022439       __ehhandler$?close@WriterAppender@Log4Qt@@UAEXXZ 00423439 f   writerappender.obj
 0001:00022439       __ehhandler$?setEncoding@WriterAppender@Log4Qt@@QAEXPAVQTextCodec@@@Z 00423439 f   writerappender.obj
 0001:00022439       __ehhandler$?setWriter@WriterAppender@Log4Qt@@QAEXPAVQTextStream@@@Z 00423439 f   writerappender.obj
 0001:00022460       __unwindfunclet$?debug@WriterAppender@Log4Qt@@MBE?AVQDebug@@AAV3@@Z$0 00423460 f   writerappender.obj
 0001:00022469       __unwindfunclet$?debug@WriterAppender@Log4Qt@@MBE?AVQDebug@@AAV3@@Z$2 00423469 f   writerappender.obj
 0001:00022472       __unwindfunclet$?debug@WriterAppender@Log4Qt@@MBE?AVQDebug@@AAV3@@Z$3 00423472 f   writerappender.obj
 0001:0002247b       __unwindfunclet$?debug@WriterAppender@Log4Qt@@MBE?AVQDebug@@AAV3@@Z$9 0042347b f   writerappender.obj
 0001:00022481       __unwindfunclet$?debug@WriterAppender@Log4Qt@@MBE?AVQDebug@@AAV3@@Z$4 00423481 f   writerappender.obj
 0001:0002248a       __unwindfunclet$?debug@WriterAppender@Log4Qt@@MBE?AVQDebug@@AAV3@@Z$5 0042348a f   writerappender.obj
 0001:00022493       __unwindfunclet$?debug@WriterAppender@Log4Qt@@MBE?AVQDebug@@AAV3@@Z$13 00423493 f   writerappender.obj
 0001:0002249c       __ehhandler$?debug@WriterAppender@Log4Qt@@MBE?AVQDebug@@AAV3@@Z 0042349c f   writerappender.obj
 0001:000224c0       __unwindfunclet$?writeFooter@WriterAppender@Log4Qt@@IBEXXZ$0 004234c0 f   writerappender.obj
 0001:000224c0       __unwindfunclet$?writeHeader@WriterAppender@Log4Qt@@IBEXXZ$0 004234c0 f   writerappender.obj
 0001:000224c9       __unwindfunclet$?writeHeader@WriterAppender@Log4Qt@@IBEXXZ$1 004234c9 f   writerappender.obj
 0001:000224c9       __unwindfunclet$?writeFooter@WriterAppender@Log4Qt@@IBEXXZ$1 004234c9 f   writerappender.obj
 0001:000224d2       __ehhandler$?writeFooter@WriterAppender@Log4Qt@@IBEXXZ 004234d2 f   writerappender.obj
 0001:000224d2       __ehhandler$?writeHeader@WriterAppender@Log4Qt@@IBEXXZ 004234d2 f   writerappender.obj
 0001:000224f0       __unwindfunclet$?append@DebugAppender@Log4Qt@@MAEXABVLoggingEvent@2@@Z$0 004234f0 f   debugappender.obj
 0001:000224f9       __ehhandler$?append@DebugAppender@Log4Qt@@MAEXABVLoggingEvent@2@@Z 004234f9 f   debugappender.obj
 0001:00022520       __unwindfunclet$?debug@DebugAppender@Log4Qt@@MBE?AVQDebug@@AAV3@@Z$0 00423520 f   debugappender.obj
 0001:00022529       __unwindfunclet$?debug@DebugAppender@Log4Qt@@MBE?AVQDebug@@AAV3@@Z$2 00423529 f   debugappender.obj
 0001:00022532       __unwindfunclet$?debug@DebugAppender@Log4Qt@@MBE?AVQDebug@@AAV3@@Z$3 00423532 f   debugappender.obj
 0001:0002253b       __unwindfunclet$?debug@DebugAppender@Log4Qt@@MBE?AVQDebug@@AAV3@@Z$8 0042353b f   debugappender.obj
 0001:00022544       __ehhandler$?debug@DebugAppender@Log4Qt@@MBE?AVQDebug@@AAV3@@Z 00423544 f   debugappender.obj
 0001:00022560       __unwindfunclet$?debug@NullAppender@Log4Qt@@MBE?AVQDebug@@AAV3@@Z$0 00423560 f   nullappender.obj
 0001:00022569       __unwindfunclet$?debug@NullAppender@Log4Qt@@MBE?AVQDebug@@AAV3@@Z$2 00423569 f   nullappender.obj
 0001:00022572       __unwindfunclet$?debug@NullAppender@Log4Qt@@MBE?AVQDebug@@AAV3@@Z$3 00423572 f   nullappender.obj
 0001:0002257b       __ehhandler$?debug@NullAppender@Log4Qt@@MBE?AVQDebug@@AAV3@@Z 0042357b f   nullappender.obj
 0001:000225a0       __unwindfunclet$?debug@LevelMatchFilter@Log4Qt@@MBE?AVQDebug@@AAV3@@Z$0 004235a0 f   levelmatchfilter.obj
 0001:000225a9       __unwindfunclet$?debug@LevelMatchFilter@Log4Qt@@MBE?AVQDebug@@AAV3@@Z$2 004235a9 f   levelmatchfilter.obj
 0001:000225b2       __ehhandler$?debug@LevelMatchFilter@Log4Qt@@MBE?AVQDebug@@AAV3@@Z 004235b2 f   levelmatchfilter.obj
 0001:000225d0       __unwindfunclet$?debug@LevelRangeFilter@Log4Qt@@MBE?AVQDebug@@AAV3@@Z$0 004235d0 f   levelrangefilter.obj
 0001:000225d9       __unwindfunclet$?debug@LevelRangeFilter@Log4Qt@@MBE?AVQDebug@@AAV3@@Z$1 004235d9 f   levelrangefilter.obj
 0001:000225e2       __unwindfunclet$?debug@LevelRangeFilter@Log4Qt@@MBE?AVQDebug@@AAV3@@Z$3 004235e2 f   levelrangefilter.obj
 0001:000225eb       __ehhandler$?debug@LevelRangeFilter@Log4Qt@@MBE?AVQDebug@@AAV3@@Z 004235eb f   levelrangefilter.obj
 0001:00022610       __unwindfunclet$?append@?$QList@VLoggingEvent@Log4Qt@@@@QAEXABVLoggingEvent@Log4Qt@@@Z$9 00423610 f   listappender.obj
 0001:0002261f       __unwindfunclet$?append@?$QList@VLoggingEvent@Log4Qt@@@@QAEXABVLoggingEvent@Log4Qt@@@Z$11 0042361f f   listappender.obj
 0001:0002262e       __ehhandler$?append@?$QList@VLoggingEvent@Log4Qt@@@@QAEXABVLoggingEvent@Log4Qt@@@Z 0042362e f   listappender.obj
 0001:00022650       __unwindfunclet$?debug@ListAppender@Log4Qt@@MBE?AVQDebug@@AAV3@@Z$0 00423650 f   listappender.obj
 0001:00022659       __unwindfunclet$?debug@ListAppender@Log4Qt@@MBE?AVQDebug@@AAV3@@Z$1 00423659 f   listappender.obj
 0001:00022661       __unwindfunclet$?debug@ListAppender@Log4Qt@@MBE?AVQDebug@@AAV3@@Z$2 00423661 f   listappender.obj
 0001:0002266a       __unwindfunclet$?debug@ListAppender@Log4Qt@@MBE?AVQDebug@@AAV3@@Z$7 0042366a f   listappender.obj
 0001:00022673       __unwindfunclet$?debug@ListAppender@Log4Qt@@MBE?AVQDebug@@AAV3@@Z$8 00423673 f   listappender.obj
 0001:00022679       __ehhandler$?debug@ListAppender@Log4Qt@@MBE?AVQDebug@@AAV3@@Z 00423679 f   listappender.obj
 0001:000226a0       __ehhandler$?detach_helper@?$QList@VLoggingEvent@Log4Qt@@@@AAEXH@Z 004236a0 f   listappender.obj
 0001:000226c0       __ehhandler$?detach_helper_grow@?$QList@VLoggingEvent@Log4Qt@@@@AAEPAUNode@1@HH@Z 004236c0 f   listappender.obj
 0001:000226e0       __unwindfunclet$?ensureMaxCount@ListAppender@Log4Qt@@IAEXXZ$14 004236e0 f   listappender.obj
 0001:000226e6       __ehhandler$?ensureMaxCount@ListAppender@Log4Qt@@IAEXXZ 004236e6 f   listappender.obj
 0001:00022710       __unwindfunclet$?setMaxCount@ListAppender@Log4Qt@@QAEXH@Z$0 00423710 f   listappender.obj
 0001:00022719       __unwindfunclet$?setMaxCount@ListAppender@Log4Qt@@QAEXH@Z$1 00423719 f   listappender.obj
 0001:00022722       __ehhandler$?setMaxCount@ListAppender@Log4Qt@@QAEXH@Z 00423722 f   listappender.obj
 0001:00022740       __unwindfunclet$??0LevelRangeFilter@Log4Qt@@QAE@PAVQObject@@@Z$3 00423740 f   levelrangefilter.obj
 0001:00022740       __unwindfunclet$??0LevelMatchFilter@Log4Qt@@QAE@PAVQObject@@@Z$3 00423740 f   levelmatchfilter.obj
 0001:00022740       __unwindfunclet$??0StringMatchFilter@Log4Qt@@QAE@PAVQObject@@@Z$4 00423740 f   stringmatchfilter.obj
 0001:00022749       __ehhandler$??0StringMatchFilter@Log4Qt@@QAE@PAVQObject@@@Z 00423749 f   stringmatchfilter.obj
 0001:00022749       __ehhandler$??0LevelMatchFilter@Log4Qt@@QAE@PAVQObject@@@Z 00423749 f   levelmatchfilter.obj
 0001:00022749       __ehhandler$??0LevelRangeFilter@Log4Qt@@QAE@PAVQObject@@@Z 00423749 f   levelrangefilter.obj
 0001:00022770       __unwindfunclet$?debug@DenyAllFilter@Log4Qt@@MBE?AVQDebug@@AAV3@@Z$1 00423770 f   denyallfilter.obj
 0001:00022770       __unwindfunclet$?debug@StringMatchFilter@Log4Qt@@MBE?AVQDebug@@AAV3@@Z$1 00423770 f   stringmatchfilter.obj
 0001:00022779       __ehhandler$?debug@StringMatchFilter@Log4Qt@@MBE?AVQDebug@@AAV3@@Z 00423779 f   stringmatchfilter.obj
 0001:00022779       __ehhandler$?debug@DenyAllFilter@Log4Qt@@MBE?AVQDebug@@AAV3@@Z 00423779 f   denyallfilter.obj
 0001:000227a0       __unwindfunclet$?decide@StringMatchFilter@Log4Qt@@UBE?AW4Decision@Filter@2@ABVLoggingEvent@2@@Z$0 004237a0 f   stringmatchfilter.obj
 0001:000227ba       __unwindfunclet$?decide@StringMatchFilter@Log4Qt@@UBE?AW4Decision@Filter@2@ABVLoggingEvent@2@@Z$1 004237ba f   stringmatchfilter.obj
 0001:000227d4       __ehhandler$?decide@StringMatchFilter@Log4Qt@@UBE?AW4Decision@Filter@2@ABVLoggingEvent@2@@Z 004237d4 f   stringmatchfilter.obj
 0001:000227f0       __unwindfunclet$??A?$QMap@HVQString@@@@QAEAAVQString@@ABH@Z$0 004237f0 f   main.obj
 0001:000227f9       __ehhandler$??A?$QMap@HVQString@@@@QAEAAVQString@@ABH@Z 004237f9 f   main.obj
 0001:00022820       __unwindfunclet$?__init_property_constance_map@@YAHXZ$0 00423820 f   main.obj
 0001:00022829       __unwindfunclet$?__init_property_constance_map@@YAHXZ$1 00423829 f   main.obj
 0001:00022832       __unwindfunclet$?__init_property_constance_map@@YAHXZ$2 00423832 f   main.obj
 0001:0002283b       __unwindfunclet$?__init_property_constance_map@@YAHXZ$3 0042383b f   main.obj
 0001:00022844       __unwindfunclet$?__init_property_constance_map@@YAHXZ$4 00423844 f   main.obj
 0001:0002284d       __unwindfunclet$?__init_property_constance_map@@YAHXZ$5 0042384d f   main.obj
 0001:00022856       __unwindfunclet$?__init_property_constance_map@@YAHXZ$6 00423856 f   main.obj
 0001:0002285f       __unwindfunclet$?__init_property_constance_map@@YAHXZ$7 0042385f f   main.obj
 0001:00022868       __unwindfunclet$?__init_property_constance_map@@YAHXZ$8 00423868 f   main.obj
 0001:00022871       __unwindfunclet$?__init_property_constance_map@@YAHXZ$9 00423871 f   main.obj
 0001:0002287a       __unwindfunclet$?__init_property_constance_map@@YAHXZ$10 0042387a f   main.obj
 0001:00022883       __unwindfunclet$?__init_property_constance_map@@YAHXZ$11 00423883 f   main.obj
 0001:0002288c       __unwindfunclet$?__init_property_constance_map@@YAHXZ$12 0042388c f   main.obj
 0001:00022895       __unwindfunclet$?__init_property_constance_map@@YAHXZ$13 00423895 f   main.obj
 0001:0002289e       __unwindfunclet$?__init_property_constance_map@@YAHXZ$14 0042389e f   main.obj
 0001:000228a7       __unwindfunclet$?__init_property_constance_map@@YAHXZ$15 004238a7 f   main.obj
 0001:000228b0       __unwindfunclet$?__init_property_constance_map@@YAHXZ$16 004238b0 f   main.obj
 0001:000228b9       __unwindfunclet$?__init_property_constance_map@@YAHXZ$17 004238b9 f   main.obj
 0001:000228c2       __unwindfunclet$?__init_property_constance_map@@YAHXZ$18 004238c2 f   main.obj
 0001:000228cb       __ehhandler$?__init_property_constance_map@@YAHXZ 004238cb f   main.obj
 0001:000228f0       __unwindfunclet$_main$0    004238f0 f   main.obj
 0001:000228f9       __unwindfunclet$_main$1    004238f9 f   main.obj
 0001:00022902       __unwindfunclet$_main$2    00423902 f   main.obj
 0001:0002290b       __unwindfunclet$_main$3    0042390b f   main.obj
 0001:00022914       __unwindfunclet$_main$4    00423914 f   main.obj
 0001:0002291d       __unwindfunclet$_main$5    0042391d f   main.obj
 0001:00022926       __unwindfunclet$_main$8    00423926 f   main.obj
 0001:0002292f       __unwindfunclet$_main$9    0042392f f   main.obj
 0001:00022938       __unwindfunclet$_main$10   00423938 f   main.obj
 0001:00022941       __unwindfunclet$_main$11   00423941 f   main.obj
 0001:0002294a       __unwindfunclet$_main$12   0042394a f   main.obj
 0001:00022953       __unwindfunclet$_main$13   00423953 f   main.obj
 0001:0002295b       __unwindfunclet$_main$14   0042395b f   main.obj
 0001:00022964       __unwindfunclet$_main$15   00423964 f   main.obj
 0001:0002296d       __unwindfunclet$_main$16   0042396d f   main.obj
 0001:00022976       __unwindfunclet$_main$17   00423976 f   main.obj
 0001:0002297f       __unwindfunclet$_main$18   0042397f f   main.obj
 0001:00022988       __unwindfunclet$_main$19   00423988 f   main.obj
 0001:00022991       __unwindfunclet$_main$20   00423991 f   main.obj
 0001:00022999       __unwindfunclet$_main$21   00423999 f   main.obj
 0001:000229a2       __unwindfunclet$_main$22   004239a2 f   main.obj
 0001:000229ab       __unwindfunclet$_main$23   004239ab f   main.obj
 0001:000229b4       __unwindfunclet$_main$24   004239b4 f   main.obj
 0001:000229bd       __unwindfunclet$_main$25   004239bd f   main.obj
 0001:000229c6       __unwindfunclet$_main$26   004239c6 f   main.obj
 0001:000229cf       __unwindfunclet$_main$27   004239cf f   main.obj
 0001:000229d7       __unwindfunclet$_main$28   004239d7 f   main.obj
 0001:000229e0       __unwindfunclet$_main$29   004239e0 f   main.obj
 0001:000229e9       __unwindfunclet$_main$30   004239e9 f   main.obj
 0001:000229f2       __unwindfunclet$_main$31   004239f2 f   main.obj
 0001:000229fb       __unwindfunclet$_main$32   004239fb f   main.obj
 0001:00022a04       __unwindfunclet$_main$33   00423a04 f   main.obj
 0001:00022a0d       __unwindfunclet$_main$34   00423a0d f   main.obj
 0001:00022a15       __unwindfunclet$_main$35   00423a15 f   main.obj
 0001:00022a1e       __unwindfunclet$_main$36   00423a1e f   main.obj
 0001:00022a29       __unwindfunclet$_main$37   00423a29 f   main.obj
 0001:00022a38       __unwindfunclet$_main$39   00423a38 f   main.obj
 0001:00022a41       __unwindfunclet$_main$40   00423a41 f   main.obj
 0001:00022a4a       __unwindfunclet$_main$41   00423a4a f   main.obj
 0001:00022a53       __unwindfunclet$_main$42   00423a53 f   main.obj
 0001:00022a5c       __unwindfunclet$_main$43   00423a5c f   main.obj
 0001:00022a65       __unwindfunclet$_main$44   00423a65 f   main.obj
 0001:00022a6e       __unwindfunclet$_main$45   00423a6e f   main.obj
 0001:00022a77       __unwindfunclet$_main$46   00423a77 f   main.obj
 0001:00022a80       __unwindfunclet$_main$47   00423a80 f   main.obj
 0001:00022a89       __unwindfunclet$_main$48   00423a89 f   main.obj
 0001:00022a92       __unwindfunclet$_main$49   00423a92 f   main.obj
 0001:00022a9b       __ehhandler$_main          00423a9b f   main.obj
 0001:00022ac0       __unwindfunclet$??0SplashScreen@@QAE@PAVQWidget@@@Z$0 00423ac0 f   splashscreen.obj
 0001:00022ac9       __unwindfunclet$??0SplashScreen@@QAE@PAVQWidget@@@Z$1 00423ac9 f   splashscreen.obj
 0001:00022ad2       __unwindfunclet$??0SplashScreen@@QAE@PAVQWidget@@@Z$2 00423ad2 f   splashscreen.obj
 0001:00022add       __unwindfunclet$??0SplashScreen@@QAE@PAVQWidget@@@Z$3 00423add f   splashscreen.obj
 0001:00022ae6       __unwindfunclet$??0SplashScreen@@QAE@PAVQWidget@@@Z$4 00423ae6 f   splashscreen.obj
 0001:00022aef       __unwindfunclet$??0SplashScreen@@QAE@PAVQWidget@@@Z$5 00423aef f   splashscreen.obj
 0001:00022af8       __ehhandler$??0SplashScreen@@QAE@PAVQWidget@@@Z 00423af8 f   splashscreen.obj
 0001:00022b20       __unwindfunclet$?drawContents@SplashScreen@@MAEXPAVQPainter@@@Z$0 00423b20 f   splashscreen.obj
 0001:00022b29       __unwindfunclet$?drawContents@SplashScreen@@MAEXPAVQPainter@@@Z$1 00423b29 f   splashscreen.obj
 0001:00022b32       __unwindfunclet$?drawContents@SplashScreen@@MAEXPAVQPainter@@@Z$2 00423b32 f   splashscreen.obj
 0001:00022b3b       __ehhandler$?drawContents@SplashScreen@@MAEXPAVQPainter@@@Z 00423b3b f   splashscreen.obj
 0001:00022b60       __unwindfunclet$?pluginChanged@SplashScreen@@QAEXABVPluginEvent@ExtensionSystem@@@Z$0 00423b60 f   splashscreen.obj
 0001:00022b69       __unwindfunclet$?pluginChanged@SplashScreen@@QAEXABVPluginEvent@ExtensionSystem@@@Z$4 00423b69 f   splashscreen.obj
 0001:00022b72       __unwindfunclet$?pluginChanged@SplashScreen@@QAEXABVPluginEvent@ExtensionSystem@@@Z$5 00423b72 f   splashscreen.obj
 0001:00022b7b       __unwindfunclet$?pluginChanged@SplashScreen@@QAEXABVPluginEvent@ExtensionSystem@@@Z$6 00423b7b f   splashscreen.obj
 0001:00022b84       __unwindfunclet$?pluginChanged@SplashScreen@@QAEXABVPluginEvent@ExtensionSystem@@@Z$7 00423b84 f   splashscreen.obj
 0001:00022b8d       __unwindfunclet$?pluginChanged@SplashScreen@@QAEXABVPluginEvent@ExtensionSystem@@@Z$8 00423b8d f   splashscreen.obj
 0001:00022b96       __unwindfunclet$?pluginChanged@SplashScreen@@QAEXABVPluginEvent@ExtensionSystem@@@Z$9 00423b96 f   splashscreen.obj
 0001:00022b9f       __unwindfunclet$?pluginChanged@SplashScreen@@QAEXABVPluginEvent@ExtensionSystem@@@Z$10 00423b9f f   splashscreen.obj
 0001:00022ba8       __unwindfunclet$?pluginChanged@SplashScreen@@QAEXABVPluginEvent@ExtensionSystem@@@Z$11 00423ba8 f   splashscreen.obj
 0001:00022bb1       __ehhandler$?pluginChanged@SplashScreen@@QAEXABVPluginEvent@ExtensionSystem@@@Z 00423bb1 f   splashscreen.obj
 0001:00022be0       __unwindfunclet$??__Fdummy@?A0xcbdf61e0@@YAXXZ$0 00423be0 f   qrc_resource.obj
 0001:00022be6       __ehhandler$??__Fdummy@?A0xcbdf61e0@@YAXXZ 00423be6 f   qrc_resource.obj
 0001:00022c10       __unwindfunclet$?setFile@FileAppender@Log4Qt@@QAEXABVQString@@@Z$0 00423c10 f   moc_fileappender.obj
 0001:00022c19       __unwindfunclet$?setFile@FileAppender@Log4Qt@@QAEXABVQString@@@Z$1 00423c19 f   moc_fileappender.obj
 0001:00022c22       __unwindfunclet$?setFile@FileAppender@Log4Qt@@QAEXABVQString@@@Z$2 00423c22 f   moc_fileappender.obj
 0001:00022c2b       __unwindfunclet$?setFile@FileAppender@Log4Qt@@QAEXABVQString@@@Z$3 00423c2b f   moc_fileappender.obj
 0001:00022c34       __ehhandler$?setFile@FileAppender@Log4Qt@@QAEXABVQString@@@Z 00423c34 f   moc_fileappender.obj
 0001:00022c50       __unwindfunclet$?qt_metatype_id@?$QMetaTypeIdQObject@PAVFilter@Log4Qt@@$07@@SAHXZ$0 00423c50 f   moc_filter.obj
 0001:00022c50       __unwindfunclet$?qt_metatype_id@?$QMetaTypeId@VLevel@Log4Qt@@@@SAHXZ$2 00423c50 f   factory.obj
 0001:00022c50       __unwindfunclet$?qt_metatype_id@?$QMetaTypeIdQObject@PAVLogger@Log4Qt@@$07@@SAHXZ$0 00423c50 f   moc_logger.obj
 0001:00022c59       __ehhandler$?qt_metatype_id@?$QMetaTypeId@VLevel@Log4Qt@@@@SAHXZ 00423c59 f   factory.obj
 0001:00022c59       __ehhandler$?qt_metatype_id@?$QMetaTypeIdQObject@PAVLogger@Log4Qt@@$07@@SAHXZ 00423c59 f   moc_logger.obj
 0001:00022c59       __ehhandler$?qt_metatype_id@?$QMetaTypeIdQObject@PAVFilter@Log4Qt@@$07@@SAHXZ 00423c59 f   moc_filter.obj
 0001:00022c80       ??__FPROPERTY_ASSOCIATE@PropertyConstants@@YAXXZ 00423c80 f   main.obj
 0001:00022c90       ??__FPROPERTY_CLIENT_TOPIC@PropertyConstants@@YAXXZ 00423c90 f   main.obj
 0001:00022ca0       ??__FPROPERTY_DECIMALS@PropertyConstants@@YAXXZ 00423ca0 f   main.obj
 0001:00022cb0       ??__FPROPERTY_EDITABLE@PropertyConstants@@YAXXZ 00423cb0 f   main.obj
 0001:00022cc0       ??__FPROPERTY_FILE_DIRECTORY@PropertyConstants@@YAXXZ 00423cc0 f   main.obj
 0001:00022cd0       ??__FPROPERTY_FILE_FILTER@PropertyConstants@@YAXXZ 00423cd0 f   main.obj
 0001:00022ce0       ??__FPROPERTY_FILE_METHOD@PropertyConstants@@YAXXZ 00423ce0 f   main.obj
 0001:00022cf0       ??__FPROPERTY_FILE_METHOD_OPENFILE@PropertyConstants@@YAXXZ 00423cf0 f   main.obj
 0001:00022d00       ??__FPROPERTY_FILE_METHOD_OPENFILES@PropertyConstants@@YAXXZ 00423d00 f   main.obj
 0001:00022d10       ??__FPROPERTY_FILE_METHOD_OPENFILE_URL@PropertyConstants@@YAXXZ 00423d10 f   main.obj
 0001:00022d20       ??__FPROPERTY_FILE_METHOD_OPENFILE_URLS@PropertyConstants@@YAXXZ 00423d20 f   main.obj
 0001:00022d30       ??__FPROPERTY_FILE_METHOD_OPENFOLDER@PropertyConstants@@YAXXZ 00423d30 f   main.obj
 0001:00022d40       ??__FPROPERTY_FILE_METHOD_OPENFOLDER_URL@PropertyConstants@@YAXXZ 00423d40 f   main.obj
 0001:00022d50       ??__FPROPERTY_FILE_METHOD_SAVEFILE@PropertyConstants@@YAXXZ 00423d50 f   main.obj
 0001:00022d60       ??__FPROPERTY_FILE_METHOD_SAVEFILE_URL@PropertyConstants@@YAXXZ 00423d60 f   main.obj
 0001:00022d70       ??__FPROPERTY_FILE_TITLE@PropertyConstants@@YAXXZ 00423d70 f   main.obj
 0001:00022d80       ??__FPROPERTY_HIDE@PropertyConstants@@YAXXZ 00423d80 f   main.obj
 0001:00022d90       ??__FPROPERTY_LIST@PropertyConstants@@YAXXZ 00423d90 f   main.obj
 0001:00022da0       ??__FPROPERTY_MESSAGE_TYPE@PropertyConstants@@YAXXZ 00423da0 f   main.obj
 0001:00022db0       ??__FPROPERTY_NAME@PropertyConstants@@YAXXZ 00423db0 f   main.obj
 0001:00022dc0       ??__FPROPERTY_OPTIONS@PropertyConstants@@YAXXZ 00423dc0 f   main.obj
 0001:00022dd0       ??__FPROPERTY_PREFIX@PropertyConstants@@YAXXZ 00423dd0 f   main.obj
 0001:00022de0       ??__FPROPERTY_SERVICE_TOPIC@PropertyConstants@@YAXXZ 00423de0 f   main.obj
 0001:00022df0       ??__FPROPERTY_SHOW@PropertyConstants@@YAXXZ 00423df0 f   main.obj
 0001:00022e00       ??__FPROPERTY_SHOW_TEXT@PropertyConstants@@YAXXZ 00423e00 f   main.obj
 0001:00022e10       ??__FPROPERTY_SINGLESTEP@PropertyConstants@@YAXXZ 00423e10 f   main.obj
 0001:00022e20       ??__FPROPERTY_STRING_REGEXP@PropertyConstants@@YAXXZ 00423e20 f   main.obj
 0001:00022e30       ??__FPROPERTY_SUB_ITEMS@PropertyConstants@@YAXXZ 00423e30 f   main.obj
 0001:00022e40       ??__FPROPERTY_SUFFIX@PropertyConstants@@YAXXZ 00423e40 f   main.obj
 0001:00022e50       ??__FPROPERTY_VALUE@PropertyConstants@@YAXXZ 00423e50 f   main.obj
 0001:00022e60       ??__FPROPERTY_VALUE_MAX@PropertyConstants@@YAXXZ 00423e60 f   main.obj
 0001:00022e70       ??__FPROPERTY_VALUE_MIN@PropertyConstants@@YAXXZ 00423e70 f   main.obj
 0001:00022e80       ??__FPROPERTY_VALUE_TYPE@PropertyConstants@@YAXXZ 00423e80 f   main.obj
 0001:00022e90       ??__FPropertyNameMap@PropertyConstants@@YAXXZ 00423e90 f   main.obj
 0001:00022ea0       ??__FPropertyTypeNameMap@PropertyConstants@@YAXXZ 00423ea0 f   main.obj
 0001:00022eb0       ??__Fdummy@?A0xcbdf61e0@@YAXXZ 00423eb0 f   qrc_resource.obj
 0002:00000740       ?pre_cpp_initializer@@3P6AXXZA 00424740     MSVCRT:exe_winmain.obj
 0002:00000744       ??msStaticInitialisation$initializer$@InitialisationHelper@Log4Qt@@0P6AXXZA@@3P6AXXZA 00424744     initialisationhelper.obj
 0002:00000748       ?PROPERTY_NAME$initializer$@PropertyConstants@@3P6AXXZA 00424748     main.obj
 0002:0000074c       ?PROPERTY_VALUE$initializer$@PropertyConstants@@3P6AXXZA 0042474c     main.obj
 0002:00000750       ?PROPERTY_VALUE_MIN$initializer$@PropertyConstants@@3P6AXXZA 00424750     main.obj
 0002:00000754       ?PROPERTY_VALUE_MAX$initializer$@PropertyConstants@@3P6AXXZA 00424754     main.obj
 0002:00000758       ?PROPERTY_VALUE_TYPE$initializer$@PropertyConstants@@3P6AXXZA 00424758     main.obj
 0002:0000075c       ?PROPERTY_OPTIONS$initializer$@PropertyConstants@@3P6AXXZA 0042475c     main.obj
 0002:00000760       ?PROPERTY_EDITABLE$initializer$@PropertyConstants@@3P6AXXZA 00424760     main.obj
 0002:00000764       ?PROPERTY_ASSOCIATE$initializer$@PropertyConstants@@3P6AXXZA 00424764     main.obj
 0002:00000768       ?PROPERTY_SUB_ITEMS$initializer$@PropertyConstants@@3P6AXXZA 00424768     main.obj
 0002:0000076c       ?PROPERTY_SHOW_TEXT$initializer$@PropertyConstants@@3P6AXXZA 0042476c     main.obj
 0002:00000770       ?PROPERTY_DECIMALS$initializer$@PropertyConstants@@3P6AXXZA 00424770     main.obj
 0002:00000774       ?PROPERTY_SINGLESTEP$initializer$@PropertyConstants@@3P6AXXZA 00424774     main.obj
 0002:00000778       ?PROPERTY_SUFFIX$initializer$@PropertyConstants@@3P6AXXZA 00424778     main.obj
 0002:0000077c       ?PROPERTY_PREFIX$initializer$@PropertyConstants@@3P6AXXZA 0042477c     main.obj
 0002:00000780       ?PROPERTY_STRING_REGEXP$initializer$@PropertyConstants@@3P6AXXZA 00424780     main.obj
 0002:00000784       ?PROPERTY_FILE_FILTER$initializer$@PropertyConstants@@3P6AXXZA 00424784     main.obj
 0002:00000788       ?PROPERTY_FILE_DIRECTORY$initializer$@PropertyConstants@@3P6AXXZA 00424788     main.obj
 0002:0000078c       ?PROPERTY_FILE_METHOD$initializer$@PropertyConstants@@3P6AXXZA 0042478c     main.obj
 0002:00000790       ?PROPERTY_FILE_TITLE$initializer$@PropertyConstants@@3P6AXXZA 00424790     main.obj
 0002:00000794       ?PROPERTY_FILE_METHOD_OPENFILE$initializer$@PropertyConstants@@3P6AXXZA 00424794     main.obj
 0002:00000798       ?PROPERTY_FILE_METHOD_OPENFILE_URL$initializer$@PropertyConstants@@3P6AXXZA 00424798     main.obj
 0002:0000079c       ?PROPERTY_FILE_METHOD_OPENFILES$initializer$@PropertyConstants@@3P6AXXZA 0042479c     main.obj
 0002:000007a0       ?PROPERTY_FILE_METHOD_OPENFILE_URLS$initializer$@PropertyConstants@@3P6AXXZA 004247a0     main.obj
 0002:000007a4       ?PROPERTY_FILE_METHOD_OPENFOLDER$initializer$@PropertyConstants@@3P6AXXZA 004247a4     main.obj
 0002:000007a8       ?PROPERTY_FILE_METHOD_OPENFOLDER_URL$initializer$@PropertyConstants@@3P6AXXZA 004247a8     main.obj
 0002:000007ac       ?PROPERTY_FILE_METHOD_SAVEFILE$initializer$@PropertyConstants@@3P6AXXZA 004247ac     main.obj
 0002:000007b0       ?PROPERTY_FILE_METHOD_SAVEFILE_URL$initializer$@PropertyConstants@@3P6AXXZA 004247b0     main.obj
 0002:000007b4       ?PROPERTY_SERVICE_TOPIC$initializer$@PropertyConstants@@3P6AXXZA 004247b4     main.obj
 0002:000007b8       ?PROPERTY_CLIENT_TOPIC$initializer$@PropertyConstants@@3P6AXXZA 004247b8     main.obj
 0002:000007bc       ?PROPERTY_MESSAGE_TYPE$initializer$@PropertyConstants@@3P6AXXZA 004247bc     main.obj
 0002:000007c0       ?PROPERTY_SHOW$initializer$@PropertyConstants@@3P6AXXZA 004247c0     main.obj
 0002:000007c4       ?PROPERTY_HIDE$initializer$@PropertyConstants@@3P6AXXZA 004247c4     main.obj
 0002:000007c8       ?PROPERTY_LIST$initializer$@PropertyConstants@@3P6AXXZA 004247c8     main.obj
 0002:000007cc       ?PropertyNameMap$initializer$@PropertyConstants@@3P6AXXZA 004247cc     main.obj
 0002:000007d0       ?PropertyTypeNameMap$initializer$@PropertyConstants@@3P6AXXZA 004247d0     main.obj
 0002:000007d4       ?i$initializer$@@3P6AXXZA  004247d4     main.obj
 0002:000007d8       ?dummy$initializer$@?A0xcbdf61e0@@3P6AXXZA 004247d8     qrc_resource.obj
 0002:000007dc       ??staticMetaObject$initializer$@ConfiguratorHelper@Log4Qt@@2P6AXXZA@@3P6AXXZA 004247dc     moc_configuratorhelper.obj
 0002:000007e0       ??staticMetaObject$initializer$@LogObject@Log4Qt@@2P6AXXZA@@3P6AXXZA 004247e0     moc_logobject.obj
 0002:000007e4       ??staticMetaObject$initializer$@Logger@Log4Qt@@2P6AXXZA@@3P6AXXZA 004247e4     moc_logger.obj
 0002:000007e8       ??staticMetaObject$initializer$@SplashScreen@@2P6AXXZA@@3P6AXXZA 004247e8     moc_splashscreen.obj
 0002:000007f4       ?pre_c_initializer@@3P6AHXZA 004247f4     MSVCRT:exe_winmain.obj
 0002:000007f8       ?post_pgo_initializer@@3P6AHXZA 004247f8     MSVCRT:exe_winmain.obj
 0002:00003910       ?qt_resource_data@@3QBEB   00427910     qrc_resource.obj
 0002:000ffe00       ?qt_resource_name@@3QBEB   00523e00     qrc_resource.obj
 0002:000ffe78       ?qt_resource_struct@@3QBEB 00523e78     qrc_resource.obj
 0002:000fff00       ?qt_meta_stringdata_Log4Qt__Appender@@3Uqt_meta_stringdata_Log4Qt__Appender_t@@B 00523f00     moc_appender.obj
 0002:000fff88       ?qt_meta_data_Log4Qt__Appender@@3QBIB 00523f88     moc_appender.obj
 0002:00100018       ?qt_meta_stringdata_Log4Qt__AppenderSkeleton@@3Uqt_meta_stringdata_Log4Qt__AppenderSkeleton_t@@B 00524018     moc_appenderskeleton.obj
 0002:001000a8       ?qt_meta_data_Log4Qt__AppenderSkeleton@@3QBIB 005240a8     moc_appenderskeleton.obj
 0002:00100120       ?qt_meta_stringdata_Log4Qt__ConsoleAppender@@3Uqt_meta_stringdata_Log4Qt__ConsoleAppender_t@@B 00524120     moc_consoleappender.obj
 0002:001001b8       ?qt_meta_data_Log4Qt__ConsoleAppender@@3QBIB 005241b8     moc_consoleappender.obj
 0002:00100238       ?qt_meta_stringdata_Log4Qt__DailyRollingFileAppender@@3Uqt_meta_stringdata_Log4Qt__DailyRollingFileAppender_t@@B 00524238     moc_dailyrollingfileappender.obj
 0002:00100368       ?qt_meta_data_Log4Qt__DailyRollingFileAppender@@3QBIB 00524368     moc_dailyrollingfileappender.obj
 0002:00100408       ?qt_meta_stringdata_Log4Qt__FileAppender@@3Uqt_meta_stringdata_Log4Qt__FileAppender_t@@B 00524408     moc_fileappender.obj
 0002:00100478       ?qt_meta_data_Log4Qt__FileAppender@@3QBIB 00524478     moc_fileappender.obj
 0002:001004f0       ?qt_meta_stringdata_Log4Qt__ConfiguratorHelper@@3Uqt_meta_stringdata_Log4Qt__ConfiguratorHelper_t@@B 005244f0     moc_configuratorhelper.obj
 0002:001005b0       ?qt_meta_data_Log4Qt__ConfiguratorHelper@@3QBIB 005245b0     moc_configuratorhelper.obj
 0002:00100634       ?qt_meta_stringdata_Log4Qt__LogObject@@3Uqt_meta_stringdata_Log4Qt__LogObject_t@@B 00524634     moc_logobject.obj
 0002:00100658       ?qt_meta_data_Log4Qt__LogObject@@3QBIB 00524658     moc_logobject.obj
 0002:001006b0       ?qt_meta_stringdata_Log4Qt__Layout@@3Uqt_meta_stringdata_Log4Qt__Layout_t@@B 005246b0     moc_layout.obj
 0002:00100720       ?qt_meta_data_Log4Qt__Layout@@3QBIB 00524720     moc_layout.obj
 0002:00100780       ?qt_meta_stringdata_Log4Qt__Logger@@3Uqt_meta_stringdata_Log4Qt__Logger_t@@B 00524780     moc_logger.obj
 0002:00100878       ?qt_meta_data_Log4Qt__Logger@@3QBIB 00524878     moc_logger.obj
 0002:00100908       ?qt_meta_stringdata_Log4Qt__PatternLayout@@3Uqt_meta_stringdata_Log4Qt__PatternLayout_t@@B 00524908     moc_patternlayout.obj
 0002:001009c8       ?qt_meta_data_Log4Qt__PatternLayout@@3QBIB 005249c8     moc_patternlayout.obj
 0002:00100a48       ?qt_meta_stringdata_Log4Qt__RollingFileAppender@@3Uqt_meta_stringdata_Log4Qt__RollingFileAppender_t@@B 00524a48     moc_rollingfileappender.obj
 0002:00100ad0       ?qt_meta_data_Log4Qt__RollingFileAppender@@3QBIB 00524ad0     moc_rollingfileappender.obj
 0002:00100b48       ?qt_meta_stringdata_Log4Qt__SimpleLayout@@3Uqt_meta_stringdata_Log4Qt__SimpleLayout_t@@B 00524b48     moc_simplelayout.obj
 0002:00100b70       ?qt_meta_data_Log4Qt__SimpleLayout@@3QBIB 00524b70     moc_simplelayout.obj
 0002:00100bc8       ?qt_meta_stringdata_Log4Qt__Filter@@3Uqt_meta_stringdata_Log4Qt__Filter_t@@B 00524bc8     moc_filter.obj
 0002:00100c78       ?qt_meta_data_Log4Qt__Filter@@3QBIB 00524c78     moc_filter.obj
 0002:00100d00       ?qt_meta_stringdata_Log4Qt__TTCCLayout@@3Uqt_meta_stringdata_Log4Qt__TTCCLayout_t@@B 00524d00     moc_ttcclayout.obj
 0002:00100e38       ?qt_meta_data_Log4Qt__TTCCLayout@@3QBIB 00524e38     moc_ttcclayout.obj
 0002:00100ef8       ?qt_meta_stringdata_Log4Qt__WriterAppender@@3Uqt_meta_stringdata_Log4Qt__WriterAppender_t@@B 00524ef8     moc_writerappender.obj
 0002:00100fa8       ?qt_meta_data_Log4Qt__WriterAppender@@3QBIB 00524fa8     moc_writerappender.obj
 0002:00101020       ?qt_meta_stringdata_Log4Qt__DebugAppender@@3Uqt_meta_stringdata_Log4Qt__DebugAppender_t@@B 00525020     moc_debugappender.obj
 0002:00101048       ?qt_meta_data_Log4Qt__DebugAppender@@3QBIB 00525048     moc_debugappender.obj
 0002:0010109c       ?qt_meta_stringdata_Log4Qt__DenyAllFilter@@3Uqt_meta_stringdata_Log4Qt__DenyAllFilter_t@@B 0052509c     moc_denyallfilter.obj
 0002:001010c4       ?qt_meta_data_Log4Qt__DenyAllFilter@@3QBIB 005250c4     moc_denyallfilter.obj
 0002:00101118       ?qt_meta_stringdata_Log4Qt__NullAppender@@3Uqt_meta_stringdata_Log4Qt__NullAppender_t@@B 00525118     moc_nullappender.obj
 0002:00101140       ?qt_meta_data_Log4Qt__NullAppender@@3QBIB 00525140     moc_nullappender.obj
 0002:00101198       ?qt_meta_stringdata_Log4Qt__LevelMatchFilter@@3Uqt_meta_stringdata_Log4Qt__LevelMatchFilter_t@@B 00525198     moc_levelmatchfilter.obj
 0002:00101218       ?qt_meta_data_Log4Qt__LevelMatchFilter@@3QBIB 00525218     moc_levelmatchfilter.obj
 0002:00101288       ?qt_meta_stringdata_Log4Qt__LevelRangeFilter@@3Uqt_meta_stringdata_Log4Qt__LevelRangeFilter_t@@B 00525288     moc_levelrangefilter.obj
 0002:00101318       ?qt_meta_data_Log4Qt__LevelRangeFilter@@3QBIB 00525318     moc_levelrangefilter.obj
 0002:00101390       ?qt_meta_stringdata_Log4Qt__ListAppender@@3Uqt_meta_stringdata_Log4Qt__ListAppender_t@@B 00525390     moc_listappender.obj
 0002:001013f0       ?qt_meta_data_Log4Qt__ListAppender@@3QBIB 005253f0     moc_listappender.obj
 0002:00101460       ?qt_meta_stringdata_Log4Qt__StringMatchFilter@@3Uqt_meta_stringdata_Log4Qt__StringMatchFilter_t@@B 00525460     moc_stringmatchfilter.obj
 0002:001014c8       ?qt_meta_data_Log4Qt__StringMatchFilter@@3QBIB 005254c8     moc_stringmatchfilter.obj
 0002:00101520       ?qt_meta_stringdata_SplashScreen@@3Uqt_meta_stringdata_SplashScreen_t@@B 00525520     moc_splashscreen.obj
 0002:001015d8       ?qt_meta_data_SplashScreen@@3QBIB 005255d8     moc_splashscreen.obj
 0002:001016bc       _GS_ExceptionPointers      005256bc     MSVCRT:gs_report.obj
 0002:00102c70       __catchsym$?append@?$QList@VQVariant@@@@QAEXABVQVariant@@@Z$16 00526c70     appenderskeleton.obj
 0002:00102c80       __catchsym$?append@?$QList@VQVariant@@@@QAEXABVQVariant@@@Z$15 00526c80     appenderskeleton.obj
 0002:00102c90       __ehfuncinfo$?append@?$QList@VQVariant@@@@QAEXABVQVariant@@@Z 00526c90     appenderskeleton.obj
 0002:00102cb4       __tryblocktable$?append@?$QList@VQVariant@@@@QAEXABVQVariant@@@Z 00526cb4     appenderskeleton.obj
 0002:00102cdc       __unwindtable$?append@?$QList@VQVariant@@@@QAEXABVQVariant@@@Z 00526cdc     appenderskeleton.obj
 0002:00102d3c       __catchsym$?detach_helper_grow@?$QList@VQVariant@@@@AAEPAUNode@1@HH@Z$10 00526d3c     appenderskeleton.obj
 0002:00102d4c       __catchsym$?detach_helper_grow@?$QList@VQVariant@@@@AAEPAUNode@1@HH@Z$9 00526d4c     appenderskeleton.obj
 0002:00102d5c       __unwindtable$?detach_helper_grow@?$QList@VQVariant@@@@AAEPAUNode@1@HH@Z 00526d5c     appenderskeleton.obj
 0002:00102d7c       __ehfuncinfo$?detach_helper_grow@?$QList@VQVariant@@@@AAEPAUNode@1@HH@Z 00526d7c     appenderskeleton.obj
 0002:00102da0       __tryblocktable$?detach_helper_grow@?$QList@VQVariant@@@@AAEPAUNode@1@HH@Z 00526da0     appenderskeleton.obj
 0002:00102dc8       __catchsym$?node_copy@?$QList@VQVariant@@@@AAEXPAUNode@1@00@Z$8 00526dc8     appenderskeleton.obj
 0002:00102dd8       __tryblocktable$?node_copy@?$QList@VQVariant@@@@AAEXPAUNode@1@00@Z 00526dd8     appenderskeleton.obj
 0002:00102dec       __ehfuncinfo$?node_copy@?$QList@VQVariant@@@@AAEXPAUNode@1@00@Z 00526dec     appenderskeleton.obj
 0002:00102e10       __unwindtable$?node_copy@?$QList@VQVariant@@@@AAEXPAUNode@1@00@Z 00526e10     appenderskeleton.obj
 0002:00102e40       __unwindtable$??6LogError@Log4Qt@@QAEAAV01@ABVQString@@@Z 00526e40     appenderskeleton.obj
 0002:00102e48       __ehfuncinfo$??6LogError@Log4Qt@@QAEAAV01@ABVQString@@@Z 00526e48     appenderskeleton.obj
 0002:00102e6c       __unwindtable$??0AppenderSkeleton@Log4Qt@@QAE@PAVQObject@@@Z 00526e6c     appenderskeleton.obj
 0002:00102e6c       __unwindtable$??0AppenderSkeleton@Log4Qt@@IAE@_NPAVQObject@@@Z 00526e6c     appenderskeleton.obj
 0002:00102e7c       __ehfuncinfo$??0AppenderSkeleton@Log4Qt@@QAE@PAVQObject@@@Z 00526e7c     appenderskeleton.obj
 0002:00102e7c       __ehfuncinfo$??0AppenderSkeleton@Log4Qt@@IAE@_NPAVQObject@@@Z 00526e7c     appenderskeleton.obj
 0002:00102ea0       __unwindtable$?list@ListAppender@Log4Qt@@QBE?AV?$QList@VLoggingEvent@Log4Qt@@@@XZ 00526ea0     listappender.obj
 0002:00102ea0       __unwindtable$?name@AppenderSkeleton@Log4Qt@@UBE?AVQString@@XZ 00526ea0     appenderskeleton.obj
 0002:00102ea0       __unwindtable$?doCreateAppender@Factory@Log4Qt@@AAEPAVAppender@2@ABVQString@@@Z 00526ea0     factory.obj
 0002:00102ea0       __unwindtable$?doCreateLayout@Factory@Log4Qt@@AAEPAVLayout@2@ABVQString@@@Z 00526ea0     factory.obj
 0002:00102ea0       __unwindtable$?doSetHandleQtMessages@LogManager@Log4Qt@@AAEX_N@Z 00526ea0     logmanager.obj
 0002:00102ea8       __ehfuncinfo$?doSetHandleQtMessages@LogManager@Log4Qt@@AAEX_N@Z 00526ea8     logmanager.obj
 0002:00102ea8       __ehfuncinfo$?doCreateLayout@Factory@Log4Qt@@AAEPAVLayout@2@ABVQString@@@Z 00526ea8     factory.obj
 0002:00102ea8       __ehfuncinfo$?doCreateAppender@Factory@Log4Qt@@AAEPAVAppender@2@ABVQString@@@Z 00526ea8     factory.obj
 0002:00102ea8       __ehfuncinfo$?list@ListAppender@Log4Qt@@QBE?AV?$QList@VLoggingEvent@Log4Qt@@@@XZ 00526ea8     listappender.obj
 0002:00102ea8       __ehfuncinfo$?name@AppenderSkeleton@Log4Qt@@UBE?AVQString@@XZ 00526ea8     appenderskeleton.obj
 0002:00102ecc       __ehfuncinfo$?activateOptions@FileAppender@Log4Qt@@UAEXXZ 00526ecc     fileappender.obj
 0002:00102ecc       __ehfuncinfo$?activateOptions@WriterAppender@Log4Qt@@UAEXXZ 00526ecc     writerappender.obj
 0002:00102ecc       __ehfuncinfo$?activateOptions@AppenderSkeleton@Log4Qt@@UAEXXZ 00526ecc     appenderskeleton.obj
 0002:00102ef0       __unwindtable$?activateOptions@AppenderSkeleton@Log4Qt@@UAEXXZ 00526ef0     appenderskeleton.obj
 0002:00102ef0       __unwindtable$?activateOptions@WriterAppender@Log4Qt@@UAEXXZ 00526ef0     writerappender.obj
 0002:00102ef0       __unwindtable$?activateOptions@FileAppender@Log4Qt@@UAEXXZ 00526ef0     fileappender.obj
 0002:00102f18       __unwindtable$?addFilter@AppenderSkeleton@Log4Qt@@UAEXPAVFilter@2@@Z 00526f18     appenderskeleton.obj
 0002:00102f28       __ehfuncinfo$?addFilter@AppenderSkeleton@Log4Qt@@UAEXPAVFilter@2@@Z 00526f28     appenderskeleton.obj
 0002:00102f4c       __unwindtable$?doAppend@AppenderSkeleton@Log4Qt@@UAEXABVLoggingEvent@2@@Z 00526f4c     appenderskeleton.obj
 0002:00102f5c       __ehfuncinfo$?doAppend@AppenderSkeleton@Log4Qt@@UAEXABVLoggingEvent@2@@Z 00526f5c     appenderskeleton.obj
 0002:00102f80       __ehfuncinfo$?checkEntryConditions@AppenderSkeleton@Log4Qt@@MBE_NXZ 00526f80     appenderskeleton.obj
 0002:00102fa4       __unwindtable$?checkEntryConditions@AppenderSkeleton@Log4Qt@@MBE_NXZ 00526fa4     appenderskeleton.obj
 0002:00102ff4       __unwindtable$??0LoggingEvent@Log4Qt@@QAE@ABV01@@Z 00526ff4     basicconfigurator.obj
 0002:00103004       __ehfuncinfo$??0LoggingEvent@Log4Qt@@QAE@ABV01@@Z 00527004     basicconfigurator.obj
 0002:00103028       __catchsym$??0?$QList@VLoggingEvent@Log4Qt@@@@QAE@ABV0@@Z$7 00527028     basicconfigurator.obj
 0002:00103038       __unwindtable$??0?$QList@VLoggingEvent@Log4Qt@@@@QAE@ABV0@@Z 00527038     basicconfigurator.obj
 0002:00103048       __tryblocktable$??0?$QList@VLoggingEvent@Log4Qt@@@@QAE@ABV0@@Z 00527048     basicconfigurator.obj
 0002:0010305c       __ehfuncinfo$??0?$QList@VLoggingEvent@Log4Qt@@@@QAE@ABV0@@Z 0052705c     basicconfigurator.obj
 0002:00103080       __catchsym$?node_copy@?$QList@VLoggingEvent@Log4Qt@@@@AAEXPAUNode@1@00@Z$6 00527080     basicconfigurator.obj
 0002:00103090       __tryblocktable$?node_copy@?$QList@VLoggingEvent@Log4Qt@@@@AAEXPAUNode@1@00@Z 00527090     basicconfigurator.obj
 0002:001030a4       __ehfuncinfo$?node_copy@?$QList@VLoggingEvent@Log4Qt@@@@AAEXPAUNode@1@00@Z 005270a4     basicconfigurator.obj
 0002:001030c8       __unwindtable$?node_copy@?$QList@VLoggingEvent@Log4Qt@@@@AAEXPAUNode@1@00@Z 005270c8     basicconfigurator.obj
 0002:001030f8       __unwindtable$?node_destruct@?$QList@VLoggingEvent@Log4Qt@@@@AAEXPAUNode@1@0@Z 005270f8     basicconfigurator.obj
 0002:00103108       __ehfuncinfo$?node_destruct@?$QList@VLoggingEvent@Log4Qt@@@@AAEXPAUNode@1@0@Z 00527108     basicconfigurator.obj
 0002:0010312c       __unwindtable$?activateOptions@ConsoleAppender@Log4Qt@@UAEXXZ 0052712c     consoleappender.obj
 0002:00103144       __ehfuncinfo$?activateOptions@ConsoleAppender@Log4Qt@@UAEXXZ 00527144     consoleappender.obj
 0002:00103168       __ehfuncinfo$?debug@ConsoleAppender@Log4Qt@@MBE?AVQDebug@@AAV3@@Z 00527168     consoleappender.obj
 0002:0010318c       __unwindtable$?debug@ConsoleAppender@Log4Qt@@MBE?AVQDebug@@AAV3@@Z 0052718c     consoleappender.obj
 0002:001031b4       __ehfuncinfo$?trace@Logger@Log4Qt@@QBEXPBDABVQVariant@@11@Z 005271b4     dailyrollingfileappender.obj
 0002:001031d8       __unwindtable$?trace@Logger@Log4Qt@@QBEXPBDABVQVariant@@11@Z 005271d8     dailyrollingfileappender.obj
 0002:00103200       __ehfuncinfo$??0DailyRollingFileAppender@Log4Qt@@QAE@PAVQObject@@@Z 00527200     dailyrollingfileappender.obj
 0002:00103224       __unwindtable$??0DailyRollingFileAppender@Log4Qt@@QAE@PAVQObject@@@Z 00527224     dailyrollingfileappender.obj
 0002:0010327c       __unwindtable$?append@DailyRollingFileAppender@Log4Qt@@MAEXABVLoggingEvent@2@@Z 0052727c     dailyrollingfileappender.obj
 0002:00103284       __ehfuncinfo$?append@DailyRollingFileAppender@Log4Qt@@MAEXABVLoggingEvent@2@@Z 00527284     dailyrollingfileappender.obj
 0002:001032a8       __ehfuncinfo$?debug@DailyRollingFileAppender@Log4Qt@@MBE?AVQDebug@@AAV3@@Z 005272a8     dailyrollingfileappender.obj
 0002:001032cc       __unwindtable$?debug@DailyRollingFileAppender@Log4Qt@@MBE?AVQDebug@@AAV3@@Z 005272cc     dailyrollingfileappender.obj
 0002:00103324       __ehfuncinfo$?computeFrequency@DailyRollingFileAppender@Log4Qt@@AAEXXZ 00527324     dailyrollingfileappender.obj
 0002:00103348       __unwindtable$?computeFrequency@DailyRollingFileAppender@Log4Qt@@AAEXXZ 00527348     dailyrollingfileappender.obj
 0002:001033d0       __ehfuncinfo$?computeRollOverTime@DailyRollingFileAppender@Log4Qt@@AAEXXZ 005273d0     dailyrollingfileappender.obj
 0002:001033f4       __unwindtable$?computeRollOverTime@DailyRollingFileAppender@Log4Qt@@AAEXXZ 005273f4     dailyrollingfileappender.obj
 0002:0010342c       __ehfuncinfo$?rollOver@DailyRollingFileAppender@Log4Qt@@AAEXXZ 0052742c     dailyrollingfileappender.obj
 0002:00103450       __unwindtable$?rollOver@DailyRollingFileAppender@Log4Qt@@AAEXXZ 00527450     dailyrollingfileappender.obj
 0002:00103480       __catchsym$??0?$QList@VQVariant@@@@QAE@ABV0@@Z$7 00527480     fileappender.obj
 0002:00103490       __unwindtable$??0?$QList@VQVariant@@@@QAE@ABV0@@Z 00527490     fileappender.obj
 0002:001034a0       __tryblocktable$??0?$QList@VQVariant@@@@QAE@ABV0@@Z 005274a0     fileappender.obj
 0002:001034b4       __ehfuncinfo$??0?$QList@VQVariant@@@@QAE@ABV0@@Z 005274b4     fileappender.obj
 0002:001034d8       __catchsym$??0?$QList@VLogError@Log4Qt@@@@QAE@ABV0@@Z$7 005274d8     fileappender.obj
 0002:001034e8       __unwindtable$??0?$QList@VLogError@Log4Qt@@@@QAE@ABV0@@Z 005274e8     fileappender.obj
 0002:001034f8       __tryblocktable$??0?$QList@VLogError@Log4Qt@@@@QAE@ABV0@@Z 005274f8     fileappender.obj
 0002:0010350c       __ehfuncinfo$??0?$QList@VLogError@Log4Qt@@@@QAE@ABV0@@Z 0052750c     fileappender.obj
 0002:00103530       __catchsym$?append@?$QList@VLogError@Log4Qt@@@@QAEXABVLogError@Log4Qt@@@Z$16 00527530     fileappender.obj
 0002:00103540       __catchsym$?append@?$QList@VLogError@Log4Qt@@@@QAEXABVLogError@Log4Qt@@@Z$15 00527540     fileappender.obj
 0002:00103550       __ehfuncinfo$?append@?$QList@VLogError@Log4Qt@@@@QAEXABVLogError@Log4Qt@@@Z 00527550     fileappender.obj
 0002:00103574       __tryblocktable$?append@?$QList@VLogError@Log4Qt@@@@QAEXABVLogError@Log4Qt@@@Z 00527574     fileappender.obj
 0002:0010359c       __unwindtable$?append@?$QList@VLogError@Log4Qt@@@@QAEXABVLogError@Log4Qt@@@Z 0052759c     fileappender.obj
 0002:001035fc       __catchsym$?detach_helper_grow@?$QList@VLogError@Log4Qt@@@@AAEPAUNode@1@HH@Z$10 005275fc     fileappender.obj
 0002:0010360c       __catchsym$?detach_helper_grow@?$QList@VLogError@Log4Qt@@@@AAEPAUNode@1@HH@Z$9 0052760c     fileappender.obj
 0002:0010361c       __unwindtable$?detach_helper_grow@?$QList@VLogError@Log4Qt@@@@AAEPAUNode@1@HH@Z 0052761c     fileappender.obj
 0002:0010363c       __ehfuncinfo$?detach_helper_grow@?$QList@VLogError@Log4Qt@@@@AAEPAUNode@1@HH@Z 0052763c     fileappender.obj
 0002:00103660       __tryblocktable$?detach_helper_grow@?$QList@VLogError@Log4Qt@@@@AAEPAUNode@1@HH@Z 00527660     fileappender.obj
 0002:00103688       __catchsym$?node_copy@?$QList@VLogError@Log4Qt@@@@AAEXPAUNode@1@00@Z$48 00527688     fileappender.obj
 0002:00103698       __tryblocktable$?node_copy@?$QList@VLogError@Log4Qt@@@@AAEXPAUNode@1@00@Z 00527698     fileappender.obj
 0002:001036ac       __ehfuncinfo$?node_copy@?$QList@VLogError@Log4Qt@@@@AAEXPAUNode@1@00@Z 005276ac     fileappender.obj
 0002:001036d0       __unwindtable$?node_copy@?$QList@VLogError@Log4Qt@@@@AAEXPAUNode@1@00@Z 005276d0     fileappender.obj
 0002:00103700       __unwindtable$??0LogError@Log4Qt@@QAE@ABV01@@Z 00527700     fileappender.obj
 0002:00103720       __ehfuncinfo$??0LogError@Log4Qt@@QAE@ABV01@@Z 00527720     fileappender.obj
 0002:00103744       __unwindtable$?debug@Logger@Log4Qt@@QBEXPBDABVQString@@11@Z 00527744     factory.obj
 0002:00103744       __unwindtable$?trace@Logger@Log4Qt@@QBEXPBDABVQString@@1@Z 00527744     dailyrollingfileappender.obj
 0002:00103744       __unwindtable$?debug@Logger@Log4Qt@@QBEXPBDABVQString@@1@Z 00527744     fileappender.obj
 0002:00103754       __ehfuncinfo$?trace@Logger@Log4Qt@@QBEXPBDABVQString@@1@Z 00527754     dailyrollingfileappender.obj
 0002:00103754       __ehfuncinfo$?debug@Logger@Log4Qt@@QBEXPBDABVQString@@11@Z 00527754     factory.obj
 0002:00103754       __ehfuncinfo$?debug@Logger@Log4Qt@@QBEXPBDABVQString@@1@Z 00527754     fileappender.obj
 0002:00103778       __unwindtable$?closeFile@FileAppender@Log4Qt@@IAEXXZ 00527778     fileappender.obj
 0002:00103788       __ehfuncinfo$?closeFile@FileAppender@Log4Qt@@IAEXXZ 00527788     fileappender.obj
 0002:001037ac       __ehfuncinfo$?debug@FileAppender@Log4Qt@@MBE?AVQDebug@@AAV3@@Z 005277ac     fileappender.obj
 0002:001037d0       __unwindtable$?debug@FileAppender@Log4Qt@@MBE?AVQDebug@@AAV3@@Z 005277d0     fileappender.obj
 0002:00103810       __ehfuncinfo$?handleIoErrors@FileAppender@Log4Qt@@MBE_NXZ 00527810     fileappender.obj
 0002:00103834       __unwindtable$?handleIoErrors@FileAppender@Log4Qt@@MBE_NXZ 00527834     fileappender.obj
 0002:0010387c       __ehfuncinfo$?openFile@FileAppender@Log4Qt@@IAEXXZ 0052787c     fileappender.obj
 0002:001038a0       __unwindtable$?openFile@FileAppender@Log4Qt@@IAEXXZ 005278a0     fileappender.obj
 0002:00103920       __ehfuncinfo$?removeFile@FileAppender@Log4Qt@@IBE_NAAVQFile@@@Z 00527920     fileappender.obj
 0002:00103944       __unwindtable$?removeFile@FileAppender@Log4Qt@@IBE_NAAVQFile@@@Z 00527944     fileappender.obj
 0002:00103994       __ehfuncinfo$?renameFile@FileAppender@Log4Qt@@IBE_NAAVQFile@@ABVQString@@@Z 00527994     fileappender.obj
 0002:001039b8       __unwindtable$?renameFile@FileAppender@Log4Qt@@IBE_NAAVQFile@@ABVQString@@@Z 005279b8     fileappender.obj
 0002:00103a18       __unwindtable$?logger@ClassLogger@Log4Qt@@QAEPAVLogger@2@PBVQObject@@@Z 00527a18     classlogger.obj
 0002:00103a18       __unwindtable$?messageWithArgs@LogError@Log4Qt@@QBE?AVQString@@XZ 00527a18     logerror.obj
 0002:00103a18       __unwindtable$?debug@SimpleLayout@Log4Qt@@MBE?AVQDebug@@AAV3@@Z 00527a18     simplelayout.obj
 0002:00103a20       __ehfuncinfo$?debug@SimpleLayout@Log4Qt@@MBE?AVQDebug@@AAV3@@Z 00527a20     simplelayout.obj
 0002:00103a20       __ehfuncinfo$?messageWithArgs@LogError@Log4Qt@@QBE?AVQString@@XZ 00527a20     logerror.obj
 0002:00103a20       __ehfuncinfo$?logger@ClassLogger@Log4Qt@@QAEPAVLogger@2@PBVQObject@@@Z 00527a20     classlogger.obj
 0002:00103a44       __unwindtable$??_GConsoleAppender@Log4Qt@@UAEPAXI@Z 00527a44     consoleappender.obj
 0002:00103a44       __unwindtable$??1ListAppender@Log4Qt@@UAE@XZ 00527a44     listappender.obj
 0002:00103a44       __unwindtable$??4?$QList@V?$LogObjectPtr@VAppender@Log4Qt@@@Log4Qt@@@@QAEAAV0@$$QAV0@@Z 00527a44     logger.obj
 0002:00103a44       __unwindtable$??1ConfiguratorHelper@Log4Qt@@EAE@XZ 00527a44     configuratorhelper.obj
 0002:00103a44       __unwindtable$??_GFileAppender@Log4Qt@@UAEPAXI@Z 00527a44     fileappender.obj
 0002:00103a44       __unwindtable$??1Logger@Log4Qt@@MAE@XZ 00527a44     logger.obj
 0002:00103a44       __unwindtable$??1LogError@Log4Qt@@QAE@XZ 00527a44     appenderskeleton.obj
 0002:00103a44       __unwindtable$??_GWriterAppender@Log4Qt@@UAEPAXI@Z 00527a44     writerappender.obj
 0002:00103a44       __unwindtable$??1PropertyConfigurator@Log4Qt@@QAE@XZ 00527a44     propertyconfigurator.obj
 0002:00103a4c       __ehfuncinfo$??1ConfiguratorHelper@Log4Qt@@EAE@XZ 00527a4c     configuratorhelper.obj
 0002:00103a4c       __ehfuncinfo$??_GConsoleAppender@Log4Qt@@UAEPAXI@Z 00527a4c     consoleappender.obj
 0002:00103a4c       __ehfuncinfo$??1ListAppender@Log4Qt@@UAE@XZ 00527a4c     listappender.obj
 0002:00103a4c       __ehfuncinfo$??1Logger@Log4Qt@@MAE@XZ 00527a4c     logger.obj
 0002:00103a4c       __ehfuncinfo$??_GWriterAppender@Log4Qt@@UAEPAXI@Z 00527a4c     writerappender.obj
 0002:00103a4c       __ehfuncinfo$??4?$QList@V?$LogObjectPtr@VAppender@Log4Qt@@@Log4Qt@@@@QAEAAV0@$$QAV0@@Z 00527a4c     logger.obj
 0002:00103a4c       __ehfuncinfo$??1LogError@Log4Qt@@QAE@XZ 00527a4c     appenderskeleton.obj
 0002:00103a4c       __ehfuncinfo$??_GFileAppender@Log4Qt@@UAEPAXI@Z 00527a4c     fileappender.obj
 0002:00103a4c       __ehfuncinfo$??1PropertyConfigurator@Log4Qt@@QAE@XZ 00527a4c     propertyconfigurator.obj
 0002:00103a70       __unwindtable$?instance@ConfiguratorHelper@Log4Qt@@SAPAV12@XZ 00527a70     configuratorhelper.obj
 0002:00103a80       __ehfuncinfo$?instance@ConfiguratorHelper@Log4Qt@@SAPAV12@XZ 00527a80     configuratorhelper.obj
 0002:00103aa4       __unwindtable$?toString@DateTime@Log4Qt@@QBE?AVQString@@ABV3@@Z 00527aa4     datetime.obj
 0002:00103aac       __ehfuncinfo$?toString@DateTime@Log4Qt@@QBE?AVQString@@ABV3@@Z 00527aac     datetime.obj
 0002:00103ad0       __ehfuncinfo$?formatDateTime@DateTime@Log4Qt@@ABE?AVQString@@ABV3@@Z 00527ad0     datetime.obj
 0002:00103af4       __unwindtable$?formatDateTime@DateTime@Log4Qt@@ABE?AVQString@@ABV3@@Z 00527af4     datetime.obj
 0002:00103b1c       __ehfuncinfo$?formatToken@DateTime@Log4Qt@@ABE?AVQString@@ABV3@_N@Z 00527b1c     datetime.obj
 0002:00103b40       __unwindtable$?formatToken@DateTime@Log4Qt@@ABE?AVQString@@ABV3@_N@Z 00527b40     datetime.obj
 0002:00103b98       __catchsym$?append@?$QList@VQString@@@@QAEXABVQString@@@Z$11 00527b98     factory.obj
 0002:00103ba8       __tryblocktable$?append@?$QList@VQString@@@@QAEXABVQString@@@Z 00527ba8     factory.obj
 0002:00103bbc       __ehfuncinfo$?append@?$QList@VQString@@@@QAEXABVQString@@@Z 00527bbc     factory.obj
 0002:00103be0       __unwindtable$?append@?$QList@VQString@@@@QAEXABVQString@@@Z 00527be0     factory.obj
 0002:00103c10       __catchsym$?detach_helper_grow@?$QList@VQString@@@@AAEPAUNode@1@HH@Z$12 00527c10     factory.obj
 0002:00103c20       __catchsym$?detach_helper_grow@?$QList@VQString@@@@AAEPAUNode@1@HH@Z$11 00527c20     factory.obj
 0002:00103c30       __unwindtable$?detach_helper_grow@?$QList@VQString@@@@AAEPAUNode@1@HH@Z 00527c30     factory.obj
 0002:00103c50       __ehfuncinfo$?detach_helper_grow@?$QList@VQString@@@@AAEPAUNode@1@HH@Z 00527c50     factory.obj
 0002:00103c74       __tryblocktable$?detach_helper_grow@?$QList@VQString@@@@AAEPAUNode@1@HH@Z 00527c74     factory.obj
 0002:00103c9c       __catchsym$?detach_helper@?$QList@VQString@@@@AAEXH@Z$9 00527c9c     factory.obj
 0002:00103cac       __unwindtable$?detach_helper@?$QList@VQString@@@@AAEXH@Z 00527cac     factory.obj
 0002:00103cbc       __tryblocktable$?detach_helper@?$QList@VQString@@@@AAEXH@Z 00527cbc     factory.obj
 0002:00103cd0       __ehfuncinfo$?detach_helper@?$QList@VQString@@@@AAEXH@Z 00527cd0     factory.obj
 0002:00103cf4       __ehfuncinfo$?instance@Factory@Log4Qt@@SAPAV12@XZ 00527cf4     factory.obj
 0002:00103d18       __unwindtable$?instance@Factory@Log4Qt@@SAPAV12@XZ 00527d18     factory.obj
 0002:00103d40       __ehfuncinfo$?doSetObjectProperty@Factory@Log4Qt@@AAEXPAVQObject@@ABVQString@@1@Z 00527d40     factory.obj
 0002:00103d64       __unwindtable$?doSetObjectProperty@Factory@Log4Qt@@AAEXPAVQObject@@ABVQString@@1@Z 00527d64     factory.obj
 0002:00103d94       __ehfuncinfo$?registerDefaultAppenders@Factory@Log4Qt@@AAEXXZ 00527d94     factory.obj
 0002:00103db8       __unwindtable$?registerDefaultAppenders@Factory@Log4Qt@@AAEXXZ 00527db8     factory.obj
 0002:00103e28       __ehfuncinfo$?registerDefaultFilters@Factory@Log4Qt@@AAEXXZ 00527e28     factory.obj
 0002:00103e4c       __unwindtable$?registerDefaultFilters@Factory@Log4Qt@@AAEXXZ 00527e4c     factory.obj
 0002:00103e8c       __ehfuncinfo$?registerDefaultLayouts@Factory@Log4Qt@@AAEXXZ 00527e8c     factory.obj
 0002:00103eb0       __unwindtable$?registerDefaultLayouts@Factory@Log4Qt@@AAEXXZ 00527eb0     factory.obj
 0002:00103ee0       __ehfuncinfo$?validateObjectProperty@Factory@Log4Qt@@AAE_NAAVQMetaProperty@@ABVQString@@PAVQObject@@@Z 00527ee0     factory.obj
 0002:00103f04       __unwindtable$?validateObjectProperty@Factory@Log4Qt@@AAE_NAAVQMetaProperty@@ABVQString@@PAVQObject@@@Z 00527f04     factory.obj
 0002:00103f74       __unwindtable$??1Factory@Log4Qt@@QAE@XZ 00527f74     factory.obj
 0002:00103f8c       __ehfuncinfo$??1Factory@Log4Qt@@QAE@XZ 00527f8c     factory.obj
 0002:00103fb0       __unwindtable$?console_file_appender@Log4Qt@@YAPAVAppender@1@XZ 00527fb0     factory.obj
 0002:00103fb8       __ehfuncinfo$?console_file_appender@Log4Qt@@YAPAVAppender@1@XZ 00527fb8     factory.obj
 0002:00103fdc       __unwindtable$?create_daily_rolling_file_appender@Log4Qt@@YAPAVAppender@1@XZ 00527fdc     factory.obj
 0002:00103fe4       __ehfuncinfo$?create_daily_rolling_file_appender@Log4Qt@@YAPAVAppender@1@XZ 00527fe4     factory.obj
 0002:00104008       __unwindtable$?create_debug_appender@Log4Qt@@YAPAVAppender@1@XZ 00528008     factory.obj
 0002:00104010       __ehfuncinfo$?create_debug_appender@Log4Qt@@YAPAVAppender@1@XZ 00528010     factory.obj
 0002:00104034       __unwindtable$?create_file_appender@Log4Qt@@YAPAVAppender@1@XZ 00528034     factory.obj
 0002:0010403c       __ehfuncinfo$?create_file_appender@Log4Qt@@YAPAVAppender@1@XZ 0052803c     factory.obj
 0002:00104060       __unwindtable$?create_list_appender@Log4Qt@@YAPAVAppender@1@XZ 00528060     factory.obj
 0002:00104068       __ehfuncinfo$?create_list_appender@Log4Qt@@YAPAVAppender@1@XZ 00528068     factory.obj
 0002:0010408c       __unwindtable$?create_rolling_file_appender@Log4Qt@@YAPAVAppender@1@XZ 0052808c     factory.obj
 0002:00104094       __ehfuncinfo$?create_rolling_file_appender@Log4Qt@@YAPAVAppender@1@XZ 00528094     factory.obj
 0002:001040b8       __unwindtable$?create_deny_all_filter@Log4Qt@@YAPAVFilter@1@XZ 005280b8     factory.obj
 0002:001040c8       __ehfuncinfo$?create_deny_all_filter@Log4Qt@@YAPAVFilter@1@XZ 005280c8     factory.obj
 0002:001040ec       __unwindtable$?create_string_match_filter@Log4Qt@@YAPAVFilter@1@XZ 005280ec     factory.obj
 0002:001040ec       __unwindtable$?create_level_match_filter@Log4Qt@@YAPAVFilter@1@XZ 005280ec     factory.obj
 0002:001040f4       __ehfuncinfo$?create_string_match_filter@Log4Qt@@YAPAVFilter@1@XZ 005280f4     factory.obj
 0002:001040f4       __ehfuncinfo$?create_level_match_filter@Log4Qt@@YAPAVFilter@1@XZ 005280f4     factory.obj
 0002:00104118       __unwindtable$?create_pattern_layout@Log4Qt@@YAPAVLayout@1@XZ 00528118     factory.obj
 0002:00104118       __unwindtable$?create_level_range_filter@Log4Qt@@YAPAVFilter@1@XZ 00528118     factory.obj
 0002:00104120       __ehfuncinfo$?create_pattern_layout@Log4Qt@@YAPAVLayout@1@XZ 00528120     factory.obj
 0002:00104120       __ehfuncinfo$?create_level_range_filter@Log4Qt@@YAPAVFilter@1@XZ 00528120     factory.obj
 0002:00104144       __unwindtable$?create_simple_layout@Log4Qt@@YAPAVLayout@1@XZ 00528144     factory.obj
 0002:00104154       __ehfuncinfo$?create_simple_layout@Log4Qt@@YAPAVLayout@1@XZ 00528154     factory.obj
 0002:00104178       __unwindtable$?create_null_appender@Log4Qt@@YAPAVAppender@1@XZ 00528178     factory.obj
 0002:00104178       __unwindtable$?create_ttcc_layout@Log4Qt@@YAPAVLayout@1@XZ 00528178     factory.obj
 0002:00104180       __ehfuncinfo$?create_ttcc_layout@Log4Qt@@YAPAVLayout@1@XZ 00528180     factory.obj
 0002:00104180       __ehfuncinfo$?create_null_appender@Log4Qt@@YAPAVAppender@1@XZ 00528180     factory.obj
 0002:001041a4       __catchsym$??0?$QList@VQString@@@@QAE@ABV0@@Z$7 005281a4     initialisationhelper.obj
 0002:001041b4       __unwindtable$??0?$QList@VQString@@@@QAE@ABV0@@Z 005281b4     initialisationhelper.obj
 0002:001041c4       __tryblocktable$??0?$QList@VQString@@@@QAE@ABV0@@Z 005281c4     initialisationhelper.obj
 0002:001041d8       __ehfuncinfo$??0?$QList@VQString@@@@QAE@ABV0@@Z 005281d8     initialisationhelper.obj
 0002:001041fc       __unwindtable$??0InitialisationHelper@Log4Qt@@AAE@XZ 005281fc     initialisationhelper.obj
 0002:0010420c       __ehfuncinfo$??0InitialisationHelper@Log4Qt@@AAE@XZ 0052820c     initialisationhelper.obj
 0002:00104230       __unwindtable$?environmentSettings@InitialisationHelper@Log4Qt@@SA?AV?$QHash@VQString@@V1@@@XZ 00528230     initialisationhelper.obj
 0002:00104238       __ehfuncinfo$?environmentSettings@InitialisationHelper@Log4Qt@@SA?AV?$QHash@VQString@@V1@@@XZ 00528238     initialisationhelper.obj
 0002:0010425c       __ehfuncinfo$?doInitialiseEnvironmentSettings@InitialisationHelper@Log4Qt@@AAEXXZ 0052825c     initialisationhelper.obj
 0002:00104280       __unwindtable$?doInitialiseEnvironmentSettings@InitialisationHelper@Log4Qt@@AAEXXZ 00528280     initialisationhelper.obj
 0002:00104330       __unwindtable$?doRegisterTypes@InitialisationHelper@Log4Qt@@AAEXXZ 00528330     initialisationhelper.obj
 0002:00104348       __ehfuncinfo$?doRegisterTypes@InitialisationHelper@Log4Qt@@AAEXXZ 00528348     initialisationhelper.obj
 0002:0010436c       __ehfuncinfo$?doSetting@InitialisationHelper@Log4Qt@@ABE?AVQString@@ABV3@0@Z 0052836c     initialisationhelper.obj
 0002:00104390       __unwindtable$?doSetting@InitialisationHelper@Log4Qt@@ABE?AVQString@@ABV3@0@Z 00528390     initialisationhelper.obj
 0002:001043b8       __unwindtable$?fromMilliSeconds@DateTime@Log4Qt@@SA?AV12@_J@Z 005283b8     initialisationhelper.obj
 0002:001043c0       __ehfuncinfo$?fromMilliSeconds@DateTime@Log4Qt@@SA?AV12@_J@Z 005283c0     initialisationhelper.obj
 0002:001043e4       __unwindtable$??$qRegisterMetaType@VLoggingEvent@Log4Qt@@@@YAHPBDPAVLoggingEvent@Log4Qt@@W4DefinedType@?$MetaTypeDefinedHelper@VLoggingEvent@Log4Qt@@$00@QtPrivate@@@Z 005283e4     initialisationhelper.obj
 0002:001043e4       __unwindtable$??$qRegisterMetaType@VLogError@Log4Qt@@@@YAHPBDPAVLogError@Log4Qt@@W4DefinedType@?$MetaTypeDefinedHelper@VLogError@Log4Qt@@$00@QtPrivate@@@Z 005283e4     initialisationhelper.obj
 0002:001043e4       __unwindtable$??$qRegisterMetaType@VLevel@Log4Qt@@@@YAHPBDPAVLevel@Log4Qt@@W4DefinedType@?$MetaTypeDefinedHelper@VLevel@Log4Qt@@$00@QtPrivate@@@Z 005283e4     factory.obj
 0002:001043ec       __ehfuncinfo$??$qRegisterMetaType@VLevel@Log4Qt@@@@YAHPBDPAVLevel@Log4Qt@@W4DefinedType@?$MetaTypeDefinedHelper@VLevel@Log4Qt@@$00@QtPrivate@@@Z 005283ec     factory.obj
 0002:001043ec       __ehfuncinfo$??$qRegisterMetaType@VLoggingEvent@Log4Qt@@@@YAHPBDPAVLoggingEvent@Log4Qt@@W4DefinedType@?$MetaTypeDefinedHelper@VLoggingEvent@Log4Qt@@$00@QtPrivate@@@Z 005283ec     initialisationhelper.obj
 0002:001043ec       __ehfuncinfo$??$qRegisterMetaType@VLogError@Log4Qt@@@@YAHPBDPAVLogError@Log4Qt@@W4DefinedType@?$MetaTypeDefinedHelper@VLogError@Log4Qt@@$00@QtPrivate@@@Z 005283ec     initialisationhelper.obj
 0002:00104410       __unwindtable$??$qRegisterMetaTypeStreamOperators@VLevel@Log4Qt@@@@YAXPBDPAVLevel@Log4Qt@@@Z 00528410     initialisationhelper.obj
 0002:00104410       __unwindtable$??$qRegisterMetaTypeStreamOperators@VLogError@Log4Qt@@@@YAXPBDPAVLogError@Log4Qt@@@Z 00528410     initialisationhelper.obj
 0002:00104410       __unwindtable$??$qRegisterMetaTypeStreamOperators@VLoggingEvent@Log4Qt@@@@YAXPBDPAVLoggingEvent@Log4Qt@@@Z 00528410     initialisationhelper.obj
 0002:00104418       __ehfuncinfo$??$qRegisterMetaTypeStreamOperators@VLevel@Log4Qt@@@@YAXPBDPAVLevel@Log4Qt@@@Z 00528418     initialisationhelper.obj
 0002:00104418       __ehfuncinfo$??$qRegisterMetaTypeStreamOperators@VLoggingEvent@Log4Qt@@@@YAXPBDPAVLoggingEvent@Log4Qt@@@Z 00528418     initialisationhelper.obj
 0002:00104418       __ehfuncinfo$??$qRegisterMetaTypeStreamOperators@VLogError@Log4Qt@@@@YAXPBDPAVLogError@Log4Qt@@@Z 00528418     initialisationhelper.obj
 0002:0010443c       __unwindtable$??$qRegisterNormalizedMetaType@VLogError@Log4Qt@@@@YAHABVQByteArray@@PAVLogError@Log4Qt@@W4DefinedType@?$MetaTypeDefinedHelper@VLogError@Log4Qt@@$00@QtPrivate@@@Z 0052843c     initialisationhelper.obj
 0002:0010443c       __unwindtable$??$qRegisterNormalizedMetaType@VLoggingEvent@Log4Qt@@@@YAHABVQByteArray@@PAVLoggingEvent@Log4Qt@@W4DefinedType@?$MetaTypeDefinedHelper@VLoggingEvent@Log4Qt@@$00@QtPrivate@@@Z 0052843c     initialisationhelper.obj
 0002:00104444       __ehfuncinfo$??$qRegisterNormalizedMetaType@VLoggingEvent@Log4Qt@@@@YAHABVQByteArray@@PAVLoggingEvent@Log4Qt@@W4DefinedType@?$MetaTypeDefinedHelper@VLoggingEvent@Log4Qt@@$00@QtPrivate@@@Z 00528444     initialisationhelper.obj
 0002:00104444       __ehfuncinfo$??$qRegisterNormalizedMetaType@VLogError@Log4Qt@@@@YAHABVQByteArray@@PAVLogError@Log4Qt@@W4DefinedType@?$MetaTypeDefinedHelper@VLogError@Log4Qt@@$00@QtPrivate@@@Z 00528444     initialisationhelper.obj
 0002:00104468       __unwindtable$?Construct@?$QMetaTypeFunctionHelper@VLogError@Log4Qt@@$00@QtMetaTypePrivate@@SAPAXPAXPBX@Z 00528468     initialisationhelper.obj
 0002:00104468       __unwindtable$?Construct@?$QMetaTypeFunctionHelper@VLoggingEvent@Log4Qt@@$00@QtMetaTypePrivate@@SAPAXPAXPBX@Z 00528468     initialisationhelper.obj
 0002:00104478       __ehfuncinfo$?Construct@?$QMetaTypeFunctionHelper@VLogError@Log4Qt@@$00@QtMetaTypePrivate@@SAPAXPAXPBX@Z 00528478     initialisationhelper.obj
 0002:00104478       __ehfuncinfo$?Construct@?$QMetaTypeFunctionHelper@VLoggingEvent@Log4Qt@@$00@QtMetaTypePrivate@@SAPAXPAXPBX@Z 00528478     initialisationhelper.obj
 0002:0010449c       __unwindtable$??4?$QList@VQVariant@@@@QAEAAV0@$$QAV0@@Z 0052849c     logerror.obj
 0002:0010449c       __unwindtable$??1Hierarchy@Log4Qt@@UAE@XZ 0052849c     hierarchy.obj
 0002:001044a4       __ehfuncinfo$??1Hierarchy@Log4Qt@@UAE@XZ 005284a4     hierarchy.obj
 0002:001044a4       __ehfuncinfo$??4?$QList@VQVariant@@@@QAEAAV0@$$QAV0@@Z 005284a4     logerror.obj
 0002:001044c8       __unwindtable$?clear@?$QList@VQVariant@@@@QAEXXZ 005284c8     logerror.obj
 0002:001044d0       __ehfuncinfo$?clear@?$QList@VQVariant@@@@QAEXXZ 005284d0     logerror.obj
 0002:001044f4       __catchsym$?detach_helper@?$QList@VQVariant@@@@AAEXH@Z$7 005284f4     logerror.obj
 0002:00104504       __unwindtable$?detach_helper@?$QList@VQVariant@@@@AAEXH@Z 00528504     logerror.obj
 0002:00104514       __tryblocktable$?detach_helper@?$QList@VQVariant@@@@AAEXH@Z 00528514     logerror.obj
 0002:00104528       __ehfuncinfo$?detach_helper@?$QList@VQVariant@@@@AAEXH@Z 00528528     logerror.obj
 0002:0010454c       __unwindtable$??0LogError@Log4Qt@@QAE@ABVQString@@H00@Z 0052854c     logerror.obj
 0002:00104554       __ehfuncinfo$??0LogError@Log4Qt@@QAE@ABVQString@@H00@Z 00528554     logerror.obj
 0002:00104578       __ehfuncinfo$??0LogError@Log4Qt@@QAE@PBDH00W4Encoding@01@@Z 00528578     logerror.obj
 0002:0010459c       __unwindtable$??0LogError@Log4Qt@@QAE@PBDH00W4Encoding@01@@Z 0052859c     logerror.obj
 0002:001045c4       __ehfuncinfo$?toString@LogError@Log4Qt@@QBE?AVQString@@XZ 005285c4     logerror.obj
 0002:001045e8       __unwindtable$?toString@LogError@Log4Qt@@QBE?AVQString@@XZ 005285e8     logerror.obj
 0002:00104630       __ehfuncinfo$?insertArgs@LogError@Log4Qt@@ABE?AVQString@@ABV3@@Z 00528630     logerror.obj
 0002:00104654       __unwindtable$?insertArgs@LogError@Log4Qt@@ABE?AVQString@@ABV3@@Z 00528654     logerror.obj
 0002:0010467c       __unwindtable$?cleanMessage@LogError@Log4Qt@@AAE?AVQString@@ABV3@@Z 0052867c     logerror.obj
 0002:00104684       __ehfuncinfo$?cleanMessage@LogError@Log4Qt@@AAE?AVQString@@ABV3@@Z 00528684     logerror.obj
 0002:001046a8       __unwindtable$?clear@?$QList@VLogError@Log4Qt@@@@QAEXXZ 005286a8     logerror.obj
 0002:001046b8       __ehfuncinfo$?clear@?$QList@VLogError@Log4Qt@@@@QAEXXZ 005286b8     logerror.obj
 0002:001046dc       __catchsym$?detach_helper@?$QList@VLogError@Log4Qt@@@@AAEXH@Z$7 005286dc     logerror.obj
 0002:001046ec       __unwindtable$?detach_helper@?$QList@VLogError@Log4Qt@@@@AAEXH@Z 005286ec     logerror.obj
 0002:001046fc       __tryblocktable$?detach_helper@?$QList@VLogError@Log4Qt@@@@AAEXH@Z 005286fc     logerror.obj
 0002:00104710       __ehfuncinfo$?detach_helper@?$QList@VLogError@Log4Qt@@@@AAEXH@Z 00528710     logerror.obj
 0002:00104734       __unwindtable$??6Log4Qt@@YAAAVQDataStream@@AAV1@ABVLogError@0@@Z 00528734     logerror.obj
 0002:00104744       __ehfuncinfo$??6Log4Qt@@YAAAVQDataStream@@AAV1@ABVLogError@0@@Z 00528744     logerror.obj
 0002:00104768       __ehfuncinfo$??5Log4Qt@@YAAAVQDataStream@@AAV1@AAVLogError@0@@Z 00528768     logerror.obj
 0002:0010478c       __unwindtable$??5Log4Qt@@YAAAVQDataStream@@AAV1@AAVLogError@0@@Z 0052878c     logerror.obj
 0002:001047b4       __unwindtable$??$readArrayBasedContainer@V?$QList@VQVariant@@@@@QtPrivate@@YAAAVQDataStream@@AAV1@AAV?$QList@VQVariant@@@@@Z 005287b4     logerror.obj
 0002:001047cc       __ehfuncinfo$??$readArrayBasedContainer@V?$QList@VQVariant@@@@@QtPrivate@@YAAAVQDataStream@@AAV1@AAV?$QList@VQVariant@@@@@Z 005287cc     logerror.obj
 0002:001047f0       __ehfuncinfo$??$readArrayBasedContainer@V?$QList@VLogError@Log4Qt@@@@@QtPrivate@@YAAAVQDataStream@@AAV1@AAV?$QList@VLogError@Log4Qt@@@@@Z 005287f0     logerror.obj
 0002:00104814       __unwindtable$??$readArrayBasedContainer@V?$QList@VLogError@Log4Qt@@@@@QtPrivate@@YAAAVQDataStream@@AAV1@AAV?$QList@VLogError@Log4Qt@@@@@Z 00528814     logerror.obj
 0002:0010483c       __ehfuncinfo$?findAndSubst@OptionConverter@Log4Qt@@SA?AVQString@@ABVProperties@2@ABV3@@Z 0052883c     optionconverter.obj
 0002:00104860       __unwindtable$?findAndSubst@OptionConverter@Log4Qt@@SA?AVQString@@ABVProperties@2@ABV3@@Z 00528860     optionconverter.obj
 0002:001048c0       __unwindtable$?toBoolean@OptionConverter@Log4Qt@@SA_NABVQString@@PA_N@Z 005288c0     optionconverter.obj
 0002:001048e0       __ehfuncinfo$?toBoolean@OptionConverter@Log4Qt@@SA_NABVQString@@PA_N@Z 005288e0     optionconverter.obj
 0002:00104904       __ehfuncinfo$?toFileSize@OptionConverter@Log4Qt@@SA_JABVQString@@PA_N@Z 00528904     optionconverter.obj
 0002:00104928       __unwindtable$?toFileSize@OptionConverter@Log4Qt@@SA_JABVQString@@PA_N@Z 00528928     optionconverter.obj
 0002:00104960       __unwindtable$?toInt@OptionConverter@Log4Qt@@SAHABVQString@@PA_N@Z 00528960     optionconverter.obj
 0002:00104960       __unwindtable$?toQInt64@OptionConverter@Log4Qt@@SA_JABVQString@@PA_N@Z 00528960     optionconverter.obj
 0002:00104980       __ehfuncinfo$?toQInt64@OptionConverter@Log4Qt@@SA_JABVQString@@PA_N@Z 00528980     optionconverter.obj
 0002:00104980       __ehfuncinfo$?toInt@OptionConverter@Log4Qt@@SAHABVQString@@PA_N@Z 00528980     optionconverter.obj
 0002:001049a4       __ehfuncinfo$?toLevel@OptionConverter@Log4Qt@@SA?AVLevel@2@ABVQString@@PA_N@Z 005289a4     optionconverter.obj
 0002:001049c8       __unwindtable$?toLevel@OptionConverter@Log4Qt@@SA?AVLevel@2@ABVQString@@PA_N@Z 005289c8     optionconverter.obj
 0002:001049f0       __unwindtable$?toTarget@OptionConverter@Log4Qt@@SAHABVQString@@PA_N@Z 005289f0     optionconverter.obj
 0002:00104a10       __ehfuncinfo$?toTarget@OptionConverter@Log4Qt@@SAHABVQString@@PA_N@Z 00528a10     optionconverter.obj
 0002:00104a34       __ehfuncinfo$??0PatternFormatter@Log4Qt@@QAE@ABVQString@@@Z 00528a34     patternformatter.obj
 0002:00104a58       __unwindtable$??0PatternFormatter@Log4Qt@@QAE@ABVQString@@@Z 00528a58     patternformatter.obj
 0002:00104a80       __unwindtable$??1PatternFormatter@Log4Qt@@UAE@XZ 00528a80     patternformatter.obj
 0002:00104a90       __ehfuncinfo$??1PatternFormatter@Log4Qt@@UAE@XZ 00528a90     patternformatter.obj
 0002:00104ab4       __unwindtable$?format@PatternFormatter@Log4Qt@@QBE?AVQString@@ABVLoggingEvent@2@@Z 00528ab4     patternformatter.obj
 0002:00104acc       __ehfuncinfo$?format@PatternFormatter@Log4Qt@@QBE?AVQString@@ABVLoggingEvent@2@@Z 00528acc     patternformatter.obj
 0002:00104af0       __ehfuncinfo$?createConverter@PatternFormatter@Log4Qt@@AAEXABVQChar@@ABVFormattingInfo@2@ABVQString@@@Z 00528af0     patternformatter.obj
 0002:00104b14       __unwindtable$?createConverter@PatternFormatter@Log4Qt@@AAEXABVQChar@@ABVFormattingInfo@2@ABVQString@@@Z 00528b14     patternformatter.obj
 0002:00104b8c       __ehfuncinfo$?parse@PatternFormatter@Log4Qt@@AAEXXZ 00528b8c     patternformatter.obj
 0002:00104bb0       __unwindtable$?parse@PatternFormatter@Log4Qt@@AAEXXZ 00528bb0     patternformatter.obj
 0002:00104c10       __ehfuncinfo$?parseIntegerOption@PatternFormatter@Log4Qt@@AAEHABVQString@@@Z 00528c10     patternformatter.obj
 0002:00104c34       __unwindtable$?parseIntegerOption@PatternFormatter@Log4Qt@@AAEHABVQString@@@Z 00528c34     patternformatter.obj
 0002:00104c64       __catchsym$??0?$QList@PAVPatternConverter@Log4Qt@@@@QAE@ABV0@@Z$7 00528c64     patternformatter.obj
 0002:00104c74       __unwindtable$??0?$QList@PAVPatternConverter@Log4Qt@@@@QAE@ABV0@@Z 00528c74     patternformatter.obj
 0002:00104c84       __tryblocktable$??0?$QList@PAVPatternConverter@Log4Qt@@@@QAE@ABV0@@Z 00528c84     patternformatter.obj
 0002:00104c98       __ehfuncinfo$??0?$QList@PAVPatternConverter@Log4Qt@@@@QAE@ABV0@@Z 00528c98     patternformatter.obj
 0002:00104cbc       __unwindtable$?warn@Logger@Log4Qt@@QBEXPBDABVQString@@H1@Z 00528cbc     patternformatter.obj
 0002:00104cdc       __ehfuncinfo$?warn@Logger@Log4Qt@@QBEXPBDABVQString@@H1@Z 00528cdc     patternformatter.obj
 0002:00104d00       __unwindtable$?format@PatternConverter@Log4Qt@@QBEXAAVQString@@ABVLoggingEvent@2@@Z 00528d00     patternformatter.obj
 0002:00104d20       __ehfuncinfo$?format@PatternConverter@Log4Qt@@QBEXAAVQString@@ABVLoggingEvent@2@@Z 00528d20     patternformatter.obj
 0002:00104d44       __unwindtable$?debug@BasicPatternConverter@Log4Qt@@MBE?AVQDebug@@AAV3@@Z 00528d44     patternformatter.obj
 0002:00104d54       __ehfuncinfo$?debug@BasicPatternConverter@Log4Qt@@MBE?AVQDebug@@AAV3@@Z 00528d54     patternformatter.obj
 0002:00104d78       __unwindtable$?convert@DatePatternConverter@Log4Qt@@MBE?AVQString@@ABVLoggingEvent@2@@Z 00528d78     patternformatter.obj
 0002:00104d80       __ehfuncinfo$?convert@DatePatternConverter@Log4Qt@@MBE?AVQString@@ABVLoggingEvent@2@@Z 00528d80     patternformatter.obj
 0002:00104da4       __unwindtable$?debug@LiteralPatternConverter@Log4Qt@@MBE?AVQDebug@@AAV3@@Z 00528da4     patternformatter.obj
 0002:00104da4       __unwindtable$?debug@MDCPatternConverter@Log4Qt@@MBE?AVQDebug@@AAV3@@Z 00528da4     patternformatter.obj
 0002:00104da4       __unwindtable$?debug@DatePatternConverter@Log4Qt@@MBE?AVQDebug@@AAV3@@Z 00528da4     patternformatter.obj
 0002:00104da4       __unwindtable$?debug@LoggerPatternConverter@Log4Qt@@MBE?AVQDebug@@AAV3@@Z 00528da4     patternformatter.obj
 0002:00104dac       __ehfuncinfo$?debug@MDCPatternConverter@Log4Qt@@MBE?AVQDebug@@AAV3@@Z 00528dac     patternformatter.obj
 0002:00104dac       __ehfuncinfo$?debug@DatePatternConverter@Log4Qt@@MBE?AVQDebug@@AAV3@@Z 00528dac     patternformatter.obj
 0002:00104dac       __ehfuncinfo$?debug@LoggerPatternConverter@Log4Qt@@MBE?AVQDebug@@AAV3@@Z 00528dac     patternformatter.obj
 0002:00104dac       __ehfuncinfo$?debug@LiteralPatternConverter@Log4Qt@@MBE?AVQDebug@@AAV3@@Z 00528dac     patternformatter.obj
 0002:00104dd0       __unwindtable$?convert@LoggerPatternConverter@Log4Qt@@MBE?AVQString@@ABVLoggingEvent@2@@Z 00528dd0     patternformatter.obj
 0002:00104de0       __ehfuncinfo$?convert@LoggerPatternConverter@Log4Qt@@MBE?AVQString@@ABVLoggingEvent@2@@Z 00528de0     patternformatter.obj
 0002:00104e04       __unwindtable$?convert@MDCPatternConverter@Log4Qt@@MBE?AVQString@@ABVLoggingEvent@2@@Z 00528e04     patternformatter.obj
 0002:00104e0c       __ehfuncinfo$?convert@MDCPatternConverter@Log4Qt@@MBE?AVQString@@ABVLoggingEvent@2@@Z 00528e0c     patternformatter.obj
 0002:00104e30       __unwindtable$??6Log4Qt@@YA?AVQDebug@@V1@ABVFormattingInfo@0@@Z 00528e30     patternformatter.obj
 0002:00104e48       __ehfuncinfo$??6Log4Qt@@YA?AVQDebug@@V1@ABVFormattingInfo@0@@Z 00528e48     patternformatter.obj
 0002:00104e6c       __unwindtable$?keys@?$QHash@VQString@@V1@@@QBE?AV?$QList@VQString@@@@XZ 00528e6c     properties.obj
 0002:00104e74       __ehfuncinfo$?keys@?$QHash@VQString@@V1@@@QBE?AV?$QList@VQString@@@@XZ 00528e74     properties.obj
 0002:00104e98       __unwindtable$?property@Properties@Log4Qt@@QBE?AVQString@@ABV3@@Z 00528e98     properties.obj
 0002:00104ea0       __ehfuncinfo$?property@Properties@Log4Qt@@QBE?AVQString@@ABV3@@Z 00528ea0     properties.obj
 0002:00104ec4       __ehfuncinfo$?load@Properties@Log4Qt@@QAEXPAVQIODevice@@@Z 00528ec4     properties.obj
 0002:00104ee8       __unwindtable$?load@Properties@Log4Qt@@QAEXPAVQIODevice@@@Z 00528ee8     properties.obj
 0002:00104f18       __ehfuncinfo$?load@Properties@Log4Qt@@QAEXABVQSettings@@@Z 00528f18     properties.obj
 0002:00104f3c       __unwindtable$?load@Properties@Log4Qt@@QAEXABVQSettings@@@Z 00528f3c     properties.obj
 0002:00104f7c       __ehfuncinfo$?propertyNames@Properties@Log4Qt@@QBE?AVQStringList@@XZ 00528f7c     properties.obj
 0002:00104fa0       __unwindtable$?propertyNames@Properties@Log4Qt@@QBE?AVQStringList@@XZ 00528fa0     properties.obj
 0002:00104fd0       __ehfuncinfo$?parseProperty@Properties@Log4Qt@@AAEXABVQString@@H@Z 00528fd0     properties.obj
 0002:00104ff4       __unwindtable$?parseProperty@Properties@Log4Qt@@AAEXABVQString@@H@Z 00528ff4     properties.obj
 0002:0010503c       __unwindtable$?warn@Logger@Log4Qt@@QBEXPBDABVQString@@H@Z 0052903c     properties.obj
 0002:00105054       __ehfuncinfo$?warn@Logger@Log4Qt@@QBEXPBDABVQString@@H@Z 00529054     properties.obj
 0002:00105078       __unwindtable$??0Hierarchy@Log4Qt@@QAE@XZ 00529078     hierarchy.obj
 0002:00105098       __ehfuncinfo$??0Hierarchy@Log4Qt@@QAE@XZ 00529098     hierarchy.obj
 0002:001050bc       __unwindtable$?logger@Hierarchy@Log4Qt@@UAEPAVLogger@2@ABVQString@@@Z 005290bc     hierarchy.obj
 0002:001050c4       __ehfuncinfo$?logger@Hierarchy@Log4Qt@@UAEPAVLogger@2@ABVQString@@@Z 005290c4     hierarchy.obj
 0002:001050e8       __unwindtable$?loggers@Hierarchy@Log4Qt@@UBE?AV?$QList@PAVLogger@Log4Qt@@@@XZ 005290e8     hierarchy.obj
 0002:001050f0       __ehfuncinfo$?loggers@Hierarchy@Log4Qt@@UBE?AV?$QList@PAVLogger@Log4Qt@@@@XZ 005290f0     hierarchy.obj
 0002:00105114       __ehfuncinfo$?resetConfiguration@Hierarchy@Log4Qt@@UAEXXZ 00529114     hierarchy.obj
 0002:00105138       __unwindtable$?resetConfiguration@Hierarchy@Log4Qt@@UAEXXZ 00529138     hierarchy.obj
 0002:00105160       __ehfuncinfo$?debug@Hierarchy@Log4Qt@@MBE?AVQDebug@@AAV3@@Z 00529160     hierarchy.obj
 0002:00105184       __unwindtable$?debug@Hierarchy@Log4Qt@@MBE?AVQDebug@@AAV3@@Z 00529184     hierarchy.obj
 0002:001051b4       __ehfuncinfo$?createLogger@Hierarchy@Log4Qt@@AAEPAVLogger@2@ABVQString@@@Z 005291b4     hierarchy.obj
 0002:001051d8       __unwindtable$?createLogger@Hierarchy@Log4Qt@@AAEPAVLogger@2@ABVQString@@@Z 005291d8     hierarchy.obj
 0002:00105210       __ehfuncinfo$??1?$QHash@VQString@@V1@@@QAE@XZ 00529210     initialisationhelper.obj
 0002:00105210       __ehfuncinfo$??1?$QHash@VQString@@P6APAVAppender@Log4Qt@@XZ@@QAE@XZ 00529210     factory.obj
 0002:00105210       __ehfuncinfo$??1?$QList@VQString@@@@QAE@XZ 00529210     factory.obj
 0002:00105210       __ehfuncinfo$??1LogManager@Log4Qt@@EAE@XZ 00529210     logmanager.obj
 0002:00105210       __ehfuncinfo$??1?$QList@PAVLogger@Log4Qt@@@@QAE@XZ 00529210     hierarchy.obj
 0002:00105210       __ehfuncinfo$??1?$QHash@VQString@@P6APAVFilter@Log4Qt@@XZ@@QAE@XZ 00529210     factory.obj
 0002:00105210       __ehfuncinfo$??1?$QHash@VQString@@P6APAVLayout@Log4Qt@@XZ@@QAE@XZ 00529210     factory.obj
 0002:00105210       __ehfuncinfo$??1?$QHash@VQString@@PAVLogger@Log4Qt@@@@QAE@XZ 00529210     hierarchy.obj
 0002:00105210       __ehfuncinfo$??1?$QList@VQVariant@@@@QAE@XZ 00529210     fileappender.obj
 0002:00105210       __ehfuncinfo$??1?$QList@PAVAppender@Log4Qt@@@@QAE@XZ 00529210     hierarchy.obj
 0002:00105210       __ehfuncinfo$??1?$QList@V?$LogObjectPtr@VAppender@Log4Qt@@@Log4Qt@@@@QAE@XZ 00529210     logger.obj
 0002:00105210       __ehfuncinfo$??1StreamStateSaver@QtPrivate@@QAE@XZ 00529210     logerror.obj
 0002:00105210       __ehfuncinfo$??1?$QMap@VQString@@H@@QAE@XZ 00529210     main.obj
 0002:00105210       __ehfuncinfo$??1FileAppender@Log4Qt@@UAE@XZ 00529210     fileappender.obj
 0002:00105210       __ehfuncinfo$??1?$QList@VLoggingEvent@Log4Qt@@@@QAE@XZ 00529210     basicconfigurator.obj
 0002:00105210       __ehfuncinfo$??1?$QMap@HVQString@@@@QAE@XZ 00529210     main.obj
 0002:00105210       __ehfuncinfo$??1WriterAppender@Log4Qt@@UAE@XZ 00529210     writerappender.obj
 0002:00105210       __ehfuncinfo$??1?$QList@PAVPatternConverter@Log4Qt@@@@QAE@XZ 00529210     patternformatter.obj
 0002:00105210       __ehfuncinfo$??1?$QList@VLogError@Log4Qt@@@@QAE@XZ 00529210     appenderskeleton.obj
 0002:00105234       __unwindtable$?values@?$QHash@VQString@@PAVLogger@Log4Qt@@@@QBE?AV?$QList@PAVLogger@Log4Qt@@@@XZ 00529234     hierarchy.obj
 0002:0010523c       __ehfuncinfo$?values@?$QHash@VQString@@PAVLogger@Log4Qt@@@@QBE?AV?$QList@PAVLogger@Log4Qt@@@@XZ 0052923c     hierarchy.obj
 0002:00105260       __catchsym$?append@?$QList@PAVAppender@Log4Qt@@@@QAEXABQAVAppender@Log4Qt@@@Z$9 00529260     logger.obj
 0002:00105260       __catchsym$?append@?$QList@PAVPatternConverter@Log4Qt@@@@QAEXABQAVPatternConverter@Log4Qt@@@Z$9 00529260     patternformatter.obj
 0002:00105260       __catchsym$?append@?$QList@PAVLogger@Log4Qt@@@@QAEXABQAVLogger@Log4Qt@@@Z$9 00529260     hierarchy.obj
 0002:00105270       __tryblocktable$?append@?$QList@PAVLogger@Log4Qt@@@@QAEXABQAVLogger@Log4Qt@@@Z 00529270     hierarchy.obj
 0002:00105270       __tryblocktable$?append@?$QList@PAVPatternConverter@Log4Qt@@@@QAEXABQAVPatternConverter@Log4Qt@@@Z 00529270     patternformatter.obj
